wc:_glClearStencil
b_d:_Array_InternalArray__ICollection_Add_TisMark_t2724874473_m1613484179_gshared
uBg:__ZL80Graphic_t2426225576_CustomAttributesCacheGenerator_Graphic_OnFillVBO_m1723985607P21CustomAttributesCache
G7i:__ZN6il2cpp2vm5Array13GetByteLengthEP11Il2CppArray
D8g:_Raycast3DCallback_BeginInvoke_m3028685017
JJg:__Z79RuntimeInvoker_RuntimeObject_Int64_t909078037_Int64_t909078037_Int64_t909078037PFvvEPK10MethodInfoPvPS4_
$xi:_TextGenerator_Invalidate_m1993568841
s3e:_Comparison_1_Invoke_m353639462_gshared
jIa:__Z30GetIntermediateRendererManagerv
Uid:_GraphicRegistry_RegisterGraphicForCanvas_m2284226562
Pia:__Z21SourceMipLevelForBlitiiii
RMa:__ZN31CanvasBatchIntermediateRenderer15AddAsRenderNodeER15RenderNodeQueueRK20DeprecatedSourceData
lmg:__ZL87Component_t3819376471_CustomAttributesCacheGenerator_Component_GetComponent_m1409092944P21CustomAttributesCache
nDd:_Enumerator_get_Key_m2908810861
Pei:_GUI_DoSetSkin_m2532620610
Nr:__ZN11UnityEngine9Animation28GenericAnimationBindingCacheD2Ev
Ish:_EqualityComparer_1__cctor_m968537130_gshared
iDe:_List_1_System_Collections_IList_IndexOf_m39706221_gshared
Qmh:_Dictionary_2_Remove_m1849931834_gshared
dGd:_Decimal_op_Implicit_m2971610317
agi:_GUILayoutGroup_ResetCursor_m3614985691
qgd:_Graphic_UnregisterDirtyVerticesCallback_m1526739224
EUb:__Z18RestoreRenderStateR20CameraRenderOldStateR17ShaderPassContext
Xyd:_SynchronizedArrayListWrapper_get_Item_m3309425850
kvb:__Z18Transfer_BlittableI18StreamedBinaryReadILb1EELb1E5RectTIfEEvRK29SerializationCommandArgumentsR31RuntimeSerializationCommandInfo
EZh:_UnityEventBase_RebuildPersistentCallsIfNeeded_m2776978024
crb:__Z18Transfer_BlittableI24GenerateTypeTreeTransferLb0E11ColorRGBA32EvRK29SerializationCommandArgumentsR31RuntimeSerializationCommandInfo
O0:__Z25scripting_class_from_name17ScriptingImagePtrPKcS1_
FWi:__ZN14dense_hash_mapI10KeyWrapperINSt3__24pairIPK12PropertyInfoP11Il2CppClassEEEj17ReflectionMapHashIS8_ENS9_14EqualsComparerINS1_8equal_toIS8_EEEENS1_9allocatorINS2_IKS9_jEEEEE15set_deleted_keyERSH_
oBb:__Z29scripting_class_enum_basetype17ScriptingClassPtr
dVg:__Z111RuntimeInvoker_Void_t1841601450_Vector4_t2243707581_Vector4_t2243707581_Vector4_t2243707581_Vector4_t2243707581PFvvEPK10MethodInfoPvPS4_
tVf:_GenericTypeParameterBuilder_GetHashCode_m867619899
MJf:_TimeSpan_ToString_m2947282901
esh:_EqualityComparer_1__cctor_m3397254040_gshared
Fib:__ZNK20LocalFileSystemPosix6ParentERK13FileEntryDataRN4core12basic_stringIcNS3_20StringStorageDefaultIcEEEE
m3d:_Array_Sort_TisVector2_t2243707579_m1307634946_gshared
sga:__ZN7ApiGLES17CopyBufferSubDataEjjlll
CNf:_UInt64_System_IConvertible_ToDecimal_m4205696037
Rkc:__ZN5Unity9rapidjson15GenericDocumentINS0_4UTF8IcEE13JSONAllocatorS4_E11ParseStreamILj1ES3_NS0_25GenericInsituStringStreamIS3_EEEERS5_RT1_
Mvi:_U3CCreateWhereIteratorU3Ec__Iterator1D_1_Reset_m1773515612_gshared
EMb:__ZN25CameraStackRenderingState20GetOrCreateBuiltinRTE24BuiltinRenderTextureTypeii17DepthBufferFormat19RenderTextureFormatj22RenderTextureReadWrite14VRTextureUsagei
fmi:_AesManaged_CreateEncryptor_m1729287824
u$a:__ZNK14Texture2DArray26CanReuploadDataToGfxDeviceEv
ZQb:__ZN17PrePassRenderLoop14RenderBasePassEP13RenderTextureRK14LightingLayersR13dynamic_arrayI16RenderObjectDataLj4EERbR10MinMaxAABB
awd:_Char_System_IConvertible_ToInt16_m2741348777_AdjustorThunk
Fic:__ZN5IMGUI18RepaintModalWindowER8GUIState
OYe:_ReadOnlyCollection_1_System_Collections_Generic_IListU3CTU3E_set_Item_m1547026160_gshared
$Ga:__ZNK15dense_hashtableINSt3__24pairIKN9ShaderLab7Program23ShaderKeywordSetAndHashEPKNS2_10SubProgramEEES4_NS3_24ShaderKeywordHashFunctorEN14dense_hash_mapIS4_S8_SA_NS0_8equal_toIS4_EE13stl_allocatorIS9_L18MemLabelIdentifier67ELi16EEE9SelectKeyESD_SG_E23find_position_with_hashERS5_j
M3f:__ZL61MarshalAsAttribute_t2900773360_CustomAttributesCacheGeneratorP21CustomAttributesCache
b_a:__Z23SetSpriteMeshIndexCountP14SharedMeshDataj
IOa:__ZN7Texture13SetFilterModeEi
qac:__Z46Register_UnityEngine_Application_get_isPlayingv
M9i:__ZN6il2cpp8metadata13GenericMethod9GetMethodEPK19Il2CppGenericMethod
gq:__ZNSt3__26vectorIN4core12basic_stringIcNS1_20StringStorageDefaultIcEEEENS_9allocatorIS5_EEE7reserveEj
xId:_Convert_ToUInt16_m2130758075
NSi:__ZN15dense_hashtableINSt3__24pairIK10KeyWrapperINS1_IPK11Il2CppImageP11Il2CppClassEEEjEES9_17ReflectionMapHashIS8_EN14dense_hash_mapIS9_jSD_NS9_14EqualsComparerINS0_8equal_toIS8_EEEENS0_9allocatorISB_EEE9SelectKeyESI_SK_E3endEv
Jmf:_X509BasicConstraintsExtension_Encode_m3505127076
Baa:__ZN13GfxDeviceGLES11SetViewportERK5RectTIiE
old:_Image_get_pixelsPerUnit_m4104195799
$eh:_Toggle_InternalToggle_m2323729210
JMd:_Decimal_System_IConvertible_ToInt64_m2504363272
Wfc:__Z24Time_Get_Custom_PropTimev
ird:_Array_GetValue_m3182152438
Nd:_emscripten_glDepthRange
cVc:_DESTransform_CipherFunct_m3559419566
SXc:_Rijndael_Create_m113171669
NWb:__ZNSt3__26vectorINS_4pairIN4core12basic_stringIcNS2_20StringStorageDefaultIcEEEES6_EE13stl_allocatorIS7_L18MemLabelIdentifier38ELi16EEE12__move_rangeEPS7_SC_SC_
Ebb:__Z14resize_trimmedINSt3__26vectorIN9ShaderLab20SerializedSubProgram12UAVParameterENS0_9allocatorIS4_EEEEEvRT_j
jlc:__ZN5Unity9rapidjson13GenericReaderINS0_4UTF8IcEES3_13JSONAllocatorE11ParseObjectILj1ENS0_25GenericInsituStringStreamIS3_EENS0_15GenericDocumentIS3_S4_S4_EEEEvRT0_RT1_
Bxf:_SerializationInfo_AddValue_m1781549036
Kaf:_TlsServerKeyExchange_verifySignature_m3641534563
U2:__ZNSt3__218__insertion_sort_3IRNS_6__lessI14ObjectLoadDataS2_EEPS2_EEvT0_S6_T_
ndh:_Slider_FindSelectableOnLeft_m3136767885
nia:__ZN4crndL20crnd_default_reallocEPvjPjbS0_
ZWd:_Array_BinarySearch_TisInt32_t2071877448_m51233948_gshared
Bnj:__ZNSt3__212basic_stringIcNS_11char_traitsIcEENS_9allocatorIcEEEC2ERKS5_
Yvf:_ProviderData_CopyFrom_m431414335
T_a:__ZN18SpriteAtlasManager19AddRequestingSpriteE4PPtrI6SpriteE
AFf:_UTF32Encoding_GetPreamble_m767706727
Hfc:__Z33Texture_CUSTOM_Internal_GetHeightP12Il2CppObject
Fpd:_LayoutGroup_get_preferredHeight_m3901163825
ITb:__ZN23ScriptableRenderContextC2Ev
IFd:_DateTime_AbsoluteDays_m3061694073
iGc:_UNITY_FT_Stream_GetChar
Lvb:__Z18Transfer_BlittableI18StreamedBinaryReadILb1EELb1EdEvRK29SerializationCommandArgumentsR31RuntimeSerializationCommandInfo
Sgh:_Enumerator_System_Collections_IEnumerator_get_Current_m229223308_gshared
xBb:__Z26BuildSerializationCacheFor17ScriptingClassPtrRb
toa:__ZN7ApiGLES15BlitFramebufferEN2gl6HandleILNS0_10ObjectTypeE9EEENS0_15FramebufferReadES3_S3_iiiiiiiiNS0_15FramebufferTypeE
v0h:_Mesh_CheckCanAccessSubmeshTriangles_m2644388378
eUg:__Z112RuntimeInvoker_RuntimeObject_RuntimeObject_RuntimeObject_RuntimeObject_RuntimeObject_RuntimeObject_RuntimeObjectPFvvEPK10MethodInfoPvPS4_
pci:_UnitySynchronizationContext__ctor_m1804960286
Gyd:_FixedSizeArrayListWrapper_AddRange_m2071800418
LD:__ZN13ProduceHelperI8AnimatorLb0EE7ProduceE18MemLabelIdentifier18ObjectCreationMode
QCb:__Z9InitInputv
pPg:__Z85RuntimeInvoker_Boolean_t3825574718_Int64_t909078037_Int64_t909078037_SByte_t454417549PFvvEPK10MethodInfoPvPS4_
XBe:_Enumerator_VerifyState_m2358705882_AdjustorThunk
rzc:_UNITY_tt_face_build_cmaps
Kjb:__ZN16MemoryFileSystem6DeleteER13FileEntryDatab
fja:__ZL21BlitScaleStbImageImplRK14ImageReferenceRS_NS_10ColorSpaceE
L8h:_RectTransform_INTERNAL_set_pivot_m4248720081
phf:_TlsStream_set_Position_m378064217
Wmb:__Z29Transfer_Blittable_ArrayFieldI14SafeBinaryReadyEvRT_R9ArrayInfoRK23StaticTransferFieldInfo
HL:__ZN20SoundChannelInstance15setChannelGroupEPN4FMOD12ChannelGroupE
Y0c:_Evidence_Equals_m2325859915
C5h:_PlayableHandle_INTERNAL_CALL_GetPlayableTypeOf_m1683061051
EQf:_Default__ctor_m172834064
kc:invoke_vifffii
i$i:__ZN6il2cpp2vm9Exception27RaiseNullReferenceExceptionEv
dRh:_Regex_IsMatch_m2159202025
hBa:__ZNK25MultiBlocksMemoryFileData5CloneEv
ofj:_GC_add_ext_descriptor
mtf:_RemotingServices_GetMethodBaseFromName_m3271095947
Ipj:dynCall_iiiiiiiiiiii
$5c:_ASCIIEncoding_GetBytes_m3617160053
O9e:_CipherSuiteCollection_System_Collections_IList_RemoveAt_m143866082
mgb:__ZL26KeywordSetToStringDontSortRKNSt3__26vectorIN4core12basic_stringIcNS1_20StringStorageDefaultIcEEEENS_9allocatorIS5_EEEERS5_
Zka:__ZN6prcoreL17RemapGenericFloatI16TexFormatRGFloat17TexFormatRGBAHalfEEvPKNS_9InnerInfoE
cG:__ZN12AudioManager22CreateFMODSoundFromWWWEP10IWWWStream15FMOD_SOUND_TYPE17FMOD_SOUND_FORMATjjbbP10SampleClip
d2b:__ZNK32RendererMaterialAnimationBinding15GenerateBindingERKN4core12basic_stringIcNS0_20StringStorageDefaultIcEEEEbRN11UnityEngine9Animation14GenericBindingE
b0:__ZN8Remapper23GetOrGenerateInstanceIDERK26SerializedObjectIdentifier
jue:_StreamWriter_Flush_m3426120024
Ya:invoke_iiiiiifffiiifii
Pre:_MemoryStream__ctor_m1489366847
q1c:_SecurityElement_IsValidTag_m64902195
I$f:_PropertyInfo_SetValue_m2961483868
SHe:_List_1_System_Collections_IList_Contains_m4193366963_gshared
aRf:_ConstructorInfo_Invoke_m2144827141
o_a:__ZN6Sprite8TransferI24GenerateTypeTreeTransferEEvRT_
Lgc:__Z48Register_UnityEngine_Transform_SetAsFirstSiblingv
r_a:__ZN7SubMesh8TransferI24GenerateTypeTreeTransferEEvRT_
M_f:_MonoProperty_get_CanWrite_m2124922514
wKi:__ZN6il2cpp6icalls8mscorlib6SystemL16CheckMemberMatchI9FieldInfoNS_5utils10functional6FilterINSt3__212basic_stringIcNS8_11char_traitsIcEENS8_9allocatorIcEEEENS5_13VmStringUtils23CaseInsensitiveComparerEEEEEbPKT_PK11Il2CppClassSN_iRKT0_
Cmj:_poll
Bre:_Stream_BeginRead_m1985960185
m0b:__ZN13ProduceHelperI14Texture2DArrayLb0EE7ProduceE18MemLabelIdentifier18ObjectCreationMode
c7e:_MD4Managed_GG_m1462438360
qec:__Z53PlayableHandle_CUSTOM_INTERNAL_CALL_GetPlayableTypeOfR9HPlayable
g8b:__ZN9Transform23SetSiblingIndexInternalEib
rpe:_BinaryReader_CheckBuffer_m1059275266
Qaa:__ZN13GfxDeviceGLES17DestroySubProgramEPN9ShaderLab10SubProgramE
Lt:__ZN7mecanim5human12HumanPoseSubERNS0_9HumanPoseERKS1_S4_
ldi:_Vector3_Max_m2076081170
Q6e:_MD4_Create_m2582504069
H3i:__ZN6il2cpp8metadata15GenericMetadata15GetGenericClassEiPK17Il2CppGenericInst
Ntd:_Boolean_System_IConvertible_ToInt16_m977801621
vlb:__Z18Transfer_BlittableI14SafeBinaryReadLb0E10Matrix4x4fEvRK29SerializationCommandArgumentsR31RuntimeSerializationCommandInfo
PAb:__Z24GetFixedBehaviourManagerv
RJb:__ZN12FlareManager9UpdateJobEP25FlareManagerUpdateJobData
$Ji:__ZN6il2cpp2vm10ThreadPool4WaitEP17Il2CppAsyncResultPPv
K1h:_Plane__ctor_m730644932_AdjustorThunk
Nkj:_vfprintf
cjc:__ZN10GUIManager12AddGUIScriptER8ListNodeI13MonoBehaviourE
iMa:__ZN19ShaderPropertySheet20ReservePropertyCountEj
zKb:__ZN20DynamicPropertySheetD0Ev
SWb:__ZN14SafeBinaryRead17RegisterConverterEPKcS1_PFbPvRS_E
JX:__ZN35RegisterRuntimeInitializeAndCleanup8RegisterEPFvPvES2_iS0_
T1e:_ReadOnlyCollection_1_System_Collections_IList_Clear_m2600246370_gshared
Nbe:_DSAManaged_NormalizeArray_m2287089393
Pgc:__Z21Object_CUSTOM_DestroyP12Il2CppObjectf
pEh:_InternalEnumerator_1_System_Collections_IEnumerator_get_Current_m2389982234_AdjustorThunk
Sfb:__ZN8Material26ResetAllCachedMaterialDataEP6Shader
sGc:_UNITY_TT_Get_MM_Var
fAi:__ZN6il2cpp6icalls8mscorlib6System7Decimal13decimal2Int64EP19il2cpp_decimal_reprPx
aa:invoke_diddi
u9c:_ExecuteEvents__cctor_m288775360
xIc:__ZNK2UI6Canvas13GetRenderModeEv
TGd:_Double_TryParseStringConstant_m2585405703
Hkb:__Z18Transfer_BlittableI14SafeBinaryReadLb0EiEvRK29SerializationCommandArgumentsR31RuntimeSerializationCommandInfo
NIi:__ZN6il2cpp2vm13MetadataCache30GetPropertyDefinitionFromIndexEi
bYc:_RijndaelTransform_Clear_m1652144089
fqe:_MonoIO_GetException_m2577367044
cRc:__ZN22BaseUnityConnectClient17InitializeSessionERKN4core12basic_stringIcNS0_20StringStorageDefaultIcEEEES6_N19CloudServiceHandler13InitModeFlagsE
ujh:_Enumerator_MoveNext_m1404007384_gshared
Sye:_NumberFormatter_get_IsZero_m1325357749
s0h:_Mesh_PrintErrorCantAccessIndices_m2990602703
Bvj:_emscripten_glDeleteBuffers__wrapper
qXg:__Z121RuntimeInvoker_Void_t1841601450_Single_t2076509932_Single_t2076509932_Single_t2076509932_Single_t2076509932_RuntimeObjectPFvvEPK10MethodInfoPvPS4_
hQd:_Enum_ToObject_m322320225
P9b:__ZN13MonoBehaviour34StopCoroutineFromEnumeratorManagedE18ScriptingObjectPtr
E$c:_X509Certificate__ctor_m3860837120
QZg:__Z109RuntimeInvoker_RuntimeObject_Ray_t2469606224_Single_t2076509932_Int32_t2071877448_RuntimeObject_RuntimeObjectPFvvEPK10MethodInfoPvPS4_
O1e:_ReadOnlyCollection_1_System_Collections_Generic_IListU3CTU3E_set_Item_m3663361643_gshared
YD:__ZN7mecanim9animation14AvatarConstant15InitializeClassEv
D8c:_EventTrigger_OnScroll_m626934407
a7a:__ZN30RuntimeInitializeOnLoadManager8TransferI18StreamedBinaryReadILb0EEEEvRT_
DTf:_TypeBuilder_not_supported_m3178173643
Kyc:_UNITY_tt_face_load_pclt
g9b:__ZL34GetComponentsImplementationRecurseILb1ELi0ELi2EEbR10GameObjectbRK17CompareParametersRK39GetComponentsImplementation_ReturnValue
Thj:__ZN6il2cpp6icalls8mscorlib6System9Threading5Mutex20CreateMutex_internalEbP12Il2CppStringPb
nyd:_ArrayListWrapper_Remove_m1105489978
VJb:__ZNK6Camera18WorldToScreenPointERK8Vector3fPb
sgi:_GUISkin__ctor_m2824039590
kud:_Boolean_CompareTo_m3691698947_AdjustorThunk
dCd:_HashKeys_CopyTo_m3566668422
Pna:__Z18IsCompressedFormat14GraphicsFormat
iwd:_Convert_ToSByte_m2665932200
n$:__ZNSt3__227__insertion_sort_incompleteIRPFbRKN18AwakeFromLoadQueue4ItemES4_EPS2_EEbT0_S9_T_
ySf:_ILGenerator_label_fixup_m1325994348
RGi:__ZN14dense_hash_mapI10KeyWrapperIN6il2cpp5utils13dynamic_arrayIPK10Il2CppTypeLj4EEEEPFvvENS1_8metadata19Il2CppSignatureHashENS8_14EqualsComparerINSB_22Il2CppSignatureCompareEEENSt3__29allocatorINSG_4pairIKS8_SA_EEEEE15set_deleted_keyERSJ_
z7g:_Navigation_Equals_m4214630671_AdjustorThunk
__e:_ReadOnlyCollection_1_System_Collections_Generic_IListU3CTU3E_set_Item_m257196015_gshared
hYf:_FieldInfo_GetPseudoCustomAttributes_m2500972355
uWa:__ZN26EnlightenSystemInformation8TransferI14SafeBinaryReadEEvRT_
q5d:_Array_InternalArray__get_Item_TisLink_t2723257478_m2281261655_gshared
tSc:__ZN11UnityEngine15PlatformWrapper20SetPlayerPrefsUInt64ERKN4core12basic_stringIcNS1_20StringStorageDefaultIcEEEEy
l2a:__ZN12MeshRendererD0Ev
aP:__ZN12AudioManager35GetCurrentSpatializerDefinitionNameEv
fBd:_Hashtable__ctor_m2702360557
wh:_utime
Kdi:_Vector4_get_sqrMagnitude_m641641704_AdjustorThunk
lB:__Z28SetExposedSkeletonTransformsRKN7mecanim9animation14AvatarConstantERKN11UnityEngine9Animation30AnimatorGenericBindingConstantERKNS_8skeleton13SkeletonPoseTIN4math4trsXEEERKNSA_INSB_7affineXEEERNS5_21AvatarBindingConstantEy
qVd:_PlayableHandle_IsPlayableOfType_TisAnimationLayerMixerPlayable_t3057952312_m2522157783_AdjustorThunk
C5e:_PrimalityTest_Invoke_m4058801829
mn:FUNCTION_TABLE_viiiiif
Gwf:_RemotingConfiguration_SetCustomErrorsMode_m1844153208
rn:FUNCTION_TABLE_viiiiii
DSd:_CultureInfo_GetFormat_m3560116485
KC:__ZN7mecanim9animation22DestroyAvatarWorkspaceEPNS0_15AvatarWorkspaceERNS_6memory9AllocatorE
FRh:_AnchorInfo_get_IsPosition_m3791659233
dRb:__ZN15LightmapSTCacheC2ER13BatchRendererR15RenderLoopStats
Aic:__ZNSt3__210__list_impIN10GUIManager12SortedScriptE11memory_poolIS2_EE5clearEv
aTa:__ZN14PlayableOutput17SetSourcePlayableEP8Playable
U6a:__ZNSt3__26vectorIN4core12basic_stringIcNS1_20StringStorageDefaultIcEEEE13stl_allocatorIS5_L18MemLabelIdentifier13ELi16EEE8__appendEj
Xwf:_TrackingServices__cctor_m3639412334
aC:__ZN7mecanim9animation29MotionOutputGetDeltaTransformEPKNS0_12MotionOutputE
k_b:__Z13RegisterClassI16GraphicsSettingsEvv
tE:__ZN8Animator14OnAddComponentEPN5Unity9ComponentE
XNe:_List_1_CheckMatch_m1184924052_gshared
igc:__Z43Transform_CUSTOM_INTERNAL_get_localRotationP12Il2CppObjectP11Quaternionf
Jtj:_glGetShaderInfoLog__wrapper
$h:_emscripten_glGetTexParameteriv
Tjj:__ZN6il2cpp8metadata21Il2CppGenericInstHash4HashEPK17Il2CppGenericInst
Z7e:_RSAManaged_ImportParameters_m3060955884
$Kh:_ChannelData_CopyFrom_m4049054607
r_b:__Z13RegisterClassI4MeshEvv
zSa:__ZN8PlayableD0Ev
FH:__ZN12AudioManager8TransferI19StreamedBinaryWriteILb0EEEEvRT_
gse:_WriteDelegate_Invoke_m2103848735
uli:_Locale_GetText_m512920887
owf:_RemotingConfiguration_get_ProcessId_m3870172209
eje:_SortKey_ToString_m2406913228
nib:__ZN22LocalFileSystemHandler9MakeLocalER13FileEntryDatab
tbj:__ZN6il2cpp2vm8Profiler10AllocationEP12Il2CppObjectP11Il2CppClass
_Fd:_Convert_ToDateTime_m1020507389
kwc:__ZNSt3__23mapIN20TextRenderingPrivate7FontRefENS1_6OSFontENS_4lessIS2_EENS_9allocatorINS_4pairIKS2_S3_EEEEEixERS8_
u$h:_Material_SetInt_m2847439171
B8:__Z13FormatOrderedPKcz
dqe:_Path_IsPathRooted_m1347207448
jyf:_ObjectManager_RegisterObjectInternal_m879109503
_Sd:_Array_get_swapper_TisVector4_t2243707581_m97441823_gshared
ztc:__ZN14SafeBinaryRead21TransferSTLStyleArrayI10vector_mapINSt3__24pairIttEEfN20TextRenderingPrivate8FontImpl14KerningCompareENS2_9allocatorINS3_IS4_fEEEEEEEvRT_17TransferMetaFlags
N_b:__Z13RegisterClassI15QualitySettingsEvv
baj:__ZN6il2cpp2vm6String21InitializeEmptyStringEP11Il2CppClass
OQb:__ZN25DeferredRenderLoopScratchD0Ev
gw:__ZN27AnimationLayerMixerPlayable14SetInputWeightEif
Ht:__ZN7mecanim9animation17EvaluateHumanPoseERKNS0_18ClipMuscleConstantERKNS0_15ClipMuscleInputEPKfRKNS0_12MotionOutputERNS_5human9HumanPoseE
_Zh:_GameObject_AddComponent_m540062519
lbb:__ZN15dense_hashtableINSt3__24pairIKiN4core17string_with_labelILi1EEEEEi18SInt32HashFunctionN14dense_hash_mapIiS5_S7_NS0_8equal_toIiEE13stl_allocatorIS6_L18MemLabelIdentifier1ELi16EEE9SelectKeyESA_SD_E9copy_fromERKSG_j
oIa:__ZN6Camera11ResetAspectEv
nLf:_Type_get_IsGenericType_m3396841573
C5a:__ZN15ResourceManagerD0Ev
Lmf:_X509BasicConstraintsExtension_get_HasPathLengthConstraint_m3788532759
hMa:__ZNK17InstancedPropInfo22FillInstancePropertiesER19ShaderPropertySheetjPK17BatchInstanceDatajRK15RenderNodeQueue
lHa:__ZN22CreateGpuProgramOutputD2Ev
JO:__ZN13ProduceHelperI13AudioListenerLb0EE7ProduceE18MemLabelIdentifier18ObjectCreationMode
Kyi:_WillRenderCanvases_Invoke_m4267547094
ZEd:_DateTimeFormatInfo_GetInstance_m3133223810
W4e:_ModulusRing_BarrettReduction_m2802101099
yhb:__ZN12HandlerChain4OpenER13FileEntryData14FilePermission16FileAutoBehavior
iSi:__ZN15dense_hashtableINSt3__24pairIK10KeyWrapperINS1_IPK10MethodInfoP11Il2CppClassEEEjEES9_17ReflectionMapHashIS8_EN14dense_hash_mapIS9_jSD_NS9_14EqualsComparerINS0_8equal_toIS8_EEEENS0_9allocatorISB_EEE9SelectKeyESI_SK_E6insertERKSB_
vkh:_ValueCollection_System_Collections_Generic_ICollectionU3CTValueU3E_Remove_m4188992987_gshared
n2:__ZN14FileCacherReadD2Ev
M8a:__ZN13RendererScene23UpdatePreviousFrameDataEii
zZc:_RSAPKCS1SignatureDeformatter_VerifySignature_m1825067195
N8h:_RectTransform_remove_reapplyDrivenProperties_m52143263
Gsi:__ZL25UnresolvedVirtualCall_123P12Il2CppObjectffPK10MethodInfo
Ebc:__Z50Register_UnityEngine_CullingGroup_FinalizerFailurev
zAe:_KeyValuePair_2_ToString_m2613351884_gshared
u9a:__ZN27UnloadUnusedAssetsOperationD0Ev
AAg:__ZL69ColorBlock_t2652774230_CustomAttributesCacheGenerator_m_DisabledColorP21CustomAttributesCache
J8g:_Scrollbar__ctor_m2244981801
sAi:_AnimationLayerMixerPlayable__ctor_m678972180
b_c:_SHA256Managed_HashCore_m4111458495
sSd:_CultureInfo_get_CompareInfo_m3085280862
kzf:_ObjectManager_RecordDelayedFixup_m1895730844
uF:__ZN9AudioClip23VirtualRedirectTransferER18StreamedBinaryReadILb0EE
obf:_ClientSessionInfo_CheckDisposed_m1394638186
aBf:_SByte_Parse_m2544167007
e3c:_Single_CompareTo_m2081476257
a9d:_BigInteger__ctor_m2945783161
_cf:_TlsClientHello_Update_m1723542631
j8h:_RectOffset_set_top_m1587840032
jke:_IndexOutOfRangeException__ctor_m3497760912
zj:_glCopyTexSubImage2D
gwf:_RealProxy_InternalGetTransparentProxy_m3415358600
RBe:_Enumerator_System_Collections_IEnumerator_Reset_m2200349770_gshared
rbj:__ZN6il2cpp6icalls8mscorlib6System7Convert24InternalFromBase64StringEP12Il2CppStringb
e$c:_SymmetricAlgorithm_CreateDecryptor_m4240570785
xeh:_Text_get_preferredWidth_m3352156860
vLc:__ZN2UI13CanvasManager14GetRenderOrderEPKNS_6CanvasE
rlb:__Z18Transfer_BlittableI14SafeBinaryReadLb0E5RectTIfEEvRK29SerializationCommandArgumentsR31RuntimeSerializationCommandInfo
QTc:__ZNK20UnityWebRequestProtoI24UnityWebRequestTransport16AtomicRefCounter14RedirectHelper14ResponseHelper15DownloadHandler13UploadHandler12HeaderHelper14AsyncOperationE14GetUploadBytesEv
c0e:_ReadOnlyCollection_1_System_Collections_Generic_IListU3CTU3E_RemoveAt_m878653284_gshared
OSd:_DateTimeFormatInfo_GetFormat_m3676195179
Xga:__ZN14GfxContextGLES14GetFramebufferEv
Svj:_emscripten_glGenVertexArrays__wrapper
Kja:__ZN6prcoreL21CreateRemapAnyBlitterE13TextureFormatS0_
Gjj:__ZN6il2cpp2os5Event4WaitEjb
l7b:__ZN17AnimationCurveTplIfE16StripInvalidKeysEv
CZd:_Array_InternalArray__ICollection_Add_TisKeyValuePair_2_t3716250094_m2381539361_gshared
UYh:_InvokableCall_add_Delegate_m1994890856
kge:_X509Extension_WriteLine_m2850991173
lKc:__ZNK2UI6Canvas17GetSortingLayerIDEv
uNi:_il2cpp_method_has_attribute
j_b:__Z13RegisterClassI17GlobalGameManagerEvv
bYa:__ZN8Renderer24SetupNewRendererForSceneEv
yUd:_Array_InternalArray__ICollection_Remove_TisInt64_t909078037_m2653583130_gshared
Nxi:_TextGenerator_Populate_Internal_m65392018
KGf:_Thread_get_ExecutionContext_m922067206
C4d:_BaseInvokableCall_ThrowOnInvalidArg_TisInt32_t2071877448_m2823200566_gshared
Hpc:__Z35Transfer_Blittable_FixedBufferFieldI8JSONReadtEvRK29SerializationCommandArgumentsR31RuntimeSerializationCommandInfo
M4b:__ZN14PlayableOutput6HandleEv
LZa:__ZNK6Sprite22GetTypeVirtualInternalEv
ln:FUNCTION_TABLE_iiiiiiiiiiiiii
jSg:__Z100RuntimeInvoker_Void_t1841601450_SByte_t454417549_SByte_t454417549_Int32_t2071877448_SByte_t454417549PFvvEPK10MethodInfoPvPS4_
Bzc:_UNITY_tt_get_cmap_info
csb:__Z29Transfer_Blittable_ArrayFieldI24GenerateTypeTreeTransfer5RectTIiEEvRT_R9ArrayInfoRK23StaticTransferFieldInfo
xNa:__ZN16ReflectionProbes8ScheduleEN18ReflectionProbeJob7JobTypeEP15ReflectionProbei
VVe:_Collection_1_IsFixedSize_m3675221982_gshared
_Ce:_Enumerator_MoveNext_m3293920409_AdjustorThunk
Sya:__Z18IsDirectoryCreatedRKN4core12basic_stringIcNS_20StringStorageDefaultIcEEEE
gJc:__ZN2UI13CanvasManagerD2Ev
NGh:_Comparer_1__cctor_m3112251759_gshared
Vlf:_X509KeyUsageExtension_ToString_m1992050580
Rvc:_UNITY_FT_GlyphLoader_Done
KOf:_ValueType_DefaultEquals_m2245650968
SRh:_BalancingGroup__ctor_m2474435406
osf:_ConstructionCall__ctor_m1143766850
OGh:_Comparer_1_System_Collections_IComparer_Compare_m3203078743_gshared
vyf:_ObjectReader_ReadArrayOfString_m3752210963
evi:_Terminal_WriteLine_m3165006896
pAc:_tt_cmap14_char_var_index
Fyb:__Z35Transfer_Blittable_FixedBufferFieldI18StreamedBinaryReadILb0EEdEvRK29SerializationCommandArgumentsR31RuntimeSerializationCommandInfo
KBc:_psh_globals_new
Wre:_FileStream_Seek_m950719389
jGd:_Decimal_stripStyles_m294582157
N9:__ZN9GfxDevice20SetMaxBufferedFramesEi
wIe:_List_1_RemoveAll_m4125997475_gshared
bLg:__Z98RuntimeInvoker_Void_t1841601450_Int32_t2071877448_Int32_t2071877448_RuntimeObject_SByte_t454417549PFvvEPK10MethodInfoPvPS4_
Ypj:dynCall_vdd
WKc:__ZN2UIL17UnloadAllCanvasesEv
lYb:__Z23ConvertIntegerToTypePtrIsEbPvR14SafeBinaryRead
G9f:__ZL54_MethodBase_t1935530873_CustomAttributesCacheGeneratorP21CustomAttributesCache
INg:__Z96RuntimeInvoker_Void_t1841601450_SByte_t454417549_RuntimeObject_SByte_t454417549_SByte_t454417549PFvvEPK10MethodInfoPvPS4_
Kyd:_FixedSizeArrayListWrapper_Remove_m1359458911
sWh:_CameraCallback_Invoke_m2640212610
Sja:__ZN6prcoreL29inner_stretch_rgb565_bilinearEPKNS_9InnerInfoE
mTh:_Uri__ctor_m3927533881
dNc:__Z33Canvas_Get_Custom_PropWorldCameraP12Il2CppObject
Ldh:_Text_get_mainTexture_m813502234
tjj:__ZN6il2cpp8metadata19Il2CppSignatureHash4HashERKNS_5utils13dynamic_arrayIPK10Il2CppTypeLj4EEE
ZPb:__ZNK14RenderSettings19GetFlatAmbientColorEv
kja:__ZN6prcoreL10inner_flipILj4EEEvPhS1_j
n4a:__ZN18StreamedBinaryReadILb0EE21TransferSTLStyleArrayI10vector_mapIPKN5Unity4TypeE7Hash128NSt3__24lessIS6_EENS8_9allocatorINS8_4pairIS6_S7_EEEEEEEvRT_17TransferMetaFlags
cy:__ZNK27StateMachineBehaviourPlayer15IsSenderEnabledEv
GHh:_Enumerator_VerifyState_m2118679243_gshared
_ld:_InputField_get_shouldHideMobileInput_m3694613599
Ggc:__Z40Register_UnityEngine_Transform_SetParentv
PRg:__Z56RuntimeInvoker_TimeSpan_t3430258949_TimeSpan_t3430258949PFvvEPK10MethodInfoPvPS4_
C$a:__ZN14Texture2DArray17UploadToGfxDeviceEv
y$e:_ReadOnlyCollection_1_System_Collections_Generic_IListU3CTU3E_Insert_m4216310986_gshared
kYe:_ReadOnlyCollection_1_System_Collections_Generic_IListU3CTU3E_set_Item_m1532495847_gshared
lJ:__Z14FMODMemoryFreePvjPKc
Bld:_Image_AddQuad_m1600600902
$Cc:_cf2_glyphpath_moveTo
lLd:_DateTimeOffset__ctor_m1796624924
P7c:_BaseRaycaster_OnDisable_m1716508791
Gu:__ZN7mecanim23TransformValueArrayLoopEiiiRKN4math4trsXES3_RNS_10ValueArrayEf
b6e:_ASN1Convert_ToInt32_m2121135414
Zic:__ZN5IMGUI14GUIWindowStateD2Ev
wfj:_GC_is_heap_ptr
gbi:_TouchScreenKeyboard_Open_m2033426733
nB:__ZN7mecanim5human10RetargetToEPKNS0_5HumanEPKNS0_9HumanPoseES6_RKN4math4trsXEPS4_PNS_8skeleton13SkeletonPoseTIS8_EESF_
yu:__ZN7mecanim9animation8SeekClipERKNS0_12StreamedClipERNS0_18StreamedClipMemoryEf
em:_emscripten_glIsTexture
qyd:_ArrayListWrapper_CopyTo_m793444109
Lk:_emscripten_glHint
gGc:_ft_var_readpackeddeltas
vKd:_DateTime_AddMilliseconds_m1813199744_AdjustorThunk
QVf:_MethodBuilder_GetParameterCount_m467267889
Zbj:__ZThn4_N6il2cpp2vm13CachedCCWBaseINS0_13ManagedObjectEE6AddRefEv
gvb:__Z35Transfer_Blittable_FixedBufferFieldI18StreamedBinaryReadILb1EEtEvRK29SerializationCommandArgumentsR31RuntimeSerializationCommandInfo
J8h:_RectTransform_INTERNAL_get_pivot_m4220117653
P7e:_RSAManaged__ctor_m1680944437
hm:_SDL_UpperBlit
tNa:__Z35GetTextureDecodeValuesWithIntensity16TextureUsageMode17TextureColorSpace10ColorSpacef
uvd:_Byte_GetHashCode_m2885528842_AdjustorThunk
yWi:__ZN15dense_hashtableINSt3__24pairIK10KeyWrapperINS1_IPK9EventInfoP11Il2CppClassEEEjEES9_17ReflectionMapHashIS8_EN14dense_hash_mapIS9_jSD_NS9_14EqualsComparerINS0_8equal_toIS8_EEEENS0_9allocatorISB_EEE9SelectKeyESI_SK_E15set_deleted_keyERKSB_
$lh:_Dictionary_2_OnDeserialization_m2092139626_gshared
eZh:_PersistentCall__ctor_m3653852388
XAb:__ZN14SafeBinaryRead20OverrideRootTypeNameEPKc
r2:__ZN14FileCacherRead16UnlockCacheBlockEj
pfe:_X509Certificate_GetUnsignedBigInteger_m3491353542
Ic:_emscripten_glUniform1f
Hhb:__ZNK12HandlerChain4SizeERK13FileEntryData
qwc:__Z20ParseImageParametersR11UTF16StringRiRN20TextRenderingPrivate16TextFormatChangeE
Nc:_emscripten_glUniform1i
Aqb:__Z18Transfer_BlittableI24GenerateTypeTreeTransferLb1EN4math12int3_storageEEvRK29SerializationCommandArgumentsR31RuntimeSerializationCommandInfo
tY:__Z33UnregisterDeviceEventCallbackImplPFv23UnityGfxDeviceEventTypeE
R8g:__Z14bankers_roundff
Qcb:__ZN9ShaderLab16SerializedTagMapaSERKS0_
yR:__ZN11UnityEngine15CloudWebService16SessionContainer20RestoreSessionHeaderERKN4core12basic_stringIcNS2_20StringStorageDefaultIcEEEES8_RNS0_13SessionHeaderE
$Kd:_DateTime_ToString_m1117481977
lVf:_GenericTypeParameterBuilder_GetGenericArguments_m277381309
yC:__ZN11UnityEngine9Animation27CreateAvatarBindingConstantER9TransformPKN7mecanim9animation14AvatarConstantERNS3_6memory9AllocatorE
ANf:_UInt64_System_IConvertible_ToDateTime_m2412118561
bac:__ZN9BlobWriteC2ER13dynamic_arrayIhLj16EE24TransferInstructionFlags19BuildTargetPlatform
B0:__ZN14MessageHandler3GetEv
$c:_emscripten_glAttachShader
p_e:_ReadOnlyCollection_1__ctor_m1539890895_gshared
M9:__ZN9GfxDevice13SetActiveTierE12GraphicsTier
KBe:_Enumerator_System_Collections_IEnumerator_get_Current_m3079057684_AdjustorThunk
W2a:__ZNSt3__26vectorIN4core12basic_stringIcNS1_20StringStorageDefaultIcEEEENS_9allocatorIS5_EEE6assignIPS5_EENS_9enable_ifIXaasr21__is_forward_iteratorIT_EE5valuesr16is_constructibleIS5_NS_15iterator_traitsISC_E9referenceEEE5valueEvE4typeESC_SC_
fce:_KeyPairPersistence_get_UserPath_m3433052783
c1f:__ZL58Decimal_t724701077_CustomAttributesCacheGenerator_MinusOneP21CustomAttributesCache
_kb:__Z18Transfer_BlittableI14SafeBinaryReadLb0E11QuaternionfEvRK29SerializationCommandArgumentsR31RuntimeSerializationCommandInfo
nyb:__Z18Transfer_BlittableI18StreamedBinaryReadILb0EELb1E12PropertyNameEvRK29SerializationCommandArgumentsR31RuntimeSerializationCommandInfo
VV:_tlsf_walk_heap
Pee:_PKCS12_Decode_m731190390
ABh:_InternalEnumerator_1_get_Current_m1550231132_gshared
QOf:_Version_CheckedSet_m76493673
jb:invoke_vif
kb:invoke_vid
Xnj:__ZNSt3__212basic_stringIcNS_11char_traitsIcEENS_9allocatorIcEEE6insertEjPKc
Sdg:__ZL67UnverifiableCodeAttribute_t765455733_CustomAttributesCacheGeneratorP21CustomAttributesCache
lb:invoke_vii
uJb:__ZNK12ImageFilters8DoRenderER17ShaderPassContextP13RenderTextureS3_RKNSt3__26vectorI11ImageFilterNS4_9allocatorIS6_EEEE
Fxa:__ZN12TLSAllocatorI14StackAllocatorE16ThreadInitializeEP13BaseAllocator
Oxd:_ArrayList_Sort_m2778059513
laa:__ZN9GfxDevice32UpdateStereoViewProjectionMatrixE21MonoOrStereoscopicEye
eGb:__ZN15dense_hashtableINSt3__24pairIKN4core12basic_stringIcNS2_20StringStorageDefaultIcEEEEP20ArchiveStorageReaderEES6_20StringHash32FunctionIS6_EN14dense_hash_mapIS6_S9_SC_NS0_8equal_toIS6_EE13stl_allocatorISA_L18MemLabelIdentifier55ELi16EEE9SelectKeyESF_SI_E12resize_deltaEjj
skd:_LayoutGroup_SetChildAlongAxis_m2732017156
kMc:__Z41CanvasRenderer_CUSTOM_DisableRectClippingP12Il2CppObject
G6e:_MD2_Create_m539024737
lTg:__Z112RuntimeInvoker_Void_t1841601450_RuntimeObject_Int32_t2071877448_Int32_t2071877448_RuntimeObject_SByte_t454417549PFvvEPK10MethodInfoPvPS4_
UBa:__ZN25SingleBlockMemoryFileDataD0Ev
Pxa:__ZNSt3__26vectorI14ConstantStringNS_9allocatorIS1_EEE6assignINS_11__wrap_iterIPS1_EEEENS_9enable_ifIXaasr21__is_forward_iteratorIT_EE5valuesr16is_constructibleIS1_NS_15iterator_traitsISA_E9referenceEEE5valueEvE4typeESA_SA_
tR:__ZN11UnityEngine15CloudWebService16SessionContainer21ConvertFromFolderTimeERKN4core12basic_stringIcNS2_20StringStorageDefaultIcEEEEPjPt
Lmb:__ZNSt3__26vectorI8GUIStyle13stl_allocatorIS1_L18MemLabelIdentifier1ELi16EEE7reserveEj
C_i:__ZN6il2cpp6icalls8mscorlib6System9Threading6Thread27GetSerializedCurrentCultureEP12Il2CppThread
QYd:_Array_InternalArray__IndexOf_TisUInt32_t2149682021_m3231515987_gshared
i0b:__Z31CalculateHierarchyTransformType23TransformAccessReadOnly
G_b:__Z13RegisterClassI11TimeManagerEvv
cJ:__ZN4FMOD8ChannelI11setPositionEjj
AMg:__Z136RuntimeInvoker_IntPtr_t_RuntimeObject_Int32_t2071877448_Int32_t2071877448_Int32_t2071877448_Int32_t2071877448_MonoIOErrorU26_t1029615899PFvvEPK10MethodInfoPvPS4_
oaa:__ZN9GfxDevice17SetStereoViewportE15StereoscopicEyeRK5RectTIiE
B7:__ZN17BaseObjectManager13StaticDestroyEPv
VLd:_DBNull_System_IConvertible_ToChar_m3344298044
qOh:_LinkStack_Push_m2660199875
XH:__ZN4FMOD6Reverb13setPropertiesEPK22FMOD_REVERB_PROPERTIES
gLb:__ZN9DepthPass13PrepareSubsetEjRK10RenderNodeifRK17ShaderReplaceData
N2h:_X509CertificateCollection_Add_m4008705157
L6b:__Z35SetMeshComponentFromArrayFromScriptR4Mesh30InternalScriptingShaderChannel34InternalScriptingVertexChannelTypei17ScriptingArrayPtri
i0e:_ReadOnlyCollection_1_System_Collections_IList_Add_m3806843030_gshared
bTe:_Collection_1_IsFixedSize_m1816795498_gshared
$p:__ZN4core20StringStorageDefaultIcE6assignEPKcj
H4i:__ZN15dense_hashtableINSt3__24pairIK10KeyWrapperIP12Il2CppObjectEN6il2cpp2gc9CachedCCWEEES5_NS7_5utils11PointerHashIS3_EEN14dense_hash_mapIS5_S9_SD_NS5_14EqualsComparerINS0_8equal_toIS4_EEEENS0_9allocatorISA_EEE9SelectKeyESI_SK_E3endEv
$ad:_MouseButtonEventData_ReleasedThisFrame_m482758300
z9h:_SceneManager_Internal_SceneLoaded_m1729738062
qXi:__ZN15dense_hashtableINSt3__24pairIK10KeyWrapperINS1_IP11Il2CppClassjEEES4_EES6_N6il2cpp8metadata14ArrayClassHashEN14dense_hash_mapIS6_S4_SB_NS6_14EqualsComparerINSA_17ArrayClassCompareEEENS0_9allocatorIS8_EEE9SelectKeyESF_SH_E9copy_fromERKSK_j
Pyd:_ReadOnlyArrayListWrapper_set_Item_m2199017141
pUb:__ZN6Camera6SetFarEf
I2h:_DeriveBytes_DeriveIV_m3343375195
_wc:_UNITY_FT_Init_Class_ft_bitmap_glyph_class
TYc:_RNGCryptoServiceProvider_GetBytes_m167497991
Aka:__ZN6prcoreL12RemapGenericI17TexFormatABGR888817TexFormatARGB8888EEvPKNS_9InnerInfoE
dDa:__ZN11GameManager17MainThreadCleanupEv
bai:_SetupCoroutine_InvokeMember_m170868586
RNc:__Z50Register_UnityEngine_UISystemProfilerApi_EndSamplev
lTf:_TypeBuilder_get_Assembly_m492491492
Hb:invoke_vffff
YEc:_UNITY_tt_slot_init
ZGb:__ZZ23InitPlayerLoopCallbacksvEN41PostLateUpdateUpdateResolutionRegistrator7ForwardEv
NXd:_Array_FindLastIndex_TisRuntimeObject_m986818300_gshared
Vzb:__Z25scripting_array_class_get17ScriptingClassPtrj
Jnc:__ZL22Transfer_ManagedObjectI9JSONWriteLb1EEvRK29SerializationCommandArgumentsR31RuntimeSerializationCommandInfo
cF:__ZNK10SampleClip22GetTypeVirtualInternalEv
tba:__ZN9GfxDevice20DestroyRenderSurfaceER12ObjectHandleI17RenderSurface_TagP17RenderSurfaceBaseE
r8:__ZN18SpriteAtlasManagerC2Ev
dua:__ZN9GfxDevice22UpdateComputeResourcesEjPK9TextureIDPK16TextureDimensionPKijPKjjPK15ComputeBufferIDS7_PK20ComputeBufferCounterjSC_S2_S5_S9_SF_
mGa:__ZN12_GLOBAL__N_15qAsinEff
X3d:_Dictionary_2_Do_ICollectionCopyTo_TisKeyValuePair_2_t3749587448_m2536766696_gshared
Gxa:__ZN12TLSAllocatorI14StackAllocatorE13ThreadCleanupEv
RXd:_Array_IndexOf_TisRuntimeObject_m1815604637_gshared
bbj:__ZThn4_N6il2cpp2vm13ComObjectBase16MarshalInterfaceEP13Il2CppIStreamRK10Il2CppGuidPvjS7_j
P0a:__ZN4Mesh27SwizzleVertexColorsIfNeededEb
GCb:__Z27FindActiveTransformWithPathPKc
b6h:_PropertyName_op_Inequality_m2830582941
tge:_SecurityParser_OnEndElement_m2909940377
QFa:__ZNK6Camera7GetNearEv
Ina:__ZN7ApiGLES11UnmapBufferEjN2gl12BufferTargetE
lbj:__ZN6il2cpp5utilsL24Utf32CharToSurrogatePairEjRA2_Ds
eVa:__Z25GetNextAllowedTextureSizeib13TextureFormat
yCb:__ZN20LocalFileSystemWebGL4CopyER13FileEntryDataS1_
pJe:_List_1_CheckIndex_m4231572822_gshared
UT:__ZN19CloudServiceHandler6RetainEv
fjj:__ZN6il2cpp2os9Semaphore4WaitEb
x1c:_StrongName_Equals_m67226644
Ijc:__Z36Event_CUSTOM_Internal_SetNativeEventPv
pGa:__ZN12BaseRenderer20FlattenToRenderQueueER15RenderNodeQueueRK20DeprecatedSourceData
Gve:_UnmanagedMemoryStream_get_Length_m587008850
M9a:__Z34scripting_liveness_calculation_endPv
yhc:__ZNK19RectangleCellLayout13GetCellCenterEv
N8i:__ZN6il2cpp2os6ThreadC2Ev
k2c:_SecurityFrame_InitFromRuntimeFrame_m45195821
Znf:_X509Chain_IsSignedWith_m292245392
Ut:__ZN21AnimationClipPlayable22ProcessAnimationNoClipEPK35AnimationPlayableEvaluationConstantPK32AnimationPlayableEvaluationInputP33AnimationPlayableEvaluationOutput
tUd:_Array_InternalArray__ICollection_Remove_TisDateTime_t693205669_m1275668216_gshared
t_e:_ReadOnlyCollection_1_System_Collections_Generic_ICollectionU3CTU3E_Remove_m3751131234_gshared
jpc:__Z18Transfer_BlittableI8JSONReadLb0E8Vector3fEvRK29SerializationCommandArgumentsR31RuntimeSerializationCommandInfo
dLh:_ChannelServices__cctor_m3534779830
TYi:__ZN6il2cpp2vm6Thread6DetachEP12Il2CppThread
o8h:_RectOffset_Finalize_m816260249
Lbi:_Transform_set_localRotation_m3053695533
YAc:_Render_Single_Pass
bHd:_Convert_ToInt16_m416789348
BCf:_EncoderExceptionFallback_Equals_m762170768
gni:_EqualityComparer_1__cctor_m2666196678_gshared
qsc:__GLOBAL__sub_I_runtime_dynamics_2_cpp
Qfh:_Enumerator_get_CurrentValue_m3147984131_AdjustorThunk
EC:__ZN7mecanim8skeleton30SkeletonBuildReverseIndexArrayEPiPKiPKNS0_8SkeletonES6_
Nhc:__Z19GetGUIBlendMaterialv
WWg:__Z69RuntimeInvoker_Boolean_t3825574718_TextGenerationSettings_t2543476768PFvvEPK10MethodInfoPvPS4_
$6i:__ZN6il2cpp2os10ThreadImpl5SleepEjb
IVe:_Collection_1_InsertItem_m1073626529_gshared
h7h:_Rect_get_center_m2903917731_AdjustorThunk
svj:_glBindSampler__wrapper
VCa:__ZNSt3__26vectorIN20ArchiveStorageHeader12StorageBlockE13stl_allocatorIS2_L18MemLabelIdentifier55ELi16EEE8__appendEj
Ff:_emscripten_set_mouseup_callback
F4d:_BaseInvokableCall_ThrowOnInvalidArg_TisColor_t2020392075_m3638385415_gshared
mWb:__ZNK18ScreenManagerWebGL8GetWidthEv
Tpi:_AudioExtensionManager_GetListenerSpatializerExtensionEditorType_m165088149
$jd:_GridLayoutGroup_set_startAxis_m1635162426
$E:__ZN10SampleClipD2Ev
KNh:_SynchronizationAttribute_EnterContext_m2984912761
FSd:_CultureInfo_construct_internal_locale_from_name_m971766383
d9a:__Z13GetGISettingsv
r_d:_Array_InternalArray__ICollection_Add_TisUIVertex_t1204258818_m3869382594_gshared
ET:__ZN11UnityEngine15CloudWebService20WebRequestRestClientC2Ev
sEc:_cff_cmap_unicode_init
YPd:_Enum_ToObject_m2460371738
Z9d:_PrimalityTests_Test_m1088386156
Pdi:_Vector4_SqrMagnitude_m1060560279
qmj:_readlink
aUi:__ZN15dense_hashtableINSt3__24pairIK10KeyWrapperINS1_IPK9EventInfoP11Il2CppClassEEEjEES9_17ReflectionMapHashIS8_EN14dense_hash_mapIS9_jSD_NS9_14EqualsComparerINS0_8equal_toIS8_EEEENS0_9allocatorISB_EEE9SelectKeyESI_SK_E12resize_deltaEjj
A2d:_Array_Resize_TisVector3_t2243707580_m893658391_gshared
xxh:_InternalEnumerator_1_System_Collections_IEnumerator_get_Current_m4259662004_AdjustorThunk
X5d:_Array_InternalArray__get_Item_TisKeyframe_t1449471340_m1003508933_gshared
nhj:__ZN6il2cpp8metadata14Il2CppTypeHash4HashEPK10Il2CppType
zij:__ZN6il2cpp2os13SemaphoreImplC2Eii
OPg:__Z50RuntimeInvoker_Double_t4078015681_Int64_t909078037PFvvEPK10MethodInfoPvPS4_
Jee:_StrongName_get_PublicKeyToken_m1968460885
M2a:__ZNK6Sprite9GetBoundsE8Vector2fbb
mJa:__ZNK19RenderEventsContext21CleanupCommandBuffersEv
efa:__ZN11ContextGLES6CreateEi
npe:_BinaryReader_Dispose_m4249456877
gGd:_Double_ToString_m1085043609
bzb:__Z19TransferField_ArrayI18StreamedBinaryReadILb0EE27Converter_SimpleNativeClassI17AnimationCurveTplIfEEEvRK23StaticTransferFieldInfoR31RuntimeSerializationCommandInfoRT0_
i9e:_CipherSuite_createEncryptionCipher_m1926075645
J1h:_Plane__ctor_m730644932
jxa:__ZN14StackAllocator16FrameMaintenanceEb
ujd:_Graphic_Raycast_m3582517890
mza:__Z18ReadStringFromFilePN4core17string_with_labelILi1EEERKNS_12basic_stringIcNS_20StringStorageDefaultIcEEEE
b3:__ZNK10GameObject20QueryComponentByTypeEPKN5Unity4TypeE
Rei:_GUISkin_MakeCurrent_m1547433985
PCe:_Enumerator_MoveNext_m1367380970_AdjustorThunk
EWf:_OpCode_GetHashCode_m2974727122
OCd:_Enumerator_Reset_m466659019
j9e:_CipherSuite_createDecryptionCipher_m1118350455
vPh:_PatternCompiler_EmitReference_m1381860071
OOd:_Double_System_IConvertible_ToInt16_m4200640326
pUa:__ZN11TextureData5ResetEv
lcc:__Z53Register_UnityEngine_GameObject_get_activeInHierarchyv
U8:__ZN15dense_hashtableINSt3__24pairIKN4core12basic_stringIcNS2_20StringStorageDefaultIcEEEE13dynamic_arrayI4PPtrI6SpriteELj4EEEES6_20StringHash32FunctionIS6_EN14dense_hash_mapIS6_SC_SF_NS0_8equal_toIS6_EE13stl_allocatorISD_L18MemLabelIdentifier81ELi16EEE9SelectKeyESI_SL_EC2ERKSO_j
n_:__ZL30InitializeCoreScriptingClassesv
TVe:_Collection_1_CheckWritable_m3938993573_gshared
Bg:_glBlitFramebuffer
fae:_BigInteger_GeneratePseudoPrime_m2606361440
xob:__Z35Transfer_Blittable_SingleValueFieldI14SafeBinaryReadhEvRT_R17GeneralMonoObjectRK23StaticTransferFieldInfo
B5b:__ZN12CachedWriter15CompleteWritingEv
Ruf:_RemotingServices_GetRealProxy_m620317996
uLb:__ZN13dynamic_arrayI11CulledLightLj4EE6insertEPS0_PKS0_S4_
tTa:__ZNK12CubemapArray22GetTypeVirtualInternalEv
nwi:_Predicate_1_Invoke_m2060780095_gshared
EIi:__ZN6il2cpp2vm13MetadataCache23GetInterfaceOffsetIndexEi
In:FUNCTION_TABLE_vif
Jn:FUNCTION_TABLE_vid
Kn:FUNCTION_TABLE_vii
X9a:__Z40scripting_liveness_calculation_from_root18ScriptingObjectPtrPv
aQa:__ZN7Texture23VirtualRedirectTransferER24GenerateTypeTreeTransfer
Wuc:_UNITY_FT_Set_Transform
V3i:__ZN6il2cpp8metadata15GenericMetadata20RegisterGenericClassEP18Il2CppGenericClass
LSg:__Z101RuntimeInvoker_OpFlags_t378191910_SByte_t454417549_SByte_t454417549_SByte_t454417549_SByte_t454417549PFvvEPK10MethodInfoPvPS4_
Zuj:_glDeleteFramebuffers__wrapper
Tkd:_Image_get_overrideSprite_m706080347
J4e:_BigInteger_ModInverse_m1881894572
OLi:__ZN6il2cpp2vm7Runtime17GetDelegateInvokeEP11Il2CppClass
A2b:__ZZN12MeshRenderer15InitializeClassEvEN29FunctorImpl_134kDidDeleteMesh4CallEPviR11MessageData
vWa:__ZN28EnlightenRendererInformation8TransferI14SafeBinaryReadEEvRT_
aSg:__Z88RuntimeInvoker_RuntimeObject_RuntimeObject_Int32_t2071877448_RuntimeObject_RuntimeObjectPFvvEPK10MethodInfoPvPS4_
J8f:__ZL69DefaultDependencyAttribute_t3858269114_CustomAttributesCacheGeneratorP21CustomAttributesCache
iCa:__ZNK15Lz4Decompressor16DecompressMemoryEPKvPjPvS2_
X0e:_ReadOnlyCollection_1_System_Collections_IList_get_Item_m887129009_gshared
PRa:__Z35UnityPropertySheet_MakeSortedColorsRKNSt3__23mapIN9ShaderLab16FastPropertyNameE10ColorRGBAfNS_4lessIS2_EENS_9allocatorINS_4pairIKS2_S3_EEEEEER10vector_mapIS2_S3_S5_NS6_INS7_IS2_S3_EEEEE
tMd:_Decimal_System_IConvertible_ToType_m3828527724_AdjustorThunk
Eyc:_UNITY_tt_face_load_os2
y6e:_HMAC_get_Key_m2528863640
FWe:_Collection_1_IsSynchronized_m1366278230_gshared
Pnb:__Z29Transfer_Blittable_ArrayFieldI14SafeBinaryRead8Vector4fEvRT_R9ArrayInfoRK23StaticTransferFieldInfo
PSd:_Array_get_swapper_TisInt32_t2071877448_m2837069166_gshared
D9g:_Selectable_Navigate_m915280351
OLh:_ConfigHandler_CheckPath_m2296459741
tad:_PointerEventData_IsScrolling_m1971908975
yvi:_Keyboard_WarnIfTerminalNotConneced_m4209930749
QGb:__ZZ23InitPlayerLoopCallbacksvEN51PostLateUpdateUpdateCustomRenderTexturesRegistrator7ForwardEv
FMd:_Decimal_System_IConvertible_ToInt16_m3159038792
qu:__ZN7mecanim9animation12EvaluateClipEPKNS0_4ClipEPKNS0_9ClipInputEPNS0_10ClipMemoryEPNS0_10ClipOutputE
b6a:__ZNSt3__26vectorIN15ResourceManager10DependencyE13stl_allocatorIS2_L18MemLabelIdentifier52ELi16EEEC2INS_11__wrap_iterIPS2_EEEET_SB_RKS5_PNS_9enable_ifIXaasr21__is_forward_iteratorISB_EE5valuesr16is_constructibleIS2_NS_15iterator_traitsISB_E9referenceEEE5valueEvE4typeE
d_f:_MonoMethodInfo_GetReturnType_m2864247130
fTb:__ZN13RenderManager29SetCurrentCameraAndStackStateEP6CameraP25CameraStackRenderingState
Ibi:_Transform_INTERNAL_get_rotation_m1873681960
cFa:__ZNSt3__26__treeINS_12__value_typeIjN4core12basic_stringIcNS2_20StringStorageDefaultIcEEEEEENS_19__map_value_compareIjS7_NS_4lessIjEELb1EEE13stl_allocatorIS7_L18MemLabelIdentifier7ELi16EEE7destroyEPNS_11__tree_nodeIS7_PvEE
FYi:__ZN15dense_hashtableINSt3__24pairIK10KeyWrapperINS1_IP11Il2CppClassjEEES4_EES6_N6il2cpp8metadata14ArrayClassHashEN14dense_hash_mapIS6_S4_SB_NS6_14EqualsComparerINSA_17ArrayClassCompareEEENS0_9allocatorIS8_EEE9SelectKeyESF_SH_E12resize_deltaEjj
Qh:_JS_WebRequest_Release
Aqe:_DirectoryNotFoundException__ctor_m2242202556
TR:__ZN11UnityEngine15CloudWebService14DataErrorEventD0Ev
_$i:__ZN6il2cpp6icalls8mscorlib6System4Type20internal_from_handleEi
H5c:_String_CreateString_m2448464375
Epf:_X509SubjectKeyIdentifierExtension__ctor_m2959112706
Rfh:_Enumerator_Reset_m1147555085_AdjustorThunk
cYf:_FieldInfo_get_IsNotSerialized_m2322769148
R3i:__ZN6il2cpp8metadata15GenericMetadata7InflateEPK19Il2CppGenericMethodPK20Il2CppGenericContext
SVa:__ZN19ShaderPropertySheet16SetArrayPropertyEN9ShaderLab16FastPropertyNameENS_12PropertyTypeEPKvj
YZf:_MonoGenericCMethod_get_ReflectedType_m2689239043
GWe:_Collection_1_IsFixedSize_m499196375_gshared
jfd:_ColorTween_set_startColor_m3546206870_AdjustorThunk
XIc:__ZN2UI11CanvasGroup23VirtualRedirectTransferER19StreamedBinaryWriteILb0EE
EAh:_InternalEnumerator_1_get_Current_m4083613828_gshared
RNi:__ZN6il2cpp2os4File11GetStdErrorEv
Oxi:_TextGenerator_INTERNAL_CALL_Populate_Internal_cpp_m106350432
fjc:__ZN8GUIState8EndOnGUIEv
iFf:_UnicodeEncoding_GetString_m542738941
dFc:_UNITY_TT_Get_VMetrics
$pe:_Path_InsecureGetFullPath_m2635272425
aKd:_DateTime_System_IConvertible_ToUInt32_m1363211018
v6h:_Quaternion_ToString_m1042358501
zVd:_SetPropertyUtility_SetStruct_TisSingle_t2076509932_m3849235084_gshared
Zha:__ZN7Texture21GetMasterTextureLimitEv
XUb:__Z12CanAddScriptR10GameObject17ScriptingClassPtrPS1_S2_
$Wi:__ZN6il2cpp2vm10Reflection12HasAttributeEP12Il2CppObjectP11Il2CppClass
O$c:_X509Certificate_GetExpirationDateString_m2351894475
jZ:__ZN9ShaderLabL25StaticInitializeShaderLabEPv
U:Math_max
AMi:_il2cpp_class_get_methods
cqe:_Path_CanonicalizePath_m383914732
EHh:_Enumerator_System_Collections_IEnumerator_get_Current_m1631145297_gshared
Dqb:__Z18Transfer_BlittableI24GenerateTypeTreeTransferLb0EN4math12int2_storageEEvRK29SerializationCommandArgumentsR31RuntimeSerializationCommandInfo
Txd:_ArrayList_Synchronized_m2395071980
T8i:__ZN6il2cpp2os6Thread16GetCurrentThreadEv
_3b:__ZN10GameObject13ComponentPair15SetComponentPtrEPN5Unity9ComponentE
Ave:_UnexceptionalStreamWriter_Write_m3206913035
s_b:__Z13RegisterClassI10MeshFilterEvv
kFa:__ZN10TagManager8TransferI19StreamedBinaryWriteILb0EEEEvRT_
n9a:__ZN11PreloadData23VirtualRedirectTransferER18StreamedBinaryReadILb0EE
Ez:__Z17dynamic_pptr_castIP10MonoScript6ObjectET_RK4PPtrIT0_E
Oaj:__ZN6il2cpp6icalls8mscorlib6System10ReflectionL40il2cpp_class_get_generic_type_definitionEP11Il2CppClass
fVc:_DESTransform_ProcessBlock_m2826669227
Qke:_Int16_CompareTo_m3493496879
JZa:__ZN6Sprite17MainThreadCleanupEv
FK:__ZN10AudioMixer14UpdateMuteSoloEv
oEa:__ZN9Transform35SetLocalPositionWithoutNotificationERKN4math7_float3Ey
a7g:_MaskableGraphic_UnityEngine_UI_IClippable_get_gameObject_m954171032
Qi:_JS_Eval_ClearTimeout
Mga:__ZN7ApiGLES16SetPatchVerticesEi
Yse:_MonoIOStat_t1621921065_marshal_pinvoke
EBa:__ZN10MemoryFileC2E18MemLabelIdentifierP14MemoryFileData14FilePermission
Ovf:_TrackingServices_NotifyUnmarshaledObject_m1794048369
EBi:__ZN6il2cpp2vm5Class20FromGenericParameterEPK22Il2CppGenericParameter
rU:__ZN19CloudServiceHandler11FlushEventsEv
c7:__ZN15GlobalCallbacksC2Ev
c1d:_Array_InternalArray__set_Item_TisLabelFixup_t4090909514_m565370771_gshared
mej:_GC_print_static_roots
vwc:_UNITY_FT_New_Memory_Face
nuc:__ZN20TextRenderingPrivate21TextMeshGeneratorImpl5FlushEv
m1c:__Z15CastclassSealedP12Il2CppObjectP11Il2CppClass
PTb:__ZN16ReflectionProbes40UpdateRealtimeReflectionProbesTimeslicedEv
q6a:__ZNK30RuntimeInitializeOnLoadManager22GetTypeVirtualInternalEv
kGi:__ZN15dense_hashtableINSt3__24pairIK10KeyWrapperIN6il2cpp5utils13dynamic_arrayIPK10Il2CppTypeLj4EEEEPFvvEEESA_NS3_8metadata19Il2CppSignatureHashEN14dense_hash_mapISA_SD_SG_NSA_14EqualsComparerINSF_22Il2CppSignatureCompareEEENS0_9allocatorISE_EEE9SelectKeyESK_SM_E12resize_deltaEjj
I1b:__ZN16ReflectionProbes15InitializeClassEv
Bgj:__ZN6il2cpp5utils5MatchENSt3__212basic_stringIcNS1_11char_traitsIcEENS1_9allocatorIcEEEEjRKS7_j
sxc:_UNITY_FT_Destroy_Class_psnames_module_class
ZOh:_MRUList_Evict_m2430323183
X_e:_ReadOnlyCollection_1_System_Collections_Generic_ICollectionU3CTU3E_Remove_m1060547576_gshared
oWg:__Z68RuntimeInvoker_Boolean_t3825574718_Rect_t3681755626_SByte_t454417549PFvvEPK10MethodInfoPvPS4_
A5d:_Array_InternalArray__get_Item_TisRuntimeObject_m371871810_gshared
Kz:__ZN8Animator13BatchedFKPassERK13dynamic_arrayIP14PlayableOutputLj4EE
ref:_RecordProtocol_ProcessChangeCipherSpec_m3233959862
t3d:_Array_Sort_TisVector4_t2243707581_m474199742_gshared
S3:__ZN13RuntimeStaticINSt3__23mapIN4core12basic_stringIcNS2_20StringStorageDefaultIcEEEES6_NS0_4lessIS6_EE13stl_allocatorINS0_4pairIKS6_S6_EEL18MemLabelIdentifier13ELi16EEEELb0EE13StaticDestroyEPv
ive:_TextWriter_Write_m576684782
Oj:_glIsVertexArray
SBa:__ZN25SingleBlockMemoryFileDataC2E18MemLabelIdentifierPvjb
ea:invoke_fff
beh:_Text_get_fontSize_m3105730761
gsj:b14
Idf:_TlsServerHello_Update_m1740270635
fIc:__ZN2UI6Canvas17MainThreadCleanupEv
ika:__ZN6prcoreL12RemapGenericI17TexFormatARGB155517TexFormatRGBA8888EEvPKNS_9InnerInfoE
Jah:_ScrollRect_Rebuild_m3423824761
aMe:_List_1_Find_m3862454845_gshared
OOh:_MatchCollection_get_Item_m2609281578
gsa:__ZN7ApiGLES13CreateProgramEv
RKa:__ZN11HaloManager7AddHaloEv
cGf:_UTF8Encoding__ctor_m100325490
mia:__ZN4crnd12crn_unpackerD2Ev
Gdh:_StencilMaterial_ClearAll_m1372779118
_j:_emscripten_glTexImage2D
ruf:_ObjRefSurrogate_SetObjectData_m1873902916
QEc:_tt_driver_class_pic_init
c_:__ZN18ScriptingArguments9AddStringEPKc
Aej:_setup_header
Zoj:runPostSets
qja:__ZL23stbir__resize_arbitraryPvPKviiiS_iiiffffPfiij14stbir_datatype12stbir_filterS4_10stbir_edgeS5_16stbir_colorspace
UHe:_List_1_System_Collections_IList_Insert_m848656350_gshared
Xqb:__Z18Transfer_BlittableI24GenerateTypeTreeTransferLb1E8Vector4fEvRK29SerializationCommandArgumentsR31RuntimeSerializationCommandInfo
vme:_Int16_ToString_m3971652088_AdjustorThunk
jk:_pthread_detach
lJi:__ZN6il2cpp2vm19SocketPollingThread7RunLoopEv
ypf:_X509ExtensionEnumerator_Reset_m3200687545
Ltf:_MethodDictionary_AllocInternalProperties_m3261295876
v4b:__ZN15DirectorManager20ScheduleGraphDestroyERK14HPlayableGraph
Pzb:__ZNSt3__213__stable_sortIRN10vector_mapI17ScriptingClassPtrPKN5Unity4TypeENS_4lessIS2_EENS_9allocatorINS_4pairIS2_S6_EEEEE13value_compareENS_11__wrap_iterIPSB_EEEEvT0_SJ_T_NS_15iterator_traitsISJ_E15difference_typeEPNSM_10value_typeEi
Cdb:__ZN9ShaderLab25SerializedTextureProperty8TransferI24GenerateTypeTreeTransferEEvRT_
o3e:_Comparison_1_Invoke_m2645957248_gshared
Jzj:_emscripten_glIsShader__wrapper
TUi:__ZN6il2cpp2gc19AppendOnlyGCHashMapINSt3__24pairIPK14Il2CppAssemblyP11Il2CppClassEEP24Il2CppReflectionAssembly17ReflectionMapHashIS9_ENS2_8equal_toIS9_EEEC2Ev
pzf:_DelegatePInvokeWrapper_CallbackHandler_t362827733
hqc:__Z18Transfer_BlittableI8JSONReadLb1EyEvRK29SerializationCommandArgumentsR31RuntimeSerializationCommandInfo
Gk:_emscripten_glMatrixMode
cs:__ZN8Animator23VirtualRedirectTransferER18StreamedBinaryReadILb0EE
mre:_NotSupportedException__ctor_m836173213
buf:_MethodReturnDictionary__ctor_m756139344
nR:__ZN11UnityEngine15CloudWebService14DataDispatcher16PrepareDataBlockERNS0_16SessionContainerE
Jsa:__ZN18GfxFramebufferGLES5ClearE13GfxClearFlagsRK10ColorRGBAffib
fQg:__Z52RuntimeInvoker_Single_t2076509932_Double_t4078015681PFvvEPK10MethodInfoPvPS4_
syb:__ZL26Transfer_SimpleNativeClassI18StreamedBinaryReadILb0EE10RectOffsetLb0EEvRK29SerializationCommandArgumentsR31RuntimeSerializationCommandInfo
pxc:_UNITY_ft_destroy_default_module_classes
wFe:_List_1_CheckMatch_m1772343151_gshared
RKb:__ZL12DepthPassJobPN21GfxDeviceAsyncCommand10ArgScratchEPKNS_3ArgE
bcb:__ZNSt3__26vectorIN9ShaderLab20SerializedSubProgram16TextureParameterENS_9allocatorIS3_EEE6assignINS_11__wrap_iterIPS3_EEEENS_9enable_ifIXaasr21__is_forward_iteratorIT_EE5valuesr16is_constructibleIS3_NS_15iterator_traitsISC_E9referenceEEE5valueEvE4typeESC_SC_
Elc:__ZN5Unity9rapidjson6WriterI16TempBufferWriterNS0_4UTF8IcEES4_13JSONAllocatorE11WriteDoubleEd
Moe:_IntPtr_Equals_m1214967011_AdjustorThunk
UKe:_List_1_Add_m3591975577_gshared
Qna:__ZN14GfxDeviceStats16CopyAllDrawStatsERKS_
T_b:__Z13RegisterClassI19LowerResBlitTextureEvv
Jm:FUNCTION_TABLE_iiiiiiiiiiii
kfi:_GUIUtility_Internal_GetPixelsPerPoint_m1075452981
aKa:__ZN16GraphicsSettingsD0Ev
Rwj:_pthread_mutex_init__wrapper
n:cttz_i8
Zwc:_UNITY_FT_GlyphLoader_Add
Lwh:_InternalEnumerator_1_System_Collections_IEnumerator_get_Current_m1004764375_AdjustorThunk
sYh:_Display_FireDisplaysUpdated_m2197288612
OFd:_DateTimeFormatInfo_get_FullDateTimePattern_m2607507656
gef:_HttpsClientStream_RaiseServerCertificateValidation_m3356770426
v8h:_RectTransform_INTERNAL_set_anchorMin_m3893342226
L3d:_Array_swap_TisUIVertex_t1204258818_TisUIVertex_t1204258818_m1163375424_gshared
Dl:_emscripten_glViewport
Qaj:__ZN6il2cpp6icalls8mscorlib6System15MonoCustomAttrs17IsDefinedInternalEP12Il2CppObjectP20Il2CppReflectionType
NMa:__ZN4Mesh21UnswizzleVertexColorsEb
cLd:_DateTime_ToString_m2276663647_AdjustorThunk
NEc:_cff_parse_font_bbox
K4a:__ZN14PlayerSettings23VirtualRedirectTransferER18StreamedBinaryReadILb0EE
SSd:_Array_get_swapper_TisCustomAttributeTypedArgument_t1498197914_m2780757375_gshared
Ejj:__ZN6il2cpp2os5Event5ResetEv
sYe:_ReadOnlyCollection_1_System_Collections_IList_Insert_m1130110335_gshared
$li:_AesManaged__ctor_m2322442838
D3i:__ZN6il2cpp8metadata15GenericMetadata17InflateParametersEPK13ParameterInfohPK20Il2CppGenericContextb
$ne:_Int64_System_IConvertible_ToUInt32_m850395426_AdjustorThunk
_Ha:__ZN6Camera13AwakeFromLoadE17AwakeFromLoadMode
QWc:_HMACSHA512__ctor_m2390736870
Xx:__ZNK17AnimationPlayable27GetNextCompatibleDescendantEi
XTf:_TypeBuilder_GetInterfaces_m1818658502
Qle:_NumberFormatter_AppendIntegerString_m868842252
lDb:__Z25SetNeedToPerformRenderingb
r_f:_MonoMethod_GetPseudoCustomAttributes_m466965107
wDa:__ZN10GameObjectD2Ev
eLb:__ZN14qsort_internal30FindAndMovePivotToLastPositionIP15RODataDepthPassi17ROSorterDepthPassEEvT_S4_T0_T1_
Fgh:_Enumerator_System_Collections_IDictionaryEnumerator_get_Value_m3005608231_gshared
r6g:_MaskUtilities_NotifyStencilStateChanged_m1527407683
WSb:__ZN12CullingGroup10SendEventsEPK17CullingGroupEventj
Hbe:_DSAManaged_GenerateKeyPair_m2711647034
pXa:__ZThn32_NK8Renderer8GetLayerEv
XZd:_Array_InternalArray__ICollection_Add_TisResourceCacheItem_t333236149_m1151081240_gshared
$wf:_SoapServices_GetXmlTypeForInteropType_m3821579913
Ixj:_emscripten_glTexParameterfv__wrapper
flb:__Z18Transfer_BlittableI14SafeBinaryReadLb1E9BoundsIntEvRK29SerializationCommandArgumentsR31RuntimeSerializationCommandInfo
rNi:_il2cpp_method_get_param_count
R7b:__ZN10systeminfo19ISOToSystemLanguageERN4core12basic_stringIcNS0_20StringStorageDefaultIcEEEE
MTi:__ZNK15dense_hashtableINSt3__24pairIK10KeyWrapperINS1_IPK12PropertyInfoP11Il2CppClassEEEjEES9_17ReflectionMapHashIS8_EN14dense_hash_mapIS9_jSD_NS9_14EqualsComparerINS0_8equal_toIS8_EEEENS0_9allocatorISB_EEE9SelectKeyESI_SK_E3endEv
mBc:_ps_dimension_done
Pcd:_LayoutRebuilder_MarkLayoutForRebuild_m640589351
VHc:__Z46Register_UnityEngine_TextGenerator_Dispose_cppv
vad:_PointerEventData_get_pressEventCamera_m724559964
E0c:_String_IndexOfUnchecked_m3356721554
fWa:__ZN16LightmapSettings8TransferI14SafeBinaryReadEEvRT_
E9:__ZN17BufferManagerGLES13ReleaseBufferEP14DataBufferGLES
Lui:_Display__ctor_m3803500957
eqc:__Z18Transfer_BlittableI8JSONReadLb1EjEvRK29SerializationCommandArgumentsR31RuntimeSerializationCommandInfo
C2h:_PKCS12_Decrypt_m1557069392
teh:_VertexHelper_AddUIVertexQuad_m280792808
glf:_WebHeaderCollection_ToString_m1246460752
jyh:_InternalEnumerator_1_System_Collections_IEnumerator_get_Current_m2842514953_AdjustorThunk
Wo:stackSave
HQc:__ZN5Unity9rapidjson15GenericDocumentINS0_4UTF8IcEE13JSONAllocatorNS0_12CrtAllocatorEE6StringEPKcjb
FBc:_ps_dimension_end
cec:__Z41Register_UnityEngine_Mesh_Internal_Createv
B3i:__ZNK15dense_hashtableI10KeyWrapperIP18Il2CppGenericClassES3_N6il2cpp8metadata22Il2CppGenericClassHashEN14dense_hash_setIS3_S6_NS3_14EqualsComparerINS5_25Il2CppGenericClassCompareEEENSt3__29allocatorIS3_EEE8IdentityESA_SD_E12test_deletedERK30dense_hashtable_const_iteratorIS3_S3_S6_SF_SA_SD_E
Wkf:_ServicePointManager_get_SecurityProtocol_m1445189298
eXc:_MACTripleDES_Initialize_m1318099802
k7e:_MD5SHA1_VerifySignature_m507888141
Jud:_Byte_System_IConvertible_ToChar_m4188836679
qme:_NumberFormatter_InitDecHexDigits_m2036076025
ihh:_Enumerator_get_CurrentKey_m3839846791_AdjustorThunk
wUb:__ZN6Camera9SetAspectEf
va:invoke_viiffiii
Vzg:__ZL79TouchInputModule_t2561058385_CustomAttributesCacheGenerator_m_ForceModuleActiveP21CustomAttributesCache
Zyj:_emscripten_glBindVertexArray__wrapper
ioh:_Dictionary_2_InitArrays_m435313205_gshared
wEa:__ZN9Transform37InitializeTransformHierarchyRecursiveER18TransformHierarchyRii
h0b:__Z34DefaultPrepareDispatchBoundsUpdateR13RendererScene18MemLabelIdentifier
Gid:_Graphic_get_useLegacyMeshGeneration_m1366444625
Asa:__ZN26SinglePassStereoSupportExt23SetupStereoMatrixParamsE21MonoOrStereoscopicEye24BuiltinShaderMatrixParamRK10Matrix4x4f
Vkf:_ServicePointManager_get_CheckCertificateRevocationList_m4009410230
SBg:__ZL65InputField_t1631627530_CustomAttributesCacheGenerator_m_InputTypeP21CustomAttributesCache
W9d:_ModulusRing_Pow_m1137250399
oP:__Z46AudioListener_CUSTOM_GetNumExtensionPropertiesP12Il2CppObject
SLa:__ZN17MeshRenderingData4InitEP4MeshS1_iP15SharedGfxBufferS3_
Tnj:__ZNSt3__212basic_stringIcNS_11char_traitsIcEENS_9allocatorIcEEEpLEPKc
oBd:_Hashtable__cctor_m2952659675
pob:__ZN15SerializeTraitsI13dynamic_arrayIN4math12int3_storageELj4EEE19ResizeSTLStyleArrayERS3_i
V0c:_Evidence_get_HostEvidenceList_m2095478124
ygc:__Z57Register_UnityEngine_Transform_INTERNAL_set_localPositionv
paf:_Context_Clear_m4000337070
zda:__ZN13GfxDeviceGLES26SetRandomWriteTargetBufferEi15ComputeBufferID
Yrf:_IntervalCollection_Normalize_m538796191
DGb:__ZZ23InitPlayerLoopCallbacksvEN49EarlyUpdateResetFrameStatsAfterPresentRegistrator7ForwardEv
ODd:_Console_SetEncodings_m342145566
xid:_FontUpdateTracker_UntrackText_m3827316510
Jci:_Vector2_get_sqrMagnitude_m593717298_AdjustorThunk
O5d:_Array_InternalArray__get_Item_TisSingle_t2076509932_m1495809753_gshared
sxi:_Font_get_fontSize_m3125470578
A7b:__ZNK11ICallString6ToUTF8Ev
$Rh:_CaptureAssertion_get_Alternate_m2729005740
Fcj:_GC_number_stack_black_listed
fLb:__ZNSt3__211__sift_downIR17ROSorterDepthPassP15RODataDepthPassEEvT0_S5_T_NS_15iterator_traitsIS5_E15difference_typeES5_
LQf:_Default_SelectMethod_m3081239996
bRa:__ZN18UnityPropertySheet11UnityTexEnvC2Ev
cA:__ZN8Animator17ApplyOnAnimatorIKEiRNS_11AnimatorJobE
C2:__ZN12FileAccessor4ReadEyyPvPy
jQa:__ZN13dynamic_arrayI16ShaderKeywordSetLj4EE6insertEPS0_PKS0_S4_
Mtf:_MethodDictionary_IsOverridenKey_m3922224650
BCd:_SyncHashtable_Contains_m3042906549
KNe:_List_1_System_Collections_IList_set_Item_m4016273526_gshared
Dpf:_X509KeyUsageExtension_CopyFrom_m931530012
YTb:__ZN13RenderTexture9SetHeightEi
Dt:__ZN7mecanim9animation17ClearMotionOutputEPNS0_18AnimationNodeStateE
f6g:_LayoutUtility_U3CGetMinHeightU3Em__4_m1769295917
Wgf:_SslStreamBase_Read_m1036897444
f8g:_RectMask2D_PerformClipping_m1232012832
P_i:__ZN6il2cpp6icalls8mscorlib6System2IO6MonoIO17GetFileAttributesEP12Il2CppStringPi
Yhh:_Transform_1_Invoke_m4020530914_gshared
Vzc:_tt_cmap8_char_index
C_:__Z24scripting_class_get_name17ScriptingClassPtr
k4:__ZN13RuntimeStaticI15GUIEventManagerLb0EE13StaticDestroyEPv
b9i:__ZN6il2cpp2os6Thread15CurrentThreadIdEv
Ymb:__Z29Transfer_Blittable_ArrayFieldI14SafeBinaryReadjEvRT_R9ArrayInfoRK23StaticTransferFieldInfo
ce:_emscripten_set_keydown_callback
ZBd:_Enumerator_get_Value_m3684748062
lFa:__ZN19StreamedBinaryWriteILb0EE21TransferSTLStyleArrayINSt3__26vectorI17SortingLayerEntryNS2_9allocatorIS4_EEEEEEvRT_17TransferMetaFlags
oMf:_UInt32_Parse_m3371984903
K2:__ZN12FileAccessorC2Ev
RPh:_PatternLinkStack_GetCurrent_m2994645935
LLi:__ZN6il2cpp2vm7Runtime12GetConfigDirEv
Otf:_MethodDictionary_set_Item_m3475146889
Jeh:_Toggle_PlayEffect_m3950629415
QXd:_Array_IndexOf_TisRuntimeObject_m214763038_gshared
zBb:__Z39WriteQueueForTransferSignatureIntoCacheRK31TransferFunctionScriptingTraitsRK24TransferRequestSignature17ScriptingClassPtrR23CachedSerializationDataRb
l8a:__ZN13RenderManager18UpdateAllRenderersEv
R0h:_Mesh_Clear_m239607636
cOc:__ZN22BaseUnityConnectClient30OnEnteringStatePausedOrStoppedEv
vTi:__ZN15dense_hashtableINSt3__24pairIK10KeyWrapperINS1_IPK12PropertyInfoP11Il2CppClassEEEjEES9_17ReflectionMapHashIS8_EN14dense_hash_mapIS9_jSD_NS9_14EqualsComparerINS0_8equal_toIS8_EEEENS0_9allocatorISB_EEE9SelectKeyESI_SK_E12resize_deltaEjj
Qt:__ZN7mecanim5human12HumanPoseAddERNS0_9HumanPoseERKS1_S4_
yUe:_Collection_1_IsFixedSize_m218241296_gshared
aEa:__Z24MergeTransformComponentsR9TransformS0_b
gqi:_DelegatePInvokeWrapper_AudioConfigurationChangeHandler_t3743753033
Wse:_MonoIO_get_PathSeparator_m2635828107
yEh:_InternalEnumerator_1_get_Current_m889125315_gshared
dye:_MonoType_get_Name_m865859211
eSd:_CultureInfo__cctor_m2290268677
p4c:_String_Trim_m3982520224
mwf:_RemotingConfiguration__cctor_m2129988840
PSe:_Collection_1_Insert_m44548038_gshared
Saj:__ZN6il2cpp2vm13ComObjectBase19GetRuntimeClassNameEPP15Il2CppHString__
Mj:_emscripten_glVertexAttribPointer
PLa:__ZNK20IntermediateRenderer12GetSceneMaskEv
m7a:__ZN14PreloadManager26UpdatePreloadingSingleStepENS_21UpdatePreloadingFlagsEi
A_c:_SHA512Managed_Initialize_m891287980
n1c:_SecurityException__ctor_m1484114982
L4h:_X509Crl_GetHashName_m183504634
wrd:_Array_GetValue_m1507415734
Iec:__Z57Register_UnityEngine_RectTransform_INTERNAL_set_anchorMinv
Aie:_Object_MemberwiseClone_m2655589444
Rja:__ZN6prcoreL25inner_stretch_i8_bilinearEPKNS_9InnerInfoE
E9a:__ZL30RegisterFilteredObjectCallbackPP12Il2CppObjectiPv
z_f:_MonoMethod_get_IsGenericMethod_m4276550811
vih:_Transform_1_BeginInvoke_m3826027984_gshared
JR:__ZN11UnityEngine15CloudWebService16SessionContainer24GetSessionHeaderJsonDataERKN4core12basic_stringIcNS2_20StringStorageDefaultIcEEEERNS2_13StringBuilderE
tGd:_Decimal_op_Implicit_m2149927308
Z3:__ZN13RuntimeStaticI21AssetReferenceStorageLb0EE13StaticDestroyEPv
x6i:__ZN6il2cpp6icalls8mscorlib6System9AppDomain22InternalGetProcessGuidEP12Il2CppString
zCc:_cf2_builder_moveTo
dce:_KeyPairPersistence_get_UseMachineKeyStore_m560802076
MHh:_Enumerator_System_Collections_IDictionaryEnumerator_get_Entry_m345330700_AdjustorThunk
fAa:__ZNK17FileSystemHandler10IsReadOnlyERK13FileEntryData
srb:__Z18Transfer_BlittableI24GenerateTypeTreeTransferLb1EjEvRK29SerializationCommandArgumentsR31RuntimeSerializationCommandInfo
J6e:_MD2Managed_Padding_m410163267
ILa:__ZN11ColorRGBA328TransferI14SafeBinaryReadEEvRT_
Hf:_emscripten_glClearDepth
f3b:__ZNK8GUILayer22GetTypeVirtualInternalEv
CYa:__ZN14SafeBinaryRead21TransferSTLStyleArrayINSt3__26vectorIN15QualitySettings14QualitySettingENS1_9allocatorIS4_EEEEEEvRT_17TransferMetaFlags
Oqe:_File_OpenText_m4058508963
j4a:__ZNSt3__26vectorINS_4pairIPKN5Unity4TypeE7Hash128EENS_9allocatorIS7_EEE8__appendEj
lxf:_WellKnownClientTypeEntry__ctor_m670594074
LJd:_DateTime_System_IConvertible_ToSingle_m3927769066_AdjustorThunk
$Dc:_cff_font_load
oef:_RecordProtocol_SendRecord_m2977889250
t8b:__Z13IsPathCreatedRKN4core12basic_stringIcNS_20StringStorageDefaultIcEEEE
wja:__ZL22stbir__encode_scanlineP11stbir__infoiPvPfiii
aOg:__Z136RuntimeInvoker_Void_t1841601450_Byte_t3683104436_RuntimeObject_Int64U26_t763825331_ObjectU26_t597476745_SerializationInfoU26_t4051840202PFvvEPK10MethodInfoPvPS4_
ctc:__ZN20QuadTreeNodeRenderer13StaticDestroyEPv
FS:__ZN11UnityEngine15CloudWebService20WebRequestRestClient5AbortEv
rhi:_InvokableCall_1_Invoke_m2228071798_gshared
X$b:__ZN9Transform12CleanupClassEv
HIg:__Z50RuntimeInvoker_Void_t1841601450_Double_t4078015681PFvvEPK10MethodInfoPvPS4_
bgi:_GUILayoutGroup_CalcWidth_m877887811
naf:_ClientContext_set_ClientHelloProtocol_m2246603449
Jai:_Texture_Internal_GetHeight_m3235768354
Wga:__ZNSt3__26vectorIN9GfxDevice14SubPassActionsENS_9allocatorIS2_EEE26__swap_out_circular_bufferERNS_14__split_bufferIS2_RS4_EE
Sod:_U3CMouseDragOutsideRectU3Ec__Iterator1_MoveNext_m2845491958
Scb:__ZNSt3__26vectorIN9ShaderLab19SerializedSubShaderENS_9allocatorIS2_EEE26__swap_out_circular_bufferERNS_14__split_bufferIS2_RS4_EE
Jz:__ZN11UnityEngine9Animation33SetGenericTransformPropertyValuesERKNS0_30AnimatorGenericBindingConstantERKN7mecanim10ValueArrayEP9Transformy
jKg:__Z116RuntimeInvoker_RuntimeObject_RuntimeObject_Int32_t2071877448_RuntimeObject_RuntimeObject_RuntimeObject_RuntimeObjectPFvvEPK10MethodInfoPvPS4_
Gbd:_StandaloneInputModule_IsModuleSupported_m623598506
SYi:__ZN6il2cpp2vmL24thread_cleanup_on_cancelEPv
fBf:_SByte_ToString_m4105923225_AdjustorThunk
iSd:_CultureInfo_ConstructCurrentUICulture_m3363349599
aOf:_UInt64_CompareTo_m2422461804_AdjustorThunk
sEg:__ZL75CanvasScaler_t2574720772_CustomAttributesCacheGenerator_m_FallbackScreenDPIP21CustomAttributesCache
Cxe:_MonoType_GetEvent_m4160342003
R7g:_RawImage_set_texture_m2400157626
uoi:_PrimeHelper_ToPrime_m1606935350_gshared
dMa:__Z30ProcessDynamicBatchGeometryJobP25DynamicVBOGeometryJobDataj
P$g:__Z59RuntimeInvoker_Boolean_t3825574718_RaycastHit2D_t4063908774PFvvEPK10MethodInfoPvPS4_
BLb:__ZNSt3__27__sort4IRNS_6__lessI11CulledLightS2_EEPS2_EEjT0_S6_S6_S6_T_
LOi:__ZN6il2cpp2vm14TypeNameParser26ParseArrayModifierOptionalEv
q7d:_MSCompatUnicodeTable_Level3_m260824928
T$:__Z26scripting_object_get_class18ScriptingObjectPtr
S6a:__ZNSt3__26vectorIN4core12basic_stringIcNS1_20StringStorageDefaultIcEEEE13stl_allocatorIS5_L18MemLabelIdentifier13ELi16EEE7reserveEj
Hzi:_RectTransformUtility_GetTransposed_m1233793627
v$b:__ZNK28MonoBehaviourPropertyBinding15GenerateBindingERKN4core12basic_stringIcNS0_20StringStorageDefaultIcEEEEbRN11UnityEngine9Animation14GenericBindingE
ile:_Int32_FindExponent_m3187554672
pce:_KeyPairPersistence_Load_m1355205585
sne:_Int32_ToString_m2960866144_AdjustorThunk
zwi:_Predicate_1_Invoke_m3539717340_gshared
i3c:_Single_CompareTo_m2081476257_AdjustorThunk
Fpi:_AudioExtensionManager_AddSpatializerExtension_m1881494443
W7i:__ZN6il2cpp6icalls8mscorlib6System11Environment15internalGetHomeEv
urj:dynCall_iiiiiiffiiiiiiiiiffffiiii
f3h:_PKCS12_get_Keys_m288413492
Fua:__ZNK5Unity9Component7GetNameEv
_yf:__ZN21InterfaceFuncInvoker4IP12Il2CppObjectS1_P28SerializationInfo_t22898743028StreamingContext_t1417235061S1_E6InvokeEjP11Il2CppClassS1_S1_S3_S4_S1_
rli:_ObjectPool_1_Get_m3724675538_gshared
XA:__ZN7mecanim8skeleton26SkeletonPoseComputeGlobalQEPKNS0_8SkeletonEPKNS0_13SkeletonPoseTIN4math4trsXEEEPS7_ii
bRc:__ZN18UnityConnectClient19RegisterVRCallbacksEv
pIe:_List_1_GetEnumerator_m2672519407_gshared
eZb:__ZN10BootConfig4Data3SetEPKcjS2_j
xA:__ZN9BlobWrite8TransferI22OffsetPtrArrayTransferIiEEEvRT_PKc17TransferMetaFlags
pOg:__Z82RuntimeInvoker_Boolean_t3825574718_SByte_t454417549_RuntimeObject_SByte_t454417549PFvvEPK10MethodInfoPvPS4_
a7d:_ContractionComparer_Compare_m314873025
Kne:_Int64_System_IConvertible_ToDouble_m638786774
BJ:__ZN4FMOD6System7releaseEv
f2:__Z18PathToAbsolutePathRKN4core12basic_stringIcNS_20StringStorageDefaultIcEEEE
LAe:_Enumerator_MoveNext_m3078170540_AdjustorThunk
Wfj:__ZN6il2cpp6icalls8mscorlib6System10Reflection16MonoPropertyInfo16GetTypeModifiersEPvb
Tli:_Action_Invoke_m3801112262
TIg:__Z79RuntimeInvoker_Decimal_t724701077_RuntimeObject_Int32_t2071877448_RuntimeObjectPFvvEPK10MethodInfoPvPS4_
_ia:__ZL13BlitImageImplR14ImageReferenceiiRKS_NS_10ColorSpaceENS_8BlitModeEb
x4b:__ZN15DirectorManager17AcquireOutputNodeEv
hIg:__Z64RuntimeInvoker_RuntimeObject_Int16_t4041245914_Int16_t4041245914PFvvEPK10MethodInfoPvPS4_
zra:__ZN16GeometryJobTasks20ScheduleGeometryJobsER9GfxDevicePFvP15GeometryJobDataEPK22GeometryJobInstructionjb
HH:__ZN12AudioManager29ShutdownReinitializeAndReloadEv
m2h:_NetscapeCertTypeExtension_Decode_m2210025005
uxf:_BaseFixupRecord_DoFixup_m1821597450
HBi:__ZN15dense_hashtableINSt3__24pairIK10KeyWrapperIPK22Il2CppGenericParameterEP11Il2CppClassEES6_N6il2cpp5utils11PointerHashIS4_EEN14dense_hash_mapIS6_S9_SE_NS6_14EqualsComparerINS0_8equal_toIS5_EEEENS0_9allocatorISA_EEE9SelectKeyESJ_SL_E6insertERKSA_
Sqe:_FileLoadException__ctor_m1356374414
bii:_InvokableCall_4_Invoke_m1140294390_gshared
rga:__ZN14DataBufferGLES16RecreateWithDataEjPKv
ava:__Z29GetGlobalAllowNameConversionsv
FVb:__ZN8Material8SetColorEN9ShaderLab16FastPropertyNameERK10ColorRGBAf
OYf:_Module_GetCustomAttributes_m3581287913
qL:__ZN11AudioSource23VirtualRedirectTransferER18StreamedBinaryReadILb0EE
a4:__ZN21AssetReferenceStorageC2Ev
G_:__ZL41AssemblyNameMatchesWithOrWithoutExtensionPKcS0_
voa:__ZN14GfxContextGLES43AddRenderSurfaceToDeferredFBOInvalidateListEPK17RenderSurfaceGLES
s_i:__ZN6il2cpp6icalls8mscorlib6System9Threading6Thread15Thread_internalEP12Il2CppThreadP14Il2CppDelegate
bxa:__ZN11NamedObject23VirtualRedirectTransferER14SafeBinaryRead
Lpi:_AudioListener_GetNumExtensionProperties_m2652400521
nwc:__ZNSt3__26vectorIN20TextRenderingPrivate8FontImpl13CharacterInfoE13stl_allocatorIS3_L18MemLabelIdentifier1ELi16EEE6insertENS_11__wrap_iterIPKS3_EERS9_
Xxa:__ZN23PreloadManagerOperation6IsDoneEv
ULi:__ZN6il2cpp2vm7Runtime15InvokeWithThrowEPK10MethodInfoPvPS5_
Wfe:_X509Certificate_get_RawData_m3000055075
m5b:__Z33GetHasChangedDeprecatedSystemMaskv
saj:__ZN6il2cpp5utils11StringUtils11Utf16ToUtf8ERKNSt3__212basic_stringIDsNS2_11char_traitsIDsEENS2_9allocatorIDsEEEE
pgh:_Enumerator_VerifyState_m1165543189_AdjustorThunk
xKd:_DateTime_AddSeconds_m722082155_AdjustorThunk
qzd:_SynchronizedArrayListWrapper_CopyTo_m956887031
L8a:__ZN21LightProbeProxyVolume18HasHardwareSupportEv
dzi:_CanvasRenderer_set_materialCount_m1703953120
AOb:__ZN26LightProbeProxyVolumeCacheC2ER13BatchRendererR15RenderLoopStats
Mja:__ZN6prcoreL31inner_stretch_argb8888_bilinearEPKNS_9InnerInfoE
svb:__Z18Transfer_BlittableI18StreamedBinaryReadILb1EELb1E8BitFieldEvRK29SerializationCommandArgumentsR31RuntimeSerializationCommandInfo
iyc:_UNITY_FT_Outline_Decompose
zcf:_TlsClientCertificate_get_ClientCertificate_m3062440489
L0c:_StrongNamePublicKeyBlob_ToString_m3721281223
Rej:_GC_init_size_map
Bxh:_InternalEnumerator_1_get_Current_m198513457_AdjustorThunk
gJa:__Z20scripting_object_new17ScriptingClassPtr
fje:_TextInfo__ctor_m2782608694
MOe:_Queue_1_System_Collections_ICollection_CopyTo_m772787461_gshared
oje:_TextInfo_ToUpper_m299550697
qoc:__ZN9JSONWrite8TransferI13dynamic_arrayI8BitFieldLj4EEEEvRT_PKc17TransferMetaFlags
Mid:_Graphic_OnRectTransformDimensionsChange_m1610753363
qId:_Convert_ToUInt16_m3265369225
P:Math_exp
hxe:_MonoEnumInfo_get_Cache_m3551569711
yo:FUNCTION_TABLE_iiifi
l6i:__ZN6il2cpp2os5posix13PosixAutoLockD2Ev
cUd:_Array_InternalArray__ICollection_Contains_TisVector3_t2243707580_m3625701788_gshared
Zoa:__ZNSt3__26vectorINS_4pairIyP17VertexDeclarationEENS_9allocatorIS4_EEE6insertENS_11__wrap_iterIPKS4_EERS9_
msc:__GLOBAL__sub_I_modules_physics2d_public_0_cpp
nCc:_cff_get_advances
WAb:__ZN13MonoBehaviour9SetScriptERK4PPtrI10MonoScriptE18ScriptingObjectPtr
UTd:_Array_InternalArray__ICollection_Contains_TisPlayableBinding_t2498078091_m4267109606_gshared
Qxc:_UNITY_FT_Create_Class_sfnt_module_class
eNd:_Decimal_IsZero_m3557909184_AdjustorThunk
Xwd:_Char_ToString_m1401375624
mXc:_MD5CryptoServiceProvider__cctor_m3309191799
HCa:__ZNK10FileSystem16LastErrorMessageEv
sWg:__Z74RuntimeInvoker_Vector2_t2243707579_Vector2_t2243707579_Vector2_t2243707579PFvvEPK10MethodInfoPvPS4_
lCe:_Enumerator_System_Collections_IEnumerator_Reset_m3052395060_gshared
S4e:_Kernel_DwordDivMod_m3728402123
lAb:__ZN13MonoBehaviour13AwakeFromLoadE17AwakeFromLoadMode
zpb:__ZL26Transfer_SimpleNativeClassI17RemapPPtrTransfer8GradientLb1EEvRK29SerializationCommandArgumentsR31RuntimeSerializationCommandInfo
A5b:__ZN12CachedWriter9InitWriteER15CacheWriterBase
r4b:__Z21UnsignedInt64ToStringy
XFf:_UTF7Decoder__ctor_m549434986
$Dh:_InternalEnumerator_1_get_Current_m1025321669_AdjustorThunk
Jgc:__Z66Register_UnityEngine_Transform_INTERNAL_CALL_InverseTransformPointv
x6:__ZZN15DirectorManager15InitializeClassEvEN41FixedUpdateDirectorFixedUpdateRegistrator7ForwardEv
oqf:_Group__ctor_m4103922028
Iyj:_glLinkProgram__wrapper
vhb:__ZN18ScriptingArguments8AddInt64Ex
uka:__ZN6prcoreL12RemapGenericI17TexFormatARGB888815TexFormatBGR888EEvPKNS_9InnerInfoE
aib:__ZN12HandlerChain4LockER13FileEntryData12FileLockMode
sXc:_MD5CryptoServiceProvider_ProcessFinalBlock_m1052610785
Gzd:_BitArray_Set_m2878881714
eSc:__ZN28UnityConnectScriptingClasses23CallSessionStateChangedEixxbP21ScriptingExceptionPtr
Sje:_Guid_CompareTo_m2203922782_AdjustorThunk
Mbh:_Selectable_get_colors_m3501193396
P1i:__ZN6il2cpp6icalls8mscorlib6System13Globalization11CultureInfo35construct_internal_locale_from_nameEP17Il2CppCultureInfoP12Il2CppString
Hrb:__ZL22Transfer_ManagedObjectI24GenerateTypeTreeTransferLb1EEvRK29SerializationCommandArgumentsR31RuntimeSerializationCommandInfo
nNh:_ContextAttribute_Equals_m53324298
Uj:_emscripten_set_main_loop_timing
kWh:_Camera_ScreenToViewportPoint_m3458250415
kPf:_WeakReference_AllocateHandle_m1783929473
mga:__ZN14DataBufferGLES12RecordRenderEv
M2d:_Array_Sort_TisRuntimeObject_m3674422195_gshared
kVb:__ZN14ImageReference10FlipImageYEv
jjc:__Z14GetDefaultSkini
VE:__ZN4FMOD3DSP9setBypassEb
IYb:__Z19NormalizeWheelInputf
kUd:_Array_InternalArray__ICollection_Remove_TisLink_t865133271_m1984184141_gshared
fsc:__Z29Transfer_Blittable_ArrayFieldI8JSONReadhEvRT_R9ArrayInfoRK23StaticTransferFieldInfo
aqd:_LayoutRebuilder_IsDestroyed_m3442208294
Sfh:_Enumerator_VerifyState_m1547102902_AdjustorThunk
ljj:__ZN6il2cpp2os20ThreadLocalValueImpl8SetValueEPv
JJa:__ZN22RenderingCommandBuffer20CleanupCommandBufferEv
COg:__Z165RuntimeInvoker_Void_t1841601450_UInt32U26_t2197289955_Int32_t2071877448_UInt32U26_t2197289955_Int32_t2071877448_Int32_t2071877448_Int32_t2071877448_Int32_t2071877448PFvvEPK10MethodInfoPvPS4_
Wmc:__Z18Transfer_BlittableI9JSONWriteLb1EtEvRK29SerializationCommandArgumentsR31RuntimeSerializationCommandInfo
Tqe:_FileLoadException__ctor_m918124939
lk:___syscall85
Z8:__ZN15dense_hashtableINSt3__24pairIKN4core12basic_stringIcNS2_20StringStorageDefaultIcEEEE13dynamic_arrayI4PPtrI6SpriteELj4EEEES6_20StringHash32FunctionIS6_EN14dense_hash_mapIS6_SC_SF_NS0_8equal_toIS6_EE13stl_allocatorISD_L18MemLabelIdentifier81ELi16EEE9SelectKeyESI_SL_E5clearEv
kJb:__ZNSt3__26__sortIRPFbP10GUIElementS2_EPS2_EEvT0_S7_T_
z5e:_SequentialSearchPrimeGeneratorBase_GenerateSearchBase_m2930465198
l3b:__ZN16GraphicsSettings12CleanupClassEv
c9i:__ZN6il2cpp2os6Thread19DetachCurrentThreadEv
aCi:__ZN6il2cpp2vmL21SetupInterfacesLockedEP11Il2CppClassRKNS_2os12FastAutoLockE
lkb:__ZN11MonoManager23VirtualRedirectTransferER24GenerateTypeTreeTransfer
Gy:__ZN23AnimationPlayableOutput17SetSourcePlayableEP8Playable
Qpf:_Capture__ctor_m885749277
Tld:_SubmitEvent__ctor_m222860306
FR:__ZN11UnityEngine15CloudWebService14DataDispatcher15SetupWebRequestEv
$ue:_TextWriter__cctor_m4047845042
jPc:__ZN11UnityEngine15PlatformWrapper13GetShaderCapsEv
C1h:_Object_ToString_m2938729670
TQb:__ZNSt3__211__sift_downIR26RenderDeferredObjectSorterP16RenderObjectDataEEvT0_S5_T_NS_15iterator_traitsIS5_E15difference_typeES5_
lmd:_InputField_CaretBlink_m3960486606
Xj:_emscripten_glGetProgramiv
Pce:_SmallXmlParser_ReadCharacters_m1966365555
ugf:_InternalAsyncResult_get_CompletedWithError_m3993955322
V3b:__ZN21FixedBehaviourManager6UpdateEv
h8b:__ZN9Transform9SetParentEPS_NS_15SetParentOptionE
Zjd:_GridLayoutGroup_set_startCorner_m1660251450
vHa:__ZN19ShaderPropertySheet8SetFloatEN9ShaderLab16FastPropertyNameEfNS_8SetFlagsE
TBg:__ZL68InputField_t1631627530_CustomAttributesCacheGenerator_m_AsteriskCharP21CustomAttributesCache
A7a:__ZN19RuntimeSceneManager24BeginIntegrateMainThreadEP10UnityScene
z7i:__ZNSt3__2plIcNS_11char_traitsIcEENS_9allocatorIcEEEENS_12basic_stringIT_T0_T1_EERKS9_S6_
Sve:_LocalDataStoreSlot__cctor_m1192669356
vcb:__ZN9ShaderLab20SerializedSubProgramaSERKS0_
qpj:_roundf
J5c:_String_CreateString_m2556700934
jFa:__ZN18StreamedBinaryReadILb0EE21TransferSTLStyleArrayINSt3__26vectorI17SortingLayerEntryNS2_9allocatorIS4_EEEEEEvRT_17TransferMetaFlags
ks:__ZN8Animator15SetPrepareStageEv
fdh:_Slider_get_axis_m162140813
bCi:__ZN6il2cpp2vmL24SetupTypeHierarchyLockedEP11Il2CppClassRKNS_2os12FastAutoLockE
QYb:__ZL11TextHandleriPK23EmscriptenKeyboardEventPv
lqd:_LayoutRebuilder_U3Cs_RebuildersU3Em__0_m3768099182
Dbh:_ScrollRect_SetLayoutHorizontal_m3486408020
Nvc:_destroy_face
p$h:_Material_SetIntImpl_m1039479734
zfh:_Enumerator_VerifyState_m1547102902_gshared
Xuj:_glBlendEquationSeparate__wrapper
lgj:__ZN6il2cpp6icalls8mscorlib6System8Security12Cryptography24RNGCryptoServiceProvider13RngInitializeEP11Il2CppArray
kRg:__Z99RuntimeInvoker_Void_t1841601450_Int32_t2071877448_Int16_t4041245914_Int16_t4041245914_RuntimeObjectPFvvEPK10MethodInfoPvPS4_
_jf:_IPAddress__cctor_m3624830012
zL:__ZN20SoundChannelInstance7setMuteEb
Klf:_AsnEncodedData_EnhancedKeyUsageExtension_m1452131166
rwb:__Z19TransferField_ArrayI18StreamedBinaryReadILb1EE27Converter_SimpleNativeClassI17AnimationCurveTplIfEEEvRK23StaticTransferFieldInfoR31RuntimeSerializationCommandInfoRT0_
V9h:_SendMouseEvents__cctor_m1448404407
aha:__ZN18GfxFramebufferGLES22MakeCurrentFramebufferENS_7BuiltinE
Wqf:_Interpreter_Close_m1500459069
pk:_JS_SystemInfo_GetWidth
aDa:__ZN12CachedReader4ReadEPvj
ICc:_cf2_blues_init
Fxh:_InternalEnumerator_1_System_Collections_IEnumerator_get_Current_m3600601141_gshared
QZc:_SHA1Internal_HashFinal_m3188468925
Cwd:_Char_GetHashCode_m2343577184
BNb:__Z24CalculateLightShadowFadeRK6CamerafffR8Vector4f
M_:__ZN19RuntimeSceneManagerD2Ev
_Kh:_ChannelData_get_CustomProperties_m1470957369
Y3d:_Dictionary_2_Do_ICollectionCopyTo_TisRuntimeObject_m545661084_gshared
VS:__ZN11UnityEngine15CloudWebService25WebRequestDownloadHandler17OnCompleteContentEv
Lja:__ZN6prcore17GetIntegerBlitterE13TextureFormatS0_N14ImageReference8BlitModeE
KSi:__ZN6il2cpp2gc19AppendOnlyGCHashMapINSt3__24pairIPK11Il2CppImageP11Il2CppClassEEP22Il2CppReflectionModule17ReflectionMapHashIS9_ENS2_8equal_toIS9_EEE11TryGetValueERKS9_PSB_
Ogh:_Enumerator_VerifyState_m3173176371_AdjustorThunk
gjf:_TypeConverterAttribute__cctor_m506796812
jac:__ZN9BlobWrite14ReduceCopyImplERK14ReduceCopyDataj
qY:__ZNSt3__26__treeI19RepeatingLogMessageNS_4lessIS1_EE13stl_allocatorIS1_L18MemLabelIdentifier73ELi16EEE12__find_equalIS1_EERPNS_16__tree_node_baseIPvEESD_RKT_
dP:__ZN11AudioSource18IsPlayingScriptingEv
yGh:_Comparer_1_System_Collections_IComparer_Compare_m1790257529_gshared
Ntj:_glShaderSource__wrapper
iBa:__ZN25MultiBlocksMemoryFileData17AdjustBlocksCountEj
c_i:__ZNSt3__214__split_bufferIN6il2cpp2vm22EmbeddedResourceRecordERNS_9allocatorIS3_EEED2Ev
uaf:_TlsClientHello__ctor_m1699671541
Ttc:__ZN13TextRendering4Font8TransferI24GenerateTypeTreeTransferEEvRT_
IMh:_Context_NotifyGlobalDynamicSinks_m2916447645
Bbc:__Z27CullingGroup_CUSTOM_DisposeP12Il2CppObject
DSc:__ZNSt3__26vectorIP19BaseConnectSettings13stl_allocatorIS2_L18MemLabelIdentifier6ELi16EEE21__push_back_slow_pathIKS2_EEvRT_
uIb:__ZN13ComputeShader15SetTextureParamEjRKN9ShaderLab16FastPropertyNameE9TextureID16TextureDimension
wch:_Shadow_set_effectDistance_m1951993364
qoh:_Dictionary_2_ContainsKey_m416495915_gshared
vm:_glStencilMask
b7i:__ZN6il2cpp2os10ThreadImpl16GetCurrentThreadEv
kBd:_Hashtable__ctor_m2337481811
tgh:_Enumerator_System_Collections_IEnumerator_get_Current_m2010873149_gshared
TDg:__ZL74SpriteState_t1353336012_CustomAttributesCacheGenerator_m_HighlightedSpriteP21CustomAttributesCache
Vvf:_RealProxy__ctor_m2505535530
Sdj:_GC_push_conditional_with_exclusions
_Mf:_UInt32_System_IConvertible_ToUInt16_m2798641702_AdjustorThunk
Txf:_BinaryFormatter_get_DefaultSurrogateSelector_m219714691
wB:__ZN12_GLOBAL__N_121ProcessAnimationBeginER35AnimationPlayableEvaluationConstantR32AnimationPlayableEvaluationInputR33AnimationPlayableEvaluationOutput
_Kg:__Z136RuntimeInvoker_Void_t1841601450_Int32_t2071877448_RuntimeObject_RuntimeObject_RuntimeObject_RuntimeObject_RuntimeObject_SByte_t454417549PFvvEPK10MethodInfoPvPS4_
X6e:_MD4Managed_Encode_m2097839378
c$f:_MonoProperty_GetOptionalCustomModifiers_m3827844355
nmj:_strrchr
Y7d:_SimpleCollator_GetSortKey_m2188419329
LEg:__ZL56LayoutElement_t2808691390_CustomAttributesCacheGeneratorP21CustomAttributesCache
eOa:__ZN14RenderSettings27UpdateIndirectSpecularColorEv
h5a:__ZN14PlayerSettings8TransferI18StreamedBinaryReadILb0EEEEvRT_
OKi:__ZN6il2cpp6icalls8mscorlib6System8MonoType16GetMethodsByNameEP20Il2CppReflectionTypeP12Il2CppStringibS5_
c$h:_Logger_Log_m302200299
OJh:_GCHandle__ctor_m2952050298
v6g:_Mask_IsRaycastLocationValid_m62488857
XEb:__ZNSt3__27__sort3IRNS_4lessIN22BuiltinResourceManager8ResourceEEEPS3_EEjT0_S7_S7_T_
OFh:_DefaultComparer_Compare_m3472472212_gshared
pre:_MonoIO_GetLength_m2812344043
uBc:_ps_hints_t2mask
hXi:__ZN14dense_hash_mapI10KeyWrapperINSt3__24pairIP11Il2CppClassjEEES4_N6il2cpp8metadata14ArrayClassHashENS6_14EqualsComparerINS8_17ArrayClassCompareEEENS1_9allocatorINS2_IKS6_S4_EEEEEC2EjRKS9_RKSC_
L1a:__ZN10BlendShape8TransferI19StreamedBinaryWriteILb0EEEEvRT_
Koe:__Z21il2cpp_codegen_sizeofP11Il2CppClass
Tna:__Z19GetTimeSinceStartupv
q2c:_SecurityFrame_get_Assembly_m2816566490
bzi:_CanvasRenderer_set_hasPopInstruction_m3302400555
yGc:_TT_Load_Composite_Glyph
Xrd:_Array_Sort_m2994254654
uNe:_List_1__ctor_m593058937_gshared
ULb:__ZN29RenderNodeQueuePrepareContextC2Ev
bO:__ZN10SampleClipC2E18MemLabelIdentifier18ObjectCreationMode
xdb:__ZN9ShaderLab20SerializedSubProgram16TextureParameter8TransferI24GenerateTypeTreeTransferEEvRT_
saa:__ZN9GfxDevice19SaveStereoConstantsEv
Kgj:__ZN6il2cpp2os11MutexHandle4WaitEj
Y8b:__ZL34GetComponentsImplementationRecurseILb1ELi1ELi1EEbR10GameObjectbRK17CompareParametersRK39GetComponentsImplementation_ReturnValue
Jgj:__ZN6il2cpp2os11MutexHandle4WaitEv
qxd:_ArrayList_set_Capacity_m592558035
Ela:__ZN6prcoreL17RemapGenericFloatI15TexFormatRGHalf18TexFormatARGBFloatEEvPKNS_9InnerInfoE
ADb:__Z18SimulateMouseInputi
OHb:__ZN13RenderManager23AddRemoveCamerasDelayedEv
$nc:__ZN9JSONWrite8TransferI13dynamic_arrayIdLj8EEEEvRT_PKc17TransferMetaFlags
OWh:_Color_op_Multiply_m2110750533
FUd:_Array_InternalArray__ICollection_Remove_TisILTokenInfo_t149559338_m1523907845_gshared
DBd:_Hashtable_Rehash_m2877670513
XTb:__ZN13RenderTexture8SetWidthEi
jod:_InputField_Insert_m1593238693
Ywc:_UNITY_FT_GlyphLoader_CheckSubGlyphs
wJi:__ZN6il2cpp2vm21ThreadPoolCompartment20SpawnNewWorkerThreadEv
QZd:_Array_InternalArray__ICollection_Add_TisCustomAttributeTypedArgument_t1498197914_m3260005285_gshared
eOb:__Z25SetupObjectBakedOcclusionbRK15SharedLightDataRK26SharedLightmapSettingsDataRK15LightmapIndicesR17ShaderPassContext
Vje:_Guid_GetHashCode_m1401300871
BY:__ZN9ShaderLab16FastPropertyName4InitEPKc
P_b:__Z13RegisterClassIN2UI13RectTransformEEvv
u7d:_MSCompatUnicodeTable_ToWidthCompat_m2299599532
Rye:_NumberFormatter_get_IsFloatingSource_m2830957202
E2b:__ZL31MeshRendererTransformChangedJobP13BoundsJobDatajPK23TransformAccessReadOnlyPKyj
ROc:__ZN11UnityEngine15PlatformWrapper19GetPhysicalMemoryMBEv
QOa:__ZN13RenderTexture9SetMipMapEb
Dah:_ScrollRect_set_verticalScrollbarSpacing_m2356851539
f6:__Z18GetDirectorManagerv
hgc:__Z38Transform_CUSTOM_INTERNAL_get_rotationP12Il2CppObjectP11Quaternionf
tPi:__ZNSt3__26vectorIN6il2cpp2vm17TypeNameParseInfoENS_9allocatorIS3_EEE8allocateEj
zSi:__ZNK15dense_hashtableINSt3__24pairIK10KeyWrapperINS1_IPK10MethodInfoP11Il2CppClassEEEjEES9_17ReflectionMapHashIS8_EN14dense_hash_mapIS9_jSD_NS9_14EqualsComparerINS0_8equal_toIS8_EEEENS0_9allocatorISB_EEE9SelectKeyESI_SK_E5beginEv
Jma:__ZN7ApiGLES19UploadBufferSubDataEjN2gl12BufferTargetEllPKv
L8:__ZNSt3__216__rotate_forwardINS_11__wrap_iterIPN4core12basic_stringIcNS2_20StringStorageDefaultIcEEEEEEEET_S9_S9_S9_
P3c:_String_System_IConvertible_ToInt32_m1927223638
aVd:_Array_InternalArray__ICollection_Remove_TisContentType_t1028629049_m3085152315_gshared
X5c:_ASCIIEncoding__ctor_m4127831672
dXh:_GameObject_GetComponent_m724360550
Qyi:_CanvasGroup_get_alpha_m4171392097
Cmb:__Z19TransferField_ArrayI14SafeBinaryRead27Converter_SimpleNativeClassI8GUIStyleEEvRK23StaticTransferFieldInfoR31RuntimeSerializationCommandInfoRT0_
pRg:__Z63RuntimeInvoker_Void_t1841601450_RuntimeObject_Int16_t4041245914PFvvEPK10MethodInfoPvPS4_
XDf:_UTF8Encoding__ctor_m3336862259
ygj:__ZN6il2cpp5utils10MemoryPoolC2Ej
dof:_X509Chain_GetAuthorityKeyIdentifier_m2607407678
ugj:__ZN6il2cpp5utils10MemoryPoolC2Ev
CNa:__ZN14RenderSettings5ResetEv
LZb:__ZN6Sprite9BindAtlasERK4PPtrI11SpriteAtlasE
Mkc:__ZN5Unity9rapidjson12GenericValueINS0_4UTF8IcEE13JSONAllocatorE10FindMemberIS4_EENS0_21GenericMemberIteratorILb0ES3_S4_EERKNS1_IS3_T_EE
p$i:__ZNSt3__212basic_stringIDsNS_11char_traitsIDsEENS_9allocatorIDsEEE6appendEPKDsj
llc:__ZN5Unity9rapidjson13GenericReaderINS0_4UTF8IcEES3_13JSONAllocatorE11ParseNumberILj1ENS0_25GenericInsituStringStreamIS3_EENS0_15GenericDocumentIS3_S4_S4_EEEEvRT0_RT1_
p4d:_Dictionary_2_Do_ICollectionCopyTo_TisKeyValuePair_2_t3716250094_m1740410536_gshared
N6i:__ZN6il2cpp2os10ThreadImplD2Ev
Vde:_RSAManaged_Dispose_m3018788098
cmc:__ZN8Gradient8TransferI9JSONWriteEEvRT_
AFd:_DateTime_ToUniversalTime_m1815024752
X2h:_X509CertificateEnumerator_MoveNext_m1422952050
Cxa:__ZNK12TLSAllocatorI14StackAllocatorE22GetAllocatedMemorySizeEv
D7f:__ZL54AssemblyName_t894705941_CustomAttributesCacheGeneratorP21CustomAttributesCache
DId:_Convert_ToUInt32_m3394039268
uva:__ZN17RemapPPtrTransfer12PushMetaFlagE17TransferMetaFlags
Nhb:__ZN12HandlerChain4NameEv
nob:__Z29Transfer_Blittable_ArrayFieldI14SafeBinaryReadN4math12int3_storageEEvRT_R9ArrayInfoRK23StaticTransferFieldInfo
v3a:__ZNSt3__26vectorI9InputAxisNS_9allocatorIS1_EEE10deallocateEv
Tke:_Int16_Equals_m3925135434_AdjustorThunk
TMc:__Z44Register_UnityEngine_CanvasRenderer_get_cullv
i5f:__ZL60IHashCodeProvider_t1980576455_CustomAttributesCacheGeneratorP21CustomAttributesCache
k$b:__ZN13ProduceHelperI13MonoBehaviourLb0EE7ProduceE18MemLabelIdentifier18ObjectCreationMode
BBe:_Enumerator_VerifyState_m1677639504_AdjustorThunk
E9e:_CipherSuiteCollection_get_Item_m280627160
Fkb:__Z44InitializeTransferFunctionScriptingTraitsForI17RemapPPtrTransferEvR31TransferFunctionScriptingTraits
usf:_SerializationInfoEnumerator_MoveNext_m1876990879
wJf:_TimeSpan_Duration_m4205681645
TVb:__ZN14UnityWebStream24UpdateAllUnityWebStreamsEv
z$b:__ZNSt3__26vectorI16MessageForwarder13stl_allocatorIS1_L18MemLabelIdentifier7ELi8EEE6resizeEj
K3f:__ZL60ObsoleteAttribute_t3878847927_CustomAttributesCacheGeneratorP21CustomAttributesCache
zTh:_Uri_ParseAsWindowsAbsoluteFilePath_m1108586962
SR:__ZN11UnityEngine15CloudWebService14DataErrorEventD2Ev
q$d:_Array_InternalArray__ICollection_CopyTo_TisRaycastHit2D_t4063908774_m3837098618_gshared
y7a:__ZN18LoadSceneOperation21MustCompleteNextFrameEv
qai:_DataUtility_GetInnerUV_m593541260
AL:__ZNK12AudioManager16GetAudioListenerEv
Qlg:__ZL48Camera_t189460977_CustomAttributesCacheGeneratorP21CustomAttributesCache
DTb:__ZNSt3__26vectorI11CameraStackNS_9allocatorIS1_EEE8__appendEj
snd:_InputField_OnDisable_m1865339380
XMf:_UInt32_System_IConvertible_ToType_m747769316
Jt:__ZN7mecanim9animation12GetHumanPoseERKNS0_18ClipMuscleConstantEPKNS0_10ValueDeltaERNS_5human9HumanPoseE
yv:__ZN22AnimationMixerPlayable17ProcessRootMotionEP35AnimationPlayableEvaluationConstantP32AnimationPlayableEvaluationInputP33AnimationPlayableEvaluationOutput
l2:__Z13GetFileSystemv
E3:__ZNK5Unity4Type21FindAllDerivedClassesER13dynamic_arrayIPKS0_Lj4EENS0_17TypeFilterOptionsE
j4:__ZN13RuntimeStaticI15GUIEventManagerLb0EE16StaticInitializeEPv
dmh:_Dictionary_2_ToTKey_m2900575080_gshared
Jhe:_DaylightTime_get_Delta_m2316831491
_Td:_Array_InternalArray__ICollection_Contains_TisUILineInfo_t3621277874_m1175659630_gshared
NIf:_WaitHandle_WaitOne_m370363697
jqf:_FactoryCache_Lookup_m1681894361
_Kd:_DateTime_Subtract_m698282245_AdjustorThunk
HYd:_Array_InternalArray__IndexOf_TisResourceCacheItem_t333236149_m761772858_gshared
HIb:__ZN19ShaderPropertySheet9SetMatrixEN9ShaderLab16FastPropertyNameERK10Matrix4x4fNS_8SetFlagsE
pYc:_RIPEMD160Managed_Initialize_m3365407578
jVa:__Z29GetTextureSizeAllowedMultiple13TextureFormat
Zjf:_IPAddress_HostToNetworkOrder_m1092199707
OVd:_SetPropertyUtility_SetStruct_TisSpriteState_t1353336012_m2898060836_gshared
x0c:_SecurityAttribute__ctor_m3425755778
j4b:__ZN21IntermediateRenderers3AddEP20IntermediateRenderer
oMi:_il2cpp_array_element_size
Uf:_glCheckFramebufferStatus
dXd:_Array_compare_TisInt32_t2071877448_m840310202_gshared
Vgh:_Enumerator_System_Collections_IEnumerator_get_Current_m229223308_AdjustorThunk
k2i:__ZN15dense_hashtableINSt3__24pairIK10KeyWrapperINS1_IPKcS4_EEEiEES6_24NamespaceAndNamePairHashN14dense_hash_mapIS6_iS9_NS6_14EqualsComparerI26NamespaceAndNamePairEqualsEENS0_9allocatorIS8_EEE9SelectKeyESD_SF_E12resize_deltaEjj
lFh:_InternalEnumerator_1_System_Collections_IEnumerator_get_Current_m442726479_AdjustorThunk
gVc:_DESTransform_ECB_m2629024873
tDh:_InternalEnumerator_1_System_Collections_IEnumerator_get_Current_m790514740_AdjustorThunk
i7d:__Z37il2cpp_codegen_get_executing_assemblyPK10MethodInfo
fYd:_Array_InternalArray__IndexOf_TisByte_t3683104436_m3605266236_gshared
G8g:_RaycastAllCallback_Invoke_m981876639
JDf:_UnicodeEncoding__ctor_m72484327
Oai:_Texture_INTERNAL_get_texelSize_m3335010007
Q0i:__ZN14dense_hash_mapI10KeyWrapperIP14Il2CppIUnknownEjN6il2cpp5utils11PointerHashIS1_EENS3_14EqualsComparerINSt3__28equal_toIS2_EEEENS9_9allocatorINS9_4pairIKS3_jEEEEE15set_deleted_keyERSF_
T3:__ZN22BuiltinResourceManager16StaticInitializeEPv
cme:_NumberFormatter_ScaleOrder_m1915154678
aVi:__ZN13Il2CppHashMapIPK14Il2CppAssemblyPK22Il2CppMonoAssemblyNameN6il2cpp5utils11PointerHashIS1_EENSt3__28equal_toIS2_EENSA_9allocatorINSA_4pairIK10KeyWrapperIS2_ES5_EEEEEC2EjRKS9_RKSC_
zbf:_ClientSessionInfo_SetContext_m2649357891
Rme:_Int32_System_IConvertible_ToInt64_m3790029067_AdjustorThunk
f8c:_RaycasterManager_GetRaycasters_m1154876874
Mgf:_SslStreamBase_InternalReadCallback_m2524917586
q1:__ZN8Remapper6RemoveEi
AGe:_List_1_CheckCollection_m2608305187_gshared
y9b:__ZN9Scripting27CreateArgumentNullExceptionEPKc
uwc:__ZL36CleanupTextRenderingScriptingClassesv
T_e:_ReadOnlyCollection_1__ctor_m3532148437_gshared
Drd:_Array_BinarySearch_m3270245097
Ydc:__Z34Mesh_CUSTOM_SetArrayForChannelImplP12Il2CppObject30InternalScriptingShaderChannel34InternalScriptingVertexChannelTypeiP11Il2CppArrayi
Fqe:_MonoIO_DeleteFile_m3273821223
e9d:_BigInteger_GenerateRandom_m2507308768
BJd:_DateTime_System_IConvertible_ToDouble_m1431748426_AdjustorThunk
NTd:_Array_InternalArray__ICollection_Contains_TisUInt16_t986882611_m510319131_gshared
u0d:_Array_InternalArray__Insert_TisRaycastHit2D_t4063908774_m3174907903_gshared
uNd:_Decimal_ToString_m541380585
GMi:_il2cpp_class_is_valuetype
GD:__ZN11UnityEngine9Animation28GenericAnimationBindingCache25RegisterIAnimationBindingEPKN5Unity4TypeEiP17IAnimationBinding
XMc:__Z70RectTransformUtility_CUSTOM_INTERNAL_CALL_RectangleContainsScreenPointP12Il2CppObjectRK13Vector2fIcallS0_
iQd:_Enum_ToObject_m2601523252
uSb:__Z40ProcessCameraIndexListIsNodeVisibleInOutRK22SceneCullingParametersPK9SceneNodePK4AABBR9IndexList
z$h:_Mathf_Sqrt_m3274009347
rLa:__ZN16GraphicsSettings8TransferI17RemapPPtrTransferEEvRT_
Kte:_StreamReader__ctor_m2654332332
zKc:__ZN2UI6Canvas13UpdateBatchesEb
U1h:_Playable__cctor_m3745623656
Dy:__ZNK23AnimationPlayableOutput11DerivesFromE17ScriptingClassPtr
KWh:_Color_op_Implicit_m3487763211
GEe:_List_1_CheckCollection_m3968030679_gshared
DEf:_StringBuilder_ToString_m617673931
LPc:__ZN11UnityEngine7Connect13ConfigHandler12GetListenersERKN4core12basic_stringIcNS2_20StringStorageDefaultIcEEEE
Kba:__ZN9GfxDevice18AllocRenderSurfaceEb
v8g:_GetRayIntersectionAllNonAllocCallback_BeginInvoke_m273046189
FZb:__ZN10TagManager32GetSortingLayerUniqueIDFromValueEi
ARh:_AnchorInfo_get_IsComplete_m1247624133
nhd:_Dropdown_Show_m324374589
o_:__ZL27CleanupCoreScriptingClassesv
pLg:__Z68RuntimeInvoker_RuntimeObject_RuntimeObject_DSAParameters_t1872138834PFvvEPK10MethodInfoPvPS4_
HZg:__Z101RuntimeInvoker_Void_t1841601450_RuntimeObject_Int32_t2071877448_Single_t2076509932_Single_t2076509932PFvvEPK10MethodInfoPvPS4_
Aad:_RaycastResult_get_isValid_m2482925612
Tdc:__Z26AnimationCurve_CUSTOM_InitP12Il2CppObjectP11Il2CppArray
oxj:_glUniform1uiv__wrapper
NUi:__ZN6il2cpp2vm10Reflection7IsEventEP12Il2CppObject
x$:__ZN17PersistentManager26GetStreamNameSpaceInternalEi
b7h:_Rect_set_y_m3273335367
IF:__ZN4FMOD6System11createSoundEPKcjP22FMOD_CREATESOUNDEXINFOPPNS_5SoundE
Tn:FUNCTION_TABLE_iiifiiii
UPi:__ZN6il2cpp2vm4Type14IsSystemDBNullEPK10Il2CppType
vZ:__ZN9ShaderLab19CommonPropertyNames13StaticCleanupEPv
I0:__Z31scripting_method_get_returntype18ScriptingMethodPtr
Lah:_ScrollRect_UpdateBounds_m3266596336
yWa:__ZN15SerializeTraitsI12LightmapDataE8TransferI24GenerateTypeTreeTransferEEvRS0_RT_
Qbi:_Transform_INTERNAL_set_localScale_m1610244689
Sed:_ColorBlock_GetHashCode_m649325222
Ptj:_glStencilOpSeparate__wrapper
y6b:__ZN4Mesh5SetUvEiPKfjj
VYa:__ZN7Texture13SetAnisoLimitENS_20AnisotropicFilteringE
w8a:__ZN28LightProbeProxyVolumeManager25UpdateSHCoeffsTextureDataER21LightProbeProxyVolume
eCa:__Z18CreateDecompressor15CompressionType18MemLabelIdentifier
sN:__ZN11AudioModule16SetListenerPauseEb
Nh:_emscripten_glCompressedTexSubImage2D
koa:__ZN13GfxDeviceGLES22MemoryBarrierImmediateEyN2gl17MemoryBarrierTypeE
w8:__ZZN18SpriteAtlasManagerC1EvEN46EarlyUpdateSpriteAtlasManagerUpdateRegistrator7ForwardEv
Sla:__ZN6prcoreL26RemapGenericFloatToIntegerI18TexFormatARGBFloat17TexFormatARGB8888EEvPKNS_9InnerInfoE
S8b:__Z46GetShaderModelNumericValueFromRequirementsMask18ShaderRequirements
LEc:_cff_ps_has_glyph_names
oPh:_PatternCompiler_EmitPosition_m3013268572
Hpf:_X509SubjectKeyIdentifierExtension__ctor_m1109455121
zjd:_Graphic_CreateColorFromAlpha_m2614574534
ykc:__Z44Register_UnityEngine_GUIStyle_SetDefaultFontv
Aub:__Z18Transfer_BlittableI18StreamedBinaryReadILb1EELb1EiEvRK29SerializationCommandArgumentsR31RuntimeSerializationCommandInfo
vA:__ZN9BlobWrite8TransferI22OffsetPtrArrayTransferIKN4math7_float3EEEEvRT_PKc17TransferMetaFlags
t$c:_TripleDES_IsWeakKey_m483013953
CTi:__ZN15dense_hashtableINSt3__24pairIK10KeyWrapperINS1_IPK12PropertyInfoP11Il2CppClassEEEjEES9_17ReflectionMapHashIS8_EN14dense_hash_mapIS9_jSD_NS9_14EqualsComparerINS0_8equal_toIS8_EEEENS0_9allocatorISB_EEE9SelectKeyESI_SK_E12maybe_shrinkEv
FRg:__Z75RuntimeInvoker_RuntimeObject_RuntimeObject_Single_t2076509932_RuntimeObjectPFvvEPK10MethodInfoPvPS4_
$ub:__Z18Transfer_BlittableI18StreamedBinaryReadILb1EELb1EsEvRK29SerializationCommandArgumentsR31RuntimeSerializationCommandInfo
eZg:__Z54RuntimeInvoker_Void_t1841601450_ColorBlock_t2652774230PFvvEPK10MethodInfoPvPS4_
U2c:_Single_System_IConvertible_ToSByte_m3757385387
Hbi:_Vector3_get_forward_m1316319684
Dre:_StreamAsyncResult_SetComplete_m2141125667
ZYa:__ZL21SetAnisoLimitEnumImplN7Texture20AnisotropicFilteringEb
$Nc:__ZN22BaseUnityConnectClient17OnEnterStateReadyEv
HJa:__ZN14GrowableBufferD2Ev
Sfi:_GUIStyle_get_stretchWidth_m813991504
hdc:__Z29Input_CUSTOM_GetMouseButtonUpi
mLi:__ZN6il2cpp6icalls8mscorlib6System8MonoType16InternalGetEventEP20Il2CppReflectionTypeP12Il2CppStringi
bHf:_Interlocked_CompareExchange_m3339239614
Dyc:_UNITY_tt_face_load_maxp
wdc:__Z46Input_CUSTOM_INTERNAL_set_compositionCursorPosRK13Vector2fIcall
Ms:__ZN7mecanim5human12FullBodyMaskEv
Q2a:__ZN19ShaderPropertySheet11ComputeHashEv
FFi:__ZN30dense_hashtable_const_iteratorI10KeyWrapperIPK19Il2CppGenericMethodES4_N6il2cpp8metadata23Il2CppGenericMethodHashEN14dense_hash_setIS4_S7_NS4_14EqualsComparerINS6_26Il2CppGenericMethodCompareEEENSt3__29allocatorIS4_EEE8IdentityESB_SE_EppEv
ES:__ZN11UnityEngine15CloudWebService20WebRequestRestClient6IsDoneEv
Eug:__ZL93AudioSource_t1135106623_CustomAttributesCacheGenerator_AudioSource_Play_m1385529671____delay0P21CustomAttributesCache
Ji:_llvm_fabs_f32
Wdd:_CanvasScaler_HandleScaleWithScreenSize_m80056230
hS:__ZN11UnityEngine15CloudWebService16SessionContainer16GetJsonDataBlockEjRKN4core12basic_stringIcNS2_20StringStorageDefaultIcEEEERS6_PjSA_
SAf:_SByte_System_IConvertible_ToUInt64_m2174352876_AdjustorThunk
OFf:_UTF7Encoding_InternalGetBytes_m2772055844
wNg:__Z76RuntimeInvoker_Void_t1841601450_Int64_t909078037_ResourceInfoU26_t3126209420PFvvEPK10MethodInfoPvPS4_
G7d:_SimpleCollator__cctor_m2693747668
nNd:_Decimal_CompareTo_m2454501434_AdjustorThunk
N$:__ZN14SafeBinaryReadD2Ev
ILf:_UInt16_System_IConvertible_ToChar_m4055364664
I_b:__Z13RegisterClassI7TextureEvv
pwb:__ZN8Gradient8TransferI18StreamedBinaryReadILb1EEEEvRT_
ijh:_Enumerator_Dispose_m2369319718_AdjustorThunk
nNf:_UInt32_ToString_m554020223_AdjustorThunk
g_h:_GameObject_SendMessage_m3423113156
c0i:__ZN6il2cpp6icalls8mscorlib6System4Type15MakeGenericTypeEP20Il2CppReflectionTypeP11Il2CppArray
ij:_SDL_PauseAudio
LMi:_il2cpp_class_from_type
jsd:_Array_Sort_m2323017822
n9g:_Scrollbar_UpdateDrag_m3839695926
uZ:__ZN9ShaderLab19CommonPropertyNames16StaticInitializeEPv
owe:_MissingMemberException__ctor_m3710131950
xC:__ZN7mecanim9animation18CreateAvatarOutputEPKNS0_14AvatarConstantEbbRNS_6memory9AllocatorE
OTg:__Z91RuntimeInvoker_Void_t1841601450_RuntimeObject_Int32_t2071877448_RuntimeObject_RuntimeObjectPFvvEPK10MethodInfoPvPS4_
RBf:_CspParameters__ctor_m2546931874
sL:__ZN11AudioSource23VirtualRedirectTransferER24GenerateTypeTreeTransfer
k6b:__ZN7Texture11SetWrapModeE15TextureWrapMode
t$a:__ZN14Texture2DArray23VirtualRedirectTransferER14SafeBinaryRead
wNb:__ZNK6Camera21CalculateCanDoShadowsEv
Djd:_Graphic__cctor_m1643894470
X8i:__ZN6il2cpp2os6Thread12SetStackSizeEj
qnf:_X509ChainElementEnumerator_get_Current_m2232618221
eYh:_DebugLogHandler_LogFormat_m2866699703
sdd:_U3COnFinishSubmitU3Ec__Iterator0_Reset_m2080388334
d6b:__ZNK8Renderer16IsVisibleInSceneEv
Fah:_ScrollRect_set_onValueChanged_m3957749575
yX:__Z13VFormatBufferPciPKcz
wxb:__Z18Transfer_BlittableI18StreamedBinaryReadILb0EELb1EhEvRK29SerializationCommandArgumentsR31RuntimeSerializationCommandInfo
Lvi:_U3CCreateWhereIteratorU3Ec__Iterator1D_1_Dispose_m1879652802_gshared
wld:_Image_GenerateSimpleSprite_m4275440988
xMf:_UInt16_ToString_m3280699191
Wla:__ZN6prcoreL27StretchGenericFloatBilinearI15TexFormatRFloatEEvPKNS_9InnerInfoE
Bv:__Z24ProcessAnimationMixBeginP35AnimationPlayableEvaluationConstantP32AnimationPlayableEvaluationInputP33AnimationPlayableEvaluationOutput
SXd:_Array_IndexOf_TisCustomAttributeNamedArgument_t94157543_m745056346_gshared
Zia:__Z14PadImageBorderR14ImageReferenceii
fSi:__ZN15dense_hashtableINSt3__24pairIK10KeyWrapperINS1_IPK10MethodInfoP11Il2CppClassEEEjEES9_17ReflectionMapHashIS8_EN14dense_hash_mapIS9_jSD_NS9_14EqualsComparerINS0_8equal_toIS8_EEEENS0_9allocatorISB_EEE9SelectKeyESI_SK_E4findERSA_
JIi:__ZN6il2cpp2vm13MetadataCache28GetFieldDefaultValueForFieldEPK9FieldInfo
ruh:_ArrayReadOnlyList_1_ReadOnlyError_m2289309720_gshared
dw:__ZN27AnimationLayerMixerPlayableD2Ev
ALi:__ZN6il2cpp2vm8basepathEPKc
NH:__ZN12AudioManager39HandlePendingAudioConfigurationCallbackEv
QKg:__Z119RuntimeInvoker_Int32_t2071877448_RuntimeObject_RuntimeObject_Int32_t2071877448_Int32_t2071877448_BooleanU26_t3168250738PFvvEPK10MethodInfoPvPS4_
ek:_emscripten_glIsFramebuffer
lGa:__ZN12_GLOBAL__N_16qAtan2Eff
NHd:_Convert_ToInt64_m954367741
ik:_JS_Sound_SetLoopPoints
ixd:_ArrayList__ctor_m1467563650
EM:__ZN12AudioManager17ShouldSourcePauseEb
Qgj:__ZN6il2cpp2vm26MetadataAllocGenericMethodEv
Ara:__ZN19ConstantBuffersGLES12RecordRenderEv
Unc:__ZN9JSONWrite8TransferI10RectOffsetEEvRT_PKc17TransferMetaFlags
Eia:__ZN4crnd12symbol_codec11decode_bitsEj
hDc:_cf2_doFlex
Z2d:_Array_Sort_TisRaycastResult_t21186376_TisRaycastResult_t21186376_m38820193_gshared
Pqe:_StreamReader__ctor_m3454466728
RH:__ZN4FMOD6System12createReverbEPPNS_6ReverbE
s8h:_RectTransform_get_anchorMin_m3466802567
Wv:__ZN7mecanim19ValueArrayBlendNodeILb1EEEvRKNS_10ValueArrayERKNS_14ValueArrayMaskERS1_RS4_RNS_16ValueArrayWeightEf
K9a:__Z16MarkDependenciesR27GarbageCollectorThreadStatej
ipf:_X509ChainElementEnumerator_Reset_m3832280427
uye:_MulticastDelegate_RemoveImpl_m2024746777
eed:_CanvasUpdateRegistry_ParentCount_m2367607495
oye:_MulticastDelegate_Equals_m3064081489
Pge:_Activator_CreateInstance_m1465989661
s9:__ZNK9Transform11GetPositionEv
$Sh:_PositionAssertion_GetWidth_m2294218483
tMa:__ZN23SharedMeshRenderingData18UnloadVertexStreamEi
i4b:__ZN31CanvasBatchIntermediateRenderer11AddSubBatchERK16DrawBuffersRangePK19ShaderPropertySheet
NJg:__Z99RuntimeInvoker_Void_t1841601450_RuntimeObject_Int32_t2071877448_Int32_t2071877448_Int32_t2071877448PFvvEPK10MethodInfoPvPS4_
S2b:__ZN19RenderEventsContextC2Ei
vQ:__Z6simd4fRKf
l$d:_Array_InternalArray__ICollection_CopyTo_TisColor32_t874517518_m379086718_gshared
ddh:_Slider_ClampValue_m2851810895
Mk:_emscripten_glEnable
F4i:__ZN6il2cpp2gc16GarbageCollector29RegisterFinalizerForNewObjectEP12Il2CppObject
OEa:__ZN10TagManager23VirtualRedirectTransferER14SafeBinaryRead
Zxc:_UNITY_FT_Init_Class_ft_grays_raster
h6:__ZN14PlayableOutput26ClearInvalidSourcePlayableEv
jQb:__Z15InitLightMeshesv
jfg:__ZL97WaitHandle_t677569169_CustomAttributesCacheGenerator_WaitHandle_t677569169____Handle_PropertyInfoP21CustomAttributesCache
Oze:_KeyValuePair_2_ToString_m1391611625_AdjustorThunk
wn:FUNCTION_TABLE_iifiii
jr:__ZN7mecanim9animation14HasHumanCurvesERKNS0_18ClipMuscleConstantE
RGd:_Double_Parse_m1617409931
CSg:__Z70RuntimeInvoker_Boolean_t3825574718_Int32_t2071877448_Int16_t4041245914PFvvEPK10MethodInfoPvPS4_
QYa:__ZN15QualitySettings8TransferI19StreamedBinaryWriteILb0EEEEvRT_
PCc:_cf2_arrstack_init
U8f:__ZL65ClassInterfaceAttribute_t910653559_CustomAttributesCacheGeneratorP21CustomAttributesCache
tQi:__ZN15dense_hashtableINSt3__24pairIK10KeyWrapperINS1_IPK14Il2CppAssemblyP11Il2CppClassEEEjEES9_17ReflectionMapHashIS8_EN14dense_hash_mapIS9_jSD_NS9_14EqualsComparerINS0_8equal_toIS8_EEEENS0_9allocatorISB_EEE9SelectKeyESI_SK_E15insert_noresizeERKSB_
pW:__Z15CleanLogHandler7LogTypePKcz
$db:__ZN9ShaderLab19SerializedSubShader8TransferI19StreamedBinaryWriteILb0EEEEvRT_
tFf:_UTF32Encoding_GetBytes_m2290150495
HAb:__ZN6Camera17RemoveImageFilterERK11ImageFilter
yna:__ZNSt3__218__insertion_sort_3IR25ValueParameterArraySorterPN20GpuProgramParameters14ValueParameterEEEvT0_S6_T_
Zzd:_CaseInsensitiveHashCodeProvider_AreEqual_m2456617355
U5g:_LayoutUtility_GetLayoutProperty_m4052007472
sqa:__ZNSt3__214__split_bufferI20ComputeShaderVariantRNS_9allocatorIS1_EEED2Ev
Sxb:__Z18Transfer_BlittableI18StreamedBinaryReadILb0EELb1E9BoundsIntEvRK29SerializationCommandArgumentsR31RuntimeSerializationCommandInfo
Xbf:_Context_set_WriteSequenceNumber_m3356252710
Wbj:__ZN6il2cpp2vm13ManagedObject7GetIidsEPjPP10Il2CppGuid
eLc:__ZN2UI26InitializeDeviceForOverlayEi
Tje:_Guid_Equals_m2389236871
oY:__Z27LogRepeatingStringWithFlagsRKN4core12basic_stringIcNS_20StringStorageDefaultIcEEEE15LogMessageFlagsi
DCe:_Enumerator_MoveNext_m3483405135_gshared
mt:__ZN17AnimationPlayable28ComputeNeedsBindingRebuildedEv
ss:__ZN17AnimationPlayable23RequestAllocateBindingsEv
UZd:_Array_InternalArray__ICollection_Add_TisMonoResource_t3127387157_m2070096275_gshared
IDe:_List_1_CheckIndex_m3609163576_gshared
zdc:__Z41Register_UnityEngine_Input_GetMouseButtonv
VQc:__ZN18UnityConnectClient33OnPlayerSessionStateChangedStaticEPS_jyy
O4f:__ZL74CaseInsensitiveHashCodeProvider_t2307530285_CustomAttributesCacheGeneratorP21CustomAttributesCache
mT:__ZNK11UnityEngine15CloudWebService23WebRequestUploadHandler11GetProgressEv
Cfa:__ZN7ApiGLES4LoadE16GfxDeviceLevelGL
MWa:__ZN18StreamedBinaryReadILb0EE21TransferSTLStyleArrayI13dynamic_arrayI31EnlightenSystemAtlasInformationLj8EEEEvRT_17TransferMetaFlags
xia:__ZN4crnd12crn_unpacker22decode_color_endpointsEv
M3i:__ZN15dense_hashtableI10KeyWrapperIP18Il2CppGenericClassES3_N6il2cpp8metadata22Il2CppGenericClassHashEN14dense_hash_setIS3_S6_NS3_14EqualsComparerINS5_25Il2CppGenericClassCompareEEENSt3__29allocatorIS3_EEE8IdentityESA_SD_E15insert_noresizeERKS3_
ZZe:_ReadOnlyCollection_1_System_Collections_IList_Clear_m3006875897_gshared
Z1b:__ZZL31RegisterOtherRendererPropertiesR22GenericPropertyBindingEN30Wrapper_RendererReceiveShadows13GetFloatValueEPv
VCe:_Enumerator_System_Collections_IEnumerator_get_Current_m3866069145_gshared
TDb:__ZN8Material11SetPassFastEPN9ShaderLab4PassER17ShaderPassContextP6Shaderib
TQc:__ZN11UnityEngine7Connect20BasePersistentValues10SaveValuesER9JSONWrite
Gpi:_AudioListener_AddExtension_m2954727157
f9c:_ExecuteEvents_get_pointerDownHandler_m1172742772
j7b:__Z14ScaleCurveTimeR17AnimationCurveTplIfEf
p4:__ZN22VirtualJoystickManagerC2Ev
sKb:__Z12SetupLODFadeR9GfxDeviceR17ShaderPassContextf
_Sa:__ZNK14PlayableOutput7GetTypeEv
WKg:__Z203RuntimeInvoker_Boolean_t3825574718_RuntimeObject_Int32U26_t455636984_Int32_t2071877448_Int32_t2071877448_RuntimeObject_SByte_t454417549_Int32_t2071877448_ContractionU26_t2019974048_ContextU26_t3131521781PFvvEPK10MethodInfoPvPS4_
YPb:__ZL24CollectForwardObjectsJobP27CollectForwardObjectsHeader
LHh:_Enumerator_System_Collections_IDictionaryEnumerator_get_Entry_m345330700_gshared
vTb:__ZNK25CameraStackRenderingState24ResolveTempToEyeTexturesEv
VRb:__Z13IsNodeVisibleRK9SceneNodeRK4AABBRK22SceneCullingParameters
ZMc:__Z57RectTransformUtility_CUSTOM_INTERNAL_CALL_PixelAdjustRectP12Il2CppObjectS0_R5RectTIfE
TSb:__Z24ScheduleCullingAllGroupsR8JobFenceRK22SceneCullingParametersiRK13CullingOutputRK13dynamic_arrayIP12CullingGroupLj4EERKS_
zxf:_DelayedFixupRecord_FixupImpl_m4249966635
kzj:_emscripten_glStencilMask__wrapper
vFi:__ZN15dense_hashtableI10KeyWrapperIPK19Il2CppGenericMethodES4_N6il2cpp8metadata23Il2CppGenericMethodHashEN14dense_hash_setIS4_S7_NS4_14EqualsComparerINS6_26Il2CppGenericMethodCompareEEENSt3__29allocatorIS4_EEE8IdentityESB_SE_EC2ERKSH_j
q9d:_BigInteger_ToString_m3837784224
lNd:_Decimal_decimalCompare_m26009298
zsc:__ZN16NovodexAllocator8allocateEjPKcS1_i
xPb:__Z17PrepareShadowMapsRK11CullResultsRK11ActiveLightRK10MinMaxAABB
QGf:_NativeEventCalls_CreateEvent_internal_m1605829321
arg:__ZL73RuntimePlatform_t1869584967_CustomAttributesCacheGenerator_MetroPlayerX64P21CustomAttributesCache
bAh:_InternalEnumerator_1_System_Collections_IEnumerator_get_Current_m3239681450_AdjustorThunk
VPb:__ZN9ShaderLab10GrabPassesD2Ev
E$a:__ZN14Texture2DArray13UploadTextureEv
mAc:_tt_cmap14_done
B7a:__ZN18AwakeFromLoadQueue25RegisterObjectInstanceIDsEv
Bud:_Buffer_BlockCopy_m1586717258
Wbg:__ZL93X509Certificate_t283079845_CustomAttributesCacheGenerator_X509Certificate_GetName_m2354987368P21CustomAttributesCache
iw:__ZNK27AnimationLayerMixerPlayable11DerivesFromE17ScriptingClassPtr
Duc:__ZN20TextRenderingPrivate19NativeTextGenerator15InsertCharacterEiPj
RRd:_CompareInfo_GetSortKey_m3691382873
hMd:_DBNull_ToString_m3228904745
kjc:__ZN5IMGUI20MoveWindowFromLayoutER8GUIStateiRK5RectTIfE
M7e:_RC4_get_IV_m506011366
G4h:_X509Crl__ctor_m2469408229
YHh:_Enumerator_get_CurrentValue_m3562053380_AdjustorThunk
Npf:_X509SubjectKeyIdentifierExtension_CopyFrom_m136762226
bBe:_Enumerator_System_Collections_IEnumerator_Reset_m610822832_AdjustorThunk
xwc:__ZN20TextRenderingPrivate15DynamicFontData21GetFontMetricsForFaceERK13dynamic_arrayIN4core17string_with_labelILi35EEELj4EEiRKS1_I4PPtrIN13TextRendering4FontEELj4EEPfSF_
xvc:_UNITY_FT_Open_Face
cvj:_glGenRenderbuffers__wrapper
lae:_BigInteger_op_Division_m1581119694
Nyf:_CallbackHandler_Invoke_m1498072969
sVc:_DSACryptoServiceProvider__ctor_m701823690
gRf:_CustomAttributeData_GetCustomAttributes_m2421330738
Sxi:_TextGenerator_GetVerticesInternal_m514005870
y2i:__ZN30dense_hashtable_const_iteratorINSt3__24pairIK10KeyWrapperINS1_IPKcS4_EEEiEES6_24NamespaceAndNamePairHashN14dense_hash_mapIS6_iS9_NS6_14EqualsComparerI26NamespaceAndNamePairEqualsEENS0_9allocatorIS8_EEE9SelectKeyESD_SF_EppEv
sKf:_Type_get_IsEnum_m313908919
ybc:__Z44Register_UnityEngine_Component_get_transformv
tSe:_Collection_1_System_Collections_ICollection_CopyTo_m1335644572_gshared
zB:__ZN12_GLOBAL__N_120ProcessPlayableGraphERN8Animator11AnimatorJobER35AnimationPlayableEvaluationConstantR32AnimationPlayableEvaluationInputR33AnimationPlayableEvaluationOutputPFvS4_R17AnimationPlayableEPFvS4_S6_S8_EPFvS8_S4_S6_S8_fESE_MS9_FvPS3_PS5_PS7_E
kJe:_List_1_CheckMatch_m2830747427_gshared
dGb:__ZN17ArchiveFileSystem12MountArchiveEPKcS1_
Zmc:__Z18Transfer_BlittableI9JSONWriteLb1E8Vector4fEvRK29SerializationCommandArgumentsR31RuntimeSerializationCommandInfo
sn:FUNCTION_TABLE_viififiii
FFa:__Z30GetScriptableCullingParametersR6CameraR27ScriptableCullingParameters
_fh:_Enumerator_System_Collections_IEnumerator_Reset_m70453843_gshared
sXa:__ZThn32_NK8Renderer14GetSubsetIndexEi
h4d:_Dictionary_2_Do_CopyTo_TisKeyValuePair_2_t1174980068_TisRuntimeObject_m3279061992_gshared
K0b:__ZN13ProduceHelperI15ResourceManagerLb0EE7ProduceE18MemLabelIdentifier18ObjectCreationMode
Dca:__ZN9GfxDevice15ImmediateVertexEfff
q_b:__Z13RegisterClassI8MaterialEvv
$Va:__ZNK16LightmapSettings22GetTypeVirtualInternalEv
sfi:_WindowFunction_BeginInvoke_m87819360
YQd:_FieldAccessException__ctor_m3893881490
yrc:__ZN8JSONRead21TransferSTLStyleArrayI13dynamic_arrayItLj2EEEEvRT_17TransferMetaFlags
_9:__ZN13GfxDeviceGLES15SetStencilStateEPK18DeviceStencilStatei
ZUg:__Z107RuntimeInvoker_Void_t1841601450_Single_t2076509932_Single_t2076509932_Single_t2076509932_Single_t2076509932PFvvEPK10MethodInfoPvPS4_
qlj:_cycle
Cd:_emscripten_glUniform1iv
Aeh:_Text_get_preferredHeight_m452532789
EAi:_AnimationOffsetPlayable_Equals_m1510591175
N3c:_String_System_IConvertible_ToDouble_m3860911722
hjb:__ZN16MemoryFileSystemD2Ev
tEh:_InternalEnumerator_1_get_Current_m3732458101_AdjustorThunk
e6e:_ARC4Managed__ctor_m2922048522
Ouc:__Z17dynamic_pptr_castIP9Texture2D7TextureET_RK4PPtrIT0_E
M_e:_ReadOnlyCollection_1_System_Collections_IList_set_Item_m1272038804_gshared
vvh:_InternalEnumerator_1_System_Collections_IEnumerator_get_Current_m1931522460_AdjustorThunk
t0c:_SecurityPermission_IsEmpty_m1869313067
hbc:__Z37Register_UnityEngine_Camera_get_depthv
yde:_EncryptedPrivateKeyInfo_get_Salt_m2734354394
I0e:_ReadOnlyCollection_1_System_Collections_Generic_IListU3CTU3E_set_Item_m1918537449_gshared
IRe:_Collection_1_System_Collections_ICollection_CopyTo_m3896480607_gshared
N9c:_PointerEventData_set_position_m794507622
yZh:_UnityEvent_GetDelegate_m1261032859
mYb:__Z23ConvertIntegerToTypePtrItEbPvR14SafeBinaryRead
bC:__ZN7mecanim5human29HumanGetGoalOrientationOffsetENS0_4GoalE
Td:_emscripten_glStencilFunc
w_f:_MonoMethod_MakeGenericMethod_impl_m2063853616
h2c:__Z46il2cpp_codegen_get_marshal_directive_exceptionPKc
kfb:__ZN9ShaderLab20SerializedSubProgram14AddMatrixParamEPKcii15ShaderParamTypei
Zd:_glGetActiveUniformBlockName
If:_emscripten_glUniform1fv
$je:_Guid_AppendByte_m2890893073
Nvd:_Char_System_IConvertible_ToType_m3106771703_AdjustorThunk
Qrf:_Interval_Intersects_m3480157390_AdjustorThunk
Odc:__Z39Quaternion_CUSTOM_INTERNAL_CALL_InverseRK11QuaternionfRS_
VJh:_GCHandle_Alloc_m1063472408
LI:__ZN4FMOD7Channel20set3DConeOrientationEP11FMOD_VECTOR
jn:FUNCTION_TABLE_iiifii
EBf:_CryptoConfig_CreateFromName_m391442950
Bzi:_RectTransformUtility_INTERNAL_CALL_PixelAdjustRect_m3338747528
Q5i:__ZN6il2cpp2vm12GenericClass11SetupEventsEP11Il2CppClass
hGc:_tt_delta_interpolate
fAc:_tt_cmap12_get_info
r1i:__ZN6il2cpp2vm15ReboxIReferenceEP14Il2CppIUnknownP11Il2CppClass
nue:_StreamWriter_LowLevelWrite_m4205372900
Wzi:__ZN6il2cpp6icalls8mscorlib6System7Decimal14decimalCompareEP19il2cpp_decimal_reprS5_
_bj:__ZThn4_N6il2cpp2vm13CachedCCWBaseINS0_13ManagedObjectEE7ReleaseEv
qAd:_CollectionBase_System_Collections_IList_get_Item_m2370387510
R2d:_Array_Sort_TisCustomAttributeNamedArgument_t94157543_m3436077809_gshared
owj:_glCopyTexImage2D__wrapper
$od:_LayoutElement__ctor_m789941073
RW:__GLOBAL__sub_I_runtime_graphics_billboard_0_cpp
_Db:__Z18ClearByDrawingQuad13GfxClearFlagsRK10ColorRGBAffjR17ShaderPassContext
CMh:_DynamicPropertyCollection_FindProperty_m1233265924
tla:__ZN6prcoreL17RemapGenericFloatI14TexFormatRHalf15TexFormatRFloatEEvPKNS_9InnerInfoE
hKb:__Z16ShouldUseShadowsb
a6:__ZN15DirectorManager21RebuildStageCallbacksEv
lEb:__ZN19RuntimeSceneManager9LoadSceneERKN4core12basic_stringIcNS0_20StringStorageDefaultIcEEEES6_S6_RK9UnityGUIDiNS_11LoadingModeE
Dma:__ZN7ApiGLES10DrawArraysE16GfxPrimitiveTypejjj
jG:__ZN10SampleClip13LoadBaseSoundEv
e8h:_RectOffset_get_left_m1496351507
CP:__Z57AudioSource_CUSTOM_INTERNAL_CALL_ClearExtensionPropertiesP12Il2CppObjectRK12PropertyName
T4i:__ZN15dense_hashtableINSt3__24pairIK10KeyWrapperIP12Il2CppObjectEN6il2cpp2gc9CachedCCWEEES5_NS7_5utils11PointerHashIS3_EEN14dense_hash_mapIS5_S9_SD_NS5_14EqualsComparerINS0_8equal_toIS4_EEEENS0_9allocatorISA_EEE9SelectKeyESI_SK_E15insert_noresizeERKSA_
DVe:_Collection_1_Contains_m643401393_gshared
vSa:__ZN22DeviceMVPMatricesStateC2ER9GfxDevice
F3c:_String__ctor_m372528291
Vm:FUNCTION_TABLE_iifii
YZa:__ZNSt3__26vectorI13dynamic_arrayI8Vector2fLj4EENS_9allocatorIS3_EEE6assignINS_11__wrap_iterIPS3_EEEENS_9enable_ifIXaasr21__is_forward_iteratorIT_EE5valuesr16is_constructibleIS3_NS_15iterator_traitsISC_E9referenceEEE5valueEvE4typeESC_SC_
PG:__GLOBAL__sub_I_runtime_video_0_cpp
iDf:_Encoding_SetFallbackInternal_m1682842442
AZh:_UnityEvent_FindMethod_Impl_m947332673
Fya:__ZNSt3__26__treeIiNS_4lessIiEE13stl_allocatorIiL18MemLabelIdentifier1ELi16EEE7destroyEPNS_11__tree_nodeIiPvEE
gc:invoke_viiifi
lxe:_LongComparer_Compare_m3981323622
pdh:_Slider_FindSelectableOnUp_m15474611
Gya:__ZNK11AssetBundle14GetPreloadDataEiR13dynamic_arrayIiLj4EE
Gee:_EncryptedData_get_EncryptedContent_m2732115576
Uci:_Vector3__ctor_m2761639014
gf:_JS_Sound_SetPosition
EQh:_Assertion_set_FalseExpression_m1781616372
Jpf:_X509SubjectKeyIdentifierExtension_FromHexChars_m2515150420
EOa:__ZN19RenderBufferManager13GetTempBufferEii17DepthBufferFormat19RenderTextureFormatj22RenderTextureReadWrite14VRTextureUsagei23RenderTextureMemoryless
jIi:__ZL13GetSharedInstPK17Il2CppGenericInst
A3f:__ZL51IReflect_t3412036974_CustomAttributesCacheGeneratorP21CustomAttributesCache
Nbd:_StandaloneInputModule_SendSubmitEventToSelectedObject_m3421155293
u6h:_Quaternion_Equals_m798965363_AdjustorThunk
sRb:__Z17PrepareSceneNodesP11CullResults
Cyi:_Canvas_get_sortingLayerID_m137448982
oOh:_CallContextRemotingData_Clone_m2226242476
k$:__Z63ThreadAndSerializationSafeCheckSetMonoBehaviourBeingTransferredP13MonoBehaviour
$Pb:__Z24SetupActiveLightsContextR21ActiveLightingContextRK12ActiveLightsRK11CullResultsP14ShadowMapCacheRK10MinMaxAABB
ofc:__Z38Sprite_CUSTOM_INTERNAL_get_textureRectP12Il2CppObjectP5RectTIfE
eMd:_DBNull_System_IConvertible_ToUInt32_m2681284284
OVi:__ZNK15dense_hashtableINSt3__24pairIK10KeyWrapperIPK22Il2CppGenericParameterEPK24MonoGenericParameterInfoEES6_N6il2cpp5utils11PointerHashIS4_EEN14dense_hash_mapIS6_SA_SF_NS6_14EqualsComparerINS0_8equal_toIS5_EEEENS0_9allocatorISB_EEE9SelectKeyESK_SM_E3endEv
P8b:__ZN9TextAsset7SetTextERKN4core12basic_stringIcNS0_20StringStorageDefaultIcEEEE
vIa:__ZN6Camera8TransferI24GenerateTypeTreeTransferEEvRT_
Dsh:_EqualityComparer_1__cctor_m416314417_gshared
Ha:invoke_iiiiiiif
Ea:invoke_iiiiiiii
aof:_X509ChainElementCollection_Contains_m3599995067
sTb:__ZN8Renderer17PendingAddToSceneEv
jAj:b123
iAj:b122
mAj:b125
kAj:b124
vAj:b127
rAj:b126
Gec:__Z52Register_UnityEngine_RectTransform_INTERNAL_get_rectv
b_:__Z21PostprocessStacktracePKcRN4core12basic_stringIcNS1_20StringStorageDefaultIcEEEE
n5a:__ZN18StreamedBinaryReadILb0EE21TransferSTLStyleArrayI13dynamic_arrayI16SplashScreenLogoLj4EEEEvRT_17TransferMetaFlags
NUd:_Array_InternalArray__ICollection_Remove_TisX509ChainStatus_t4278378721_m4127982424_gshared
rbc:__Z47Register_UnityEngine_Camera_get_allCamerasCountv
qVc:___clang_call_terminate
kOc:__ZN22BaseUnityConnectClient20StartEventDispatcherEv
C6b:__ZNSt3__26vectorIj13stl_allocatorIjL18MemLabelIdentifier1ELi16EEE6assignIPKtEENS_9enable_ifIXaasr21__is_forward_iteratorIT_EE5valuesr16is_constructibleIjNS_15iterator_traitsIS9_E9referenceEEE5valueEvE4typeES9_S9_
RA:__ZN7mecanim9animation16EvaluateAvatarIKEPKNS0_14AvatarConstantEPKNS0_11AvatarInputEPNS0_12AvatarOutputEPNS0_12AvatarMemoryEPNS0_15AvatarWorkspaceEb
bna:__ZL25ProgramUniformMatrix4x3fvPK7ApiGLESjiihPKv
qHb:__ZN12InputManager13InputEndFrameEv
pCd:_SyncHashtable__ctor_m2029869827
_Yi:__ZN6il2cpp2vm6Thread5SetupEP12Il2CppThread
X1e:_ReadOnlyCollection_1_System_Collections_IList_Remove_m2200089035_gshared
DRe:_Collection_1_CheckWritable_m2756357359_gshared
vmj:___munmap
umd:_InputField_get_characterLimit_m2386380888
zAg:__ZL68ColorBlock_t2652774230_CustomAttributesCacheGenerator_m_PressedColorP21CustomAttributesCache
zHd:_Convert_ToInt64_m1722087499
_f:_localtime_r
bg:_strftime
tpa:__ZN7Texture33SetStoredColorSpaceNoDirtyNoApplyE17TextureColorSpace
L2:__ZN12FileAccessorD2Ev
HMa:__ZN14VertexDataInfoC2Ev
e8i:__ZN6il2cpp2gc16GarbageCollector14CollectALittleEv
Myh:_InternalEnumerator_1_get_Current_m2415979394_gshared
Ovb:__ZL17Transfer_GUIStyleI18StreamedBinaryReadILb1EELb1EEvRK29SerializationCommandArgumentsR31RuntimeSerializationCommandInfo
pah:_ScrollRect_SetDirtyCaching_m1491302821
cLi:__ZN6il2cpp6icalls8mscorlib6SystemL9IsPrivateEPK12PropertyInfo
iRf:_CustomAttributeData_GetCustomAttributes_m3258419955
X$h:_Matrix4x4_GetColumn_m83396621
rZ:__ZN9shadertag10InitializeEv
uKb:__ZN13BatchRenderer20RenderSingleWithPassER17ShaderPassContextPK18SharedMaterialDataP6ShaderPN9ShaderLab4PassEiPKNS7_10GrabPassesEjib15BatchBreakCause
NYa:__ZN15QualitySettings14QualitySetting8TransferI24GenerateTypeTreeTransferEEvRT_
__d:_Array_InternalArray__ICollection_CopyTo_TisParameterModifier_t1820634920_m4127516211_gshared
nCf:_DecoderReplacementFallback__ctor_m2344783488
Dze:_OutOfMemoryException__ctor_m239206850
gai:_Sprite_get_rect_m3985037234
Pid:_GraphicRegistry_UnregisterGraphicForCanvas_m820096873
DHc:__Z28Font_Get_Custom_PropMaterialP12Il2CppObject
dyg:__ZL65EventTrigger_t1967201810_CustomAttributesCacheGenerator_delegatesP21CustomAttributesCache
SSe:_Collection_1_Remove_m4136193368_gshared
z8c:_EventTrigger_OnPointerUp_m2791622548
ych:_Shadow_set_useGraphicAlpha_m141905402
I5b:__ZN22BlockMemoryCacheWriter14LockCacheBlockEjPPhS1_
Y8i:__ZN6il2cpp2os6Thread10RunWrapperEPv
Jqc:__Z22TransferField_NonArrayI8JSONRead27Converter_SimpleNativeClassI8GUIStyleEEvRK23StaticTransferFieldInfoR31RuntimeSerializationCommandInfoRT0_
Hg:_llvm_eh_typeid_for
h_b:__Z13RegisterClassI10GameObjectEvv
CGi:__ZNK15dense_hashtableINSt3__24pairIK10KeyWrapperIN6il2cpp5utils13dynamic_arrayIPK10Il2CppTypeLj4EEEEPFvvEEESA_NS3_8metadata19Il2CppSignatureHashEN14dense_hash_mapISA_SD_SG_NSA_14EqualsComparerINSF_22Il2CppSignatureCompareEEENS0_9allocatorISE_EEE9SelectKeyESK_SM_E5beginEv
c5f:__ZL53HashValues_t2390200547_CustomAttributesCacheGeneratorP21CustomAttributesCache
Mmf:_X509BasicConstraintsExtension_get_PathLengthConstraint_m3004531343
Cy:__ZNK23AnimationPlayableOutput7GetTypeEv
Ugi:_GUIUtility_BeginGUI_m2381890998
uwe:_MissingMemberException__ctor_m4277447068
yEe:_List_1_Find_m1881447651_gshared
J7b:__Z26scripting_class_has_parent17ScriptingClassPtrS_
byb:__Z18Transfer_BlittableI18StreamedBinaryReadILb0EELb1E8Vector4fEvRK29SerializationCommandArgumentsR31RuntimeSerializationCommandInfo
n7i:__ZN6il2cpp2vm6Method8GetParamEPK10MethodInfoj
coe:_Int64_CompareTo_m1953686218
Myj:_glBindVertexArray__wrapper
jVc:_DSA_Create_m3450041777
JQa:__ZN8Material8TransferI14SafeBinaryReadEEvRT_
ITa:__ZN12CubemapArray17UploadToGfxDeviceEv
Rah:_ScrollRect_AdjustBounds_m1033723448
iWb:__ZN18ScreenManagerWebGL13SetShowCursorEb
Y3:__ZN13RuntimeStaticI21AssetReferenceStorageLb0EE16StaticInitializeEPv
ynf:_X509Chain_CheckRevocationOnChain_m2441901351
Tbj:__ZN6il2cpp2vm13ManagedObject14QueryInterfaceERK10Il2CppGuidPPv
WKf:_Type_GetMethod_m3650909507
HG:__ZN11AudioSource4StopEb
Ykj:_frexp
Inb:__ZN14SafeBinaryRead21TransferSTLStyleArrayI13dynamic_arrayI10Matrix4x4fLj4EEEEvRT_17TransferMetaFlags
EWe:_Collection_1_CheckWritable_m732350052_gshared
kJa:__ZN15LODGroupManager26CollectAllLODGroupManagersERK16CoreCameraValuesR13dynamic_arrayIPS_Lj4EEb
Oud:_Byte_System_IConvertible_ToDecimal_m1036493607
IDb:__Z25GetSplashScreenBackgroundRK5RectTIfE
Twh:_InternalEnumerator_1_System_Collections_IEnumerator_get_Current_m1679297177_gshared
dGh:_DefaultComparer_Compare_m1247109616_gshared
mIh:_ResourceManager__ctor_m498829021
hsa:__ZN18GlslGpuProgramGLESD2Ev
IVb:__ZN13RenderTexture14SetVolumeDepthEi
a0g:__Z88RuntimeInvoker_Int32_t2071877448_UIVertex_t1204258818_UIVertex_t1204258818_RuntimeObjectPFvvEPK10MethodInfoPvPS4_
Oyf:_SerializationCallbacks__ctor_m722356782
nrc:__ZN10Matrix4x4f8TransferI8JSONReadEEvRT_
Btc:__ZN14SafeBinaryRead21TransferSTLStyleArrayI13dynamic_arrayIN4core17string_with_labelILi35EEELj4EEEEvRT_17TransferMetaFlags
__:__ZN17PersistentManager18ReadObjectThreadedEi
tea:__ZN25TransformFeedbackSkinning31CleanupTransformFeedbackShadersEv
$Ia:__Z22scripting_object_unbox18ScriptingObjectPtr
Fuc:__ZNK20TextRenderingPrivate8FontImpl19GetCharacterAdvanceEjijfPj
Yhj:__ZN6il2cpp6icalls8mscorlib4Mono8Security12Cryptography18KeyPairPersistence16_IsUserProtectedEP12Il2CppString
kjf:_DefaultUriParser__ctor_m4218024811
HSf:_DerivedType_GetField_m3960169619
GMd:_Decimal_System_IConvertible_ToInt16_m3159038792_AdjustorThunk
B_a:__ZN10VertexData8TransferI18StreamedBinaryReadILb0EEEEvRT_
jfe:_PKCS12_GetExistingParameters_m2413397265
Rvi:_Nullable_1_get_Value_m1743067844_gshared
l7a:__ZN14PreloadManager16UpdatePreloadingEv
p9i:__ZN14dense_hash_mapI10KeyWrapperIPK19Il2CppGenericMethodEP10MethodInfoN6il2cpp8metadata23Il2CppGenericMethodHashENS4_14EqualsComparerINS8_26Il2CppGenericMethodCompareEEENSt3__29allocatorINSD_4pairIKS4_S6_EEEEEC2EjRKS9_RKSC_
YWh:_Color32_op_Implicit_m3337994915
cV:__ZNK21UnityDefaultAllocatorI17LowLevelAllocatorE8ContainsEPKv
Rh:_emscripten_get_main_loop_timing
vqe:_DirectoryInfo__ctor_m3750996792
cdd:_BaseMeshEffect_ModifyMesh_m2134816219
MYa:__ZN24GenerateTypeTreeTransfer21TransferSTLStyleArrayINSt3__26vectorIN15QualitySettings14QualitySettingENS1_9allocatorIS4_EEEEEEvRT_17TransferMetaFlags
r3a:__ZNSt3__26vectorI9InputAxisNS_9allocatorIS1_EEE6resizeEj
BKb:__ZN13BatchRendererC2ER15RenderLoopStatsRK15RenderNodeQueuebbb
A0c:_SecurityElement_IsValidAttributeValue_m483287146
Agb:__ZNK2UI13RectTransform22GetTypeVirtualInternalEv
$o:getTempRet0
Eld:_Image_AddQuad_m1603575622
H7e:_PrivateKeyInfo_RemoveLeadingZero_m3396807048
x_i:__ZN6il2cpp6icalls8mscorlib6System9ThreadingL21lookup_cached_cultureEP12Il2CppThreadi
UQb:__ZN18DeferredRenderLoopD2Ev
Yua:__ZNK16TypeTreeIterator4NameEv
_oi:_PCMReaderCallback_Invoke_m877950113
j2:__ZN15FileSystemEntry3SetEPKc
_Wc:_MACTripleDES__ctor_m884945242
p9h:_RenderTexture_get_height_m428170183
tac:__Z52Register_UnityEngine_Application_set_targetFrameRatev
fgi:_GUILayoutGroup_SetHorizontal_m4089360220
uI:__ZN20SoundChannelInstance15ParameterBuffer5ApplyEPN4FMOD7ChannelE
Cuc:__ZN20TextRenderingPrivate19NativeTextGenerator9InsertTabEv
T0a:__ZN14SafeBinaryRead21TransferSTLStyleArrayI13dynamic_arrayI16BlendShapeVertexLj4EEEEvRT_17TransferMetaFlags
LOc:__ZN11UnityEngine15PlatformWrapper24GetRuntimePlatformStringEv
Ai:_glIsEnabled
ymb:__Z25scripting_class_get_image17ScriptingClassPtr
p5h:_PlayableAsset_Internal_CreatePlayable_m2166162235
V6a:__ZNSt3__26vectorIN4core12basic_stringIcNS1_20StringStorageDefaultIcEEEE13stl_allocatorIS5_L18MemLabelIdentifier13ELi16EEEC2INS_11__wrap_iterIPS5_EEEET_SE_RKS8_PNS_9enable_ifIXaasr21__is_forward_iteratorISE_EE5valuesr16is_constructibleIS5_NS_15iterator_traitsISE_E9referenceEEE5valueEvE4typeE
Ei:_emscripten_glDrawElementsInstanced
sx:__ZN26AnimatorControllerPlayable27SetupStateMachineBehavioursEv
h6e:_ARC4Managed_Dispose_m4102232694
B6e:_HMAC_Initialize_m3052649104
Zlf:_OidCollection_get_Item_m1091387424
vgb:__ZN9Transform17MainThreadCleanupEv
wej:_GC_clear_hdr_marks
Mtj:_glScissor__wrapper
Izj:_emscripten_glCreateShader__wrapper
tCc:_cff_fd_select_get
I8f:__ZL73CompilationRelaxationsAttribute_t238494011_CustomAttributesCacheGeneratorP21CustomAttributesCache
k7d:_MSCompatUnicodeTable_GetTailoringInfo_m2792223347
Aif:_NameObjectCollectionBase_get_Keys_m446053925
Pi:_emscripten_glGetShaderiv
uJ:__ZN4FMOD6System10getVersionEPj
KYd:_Array_InternalArray__IndexOf_TisSByte_t454417549_m1427585061_gshared
mIc:__ZN2UI6Canvas23VirtualRedirectTransferER24GenerateTypeTreeTransfer
uEd:_Decimal_u64_m3991988111
swi:_Predicate_1_BeginInvoke_m2959352225_gshared
P2h:_X509Certificate_Parse_m1764345628
ENh:_SynchronizationAttribute_GetClientContextSink_m1264319894
Roc:__ZN9JSONWrite8TransferIN4math12int2_storageEEEvRT_PKc17TransferMetaFlags
ntc:__ZN13TextRendering4Font13AwakeFromLoadE17AwakeFromLoadMode
F$h:_Mathf_Pow_m1117712374
HWg:__Z70RuntimeInvoker_Void_t1841601450_Guid_t_RuntimeObject_Int32_t2071877448PFvvEPK10MethodInfoPvPS4_
iba:__ZN9GfxDevice21ReleaseSharedMeshDataEP14SharedMeshData
g4a:__ZNSt3__27__sort5IRNS_6__lessINS_4pairIPKN5Unity4TypeE7Hash128EES8_EEPS8_EEjT0_SC_SC_SC_SC_T_
LTe:_Collection_1_ConvertItem_m3168406667_gshared
Ddj:_GC_unreachable_finalize_mark_proc
Zdi:_WaitForSecondsRealtime_get_keepWaiting_m4138104467
EZg:__Z70RuntimeInvoker_Single_t2076509932_Int32_t2071877448_Single_t2076509932PFvvEPK10MethodInfoPvPS4_
yec:__Z43RectTransform_CUSTOM_INTERNAL_get_anchorMaxP12Il2CppObjectP13Vector2fIcall
GIg:__Z50RuntimeInvoker_Void_t1841601450_Single_t2076509932PFvvEPK10MethodInfoPvPS4_
FLd:_DateTimeOffset_get_DateTime_m229084964_AdjustorThunk
TVa:__ZN8Material28UpdateHashesOnPropertyChangeEN9ShaderLab16FastPropertyNameE
gfc:__Z53Register_UnityEngine_SortingLayer_GetLayerValueFromIDv
Rpe:_DirectoryInfo_get_Parent_m1198766078
Wzd:_CaseInsensitiveComparer_Compare_m1192858479
qlb:__Z18Transfer_BlittableI14SafeBinaryReadLb1E8Vector4fEvRK29SerializationCommandArgumentsR31RuntimeSerializationCommandInfo
Zpd:_LayoutRebuilder_Clear_m2390054824
uda:__ZN13GfxDeviceGLES20SetComputeBufferDataE15ComputeBufferIDPKvjj
UQf:_Default_SelectMethod_m622251293
wL:__ZN11AudioSource12AddToManagerEv
Q8c:_ExecuteEvents_Execute_m1429058057
Zy:__ZN11UnityEngine9Animation32CreateAnimatorGenericBindingsOptERKNS0_20AnimationSetBindingsER9TransformPKN7mecanim9animation14AvatarConstantEPKNS0_21AvatarBindingConstantEbRNS6_6memory9AllocatorER8Animator
X1i:__ZN6il2cpp2vm5Image13ClassFromNameEPK11Il2CppImagePKcS6_
Xpj:dynCall_vdddddd
ldb:__ZN24GenerateTypeTreeTransfer21TransferSTLStyleArrayINSt3__26vectorIN9ShaderLab14SerializedPassENS1_9allocatorIS4_EEEEEEvRT_17TransferMetaFlags
RZ:__ZL32MarkLevelGameManagerDependenciesR27GarbageCollectorThreadState
Bda:__ZNK13GfxDeviceGLES26HasActiveRandomWriteTargetEv
Duj:_glGetActiveUniformsiv__wrapper
dfc:__Z43Register_UnityEngine_Material_EnableKeywordv
g0:__ZN13MonoBehaviour19SetupScriptingCacheE17ScriptingClassPtrP10MonoScript
er:__Z20AnimationEventToMonoRK14AnimationEventR18MonoAnimationEvent
w$:__ZN17PersistentManager29ReadAndActivateObjectThreadedEiRK26SerializedObjectIdentifierP14SerializedFilebb
Ahh:_ShimEnumerator_get_Current_m3610131784_gshared
dsg:__ZL74UnityEventBase_t828812576_CustomAttributesCacheGenerator_m_PersistentCallsP21CustomAttributesCache
D6:__ZZN15DirectorManager15InitializeClassEvEN52PreLateUpdateDirectorUpdateAnimationBeginRegistrator7ForwardEv
v0i:__ZN6il2cpp2vm13LivenessState18ShouldProcessValueEP12Il2CppObjectP11Il2CppClass
f5g:__Z49RuntimeInvoker_UIVertex_t1204258818_RuntimeObjectPFvvEPK10MethodInfoPvPS4_
W$h:_Matrix4x4_GetHashCode_m375571566
ghi:_InvokableCall_1__ctor_m1584932671_gshared
Icb:__ZNSt3__26vectorIN9ShaderLab14SerializedPassENS_9allocatorIS2_EEE8__appendEj
Zbb:__ZNSt3__26vectorIN9ShaderLab20SerializedSubProgram13BufferBindingENS_9allocatorIS3_EEEC2INS_11__wrap_iterIPS3_EEEET_SB_RKS5_PNS_9enable_ifIXaasr21__is_forward_iteratorISB_EE5valuesr16is_constructibleIS3_NS_15iterator_traitsISB_E9referenceEEE5valueEvE4typeE
OZg:__Z133RuntimeInvoker_RuntimeObject_Vector2_t2243707579_Vector2_t2243707579_Single_t2076509932_Int32_t2071877448_RuntimeObject_RuntimeObjectPFvvEPK10MethodInfoPvPS4_
AVa:__ZN9Texture2D23VirtualRedirectTransferER18StreamedBinaryReadILb0EE
TAi:_Animator_get_hasBoundPlayables_m2257984562
ZOd:_Double_System_IConvertible_ToUInt16_m286326038_AdjustorThunk
Wwf:_TypeInfo__ctor_m1475908211
stg:__ZL73g_UnityEngine_TextRenderingModule_Assembly_CustomAttributesCacheGeneratorP21CustomAttributesCache
P0:__ZN16ScriptingManager27NativeTypeForScriptingClassE17ScriptingClassPtr
znf:_X509Chain_WrapUp_m1072032285
i4h:_X509CertificateEnumerator_System_Collections_IEnumerator_MoveNext_m1448966539
zzc:_get_sfnt_table
gbf:_TlsServerHelloDone__ctor_m2125611008
P9c:_PointerEventData_set_pressPosition_m2094137883
aCf:_DES_get_Key_m2584608215
nSb:__ZL22ScheduleSceneNodesJobsP25ScheduleSceneNodesJobDataj
Dk:_emscripten_set_canvas_size
V4e:_BigInteger_op_Subtraction_m972393015
pcb:__ZNSt3__26vectorIN9ShaderLab20SerializedSubProgramENS_9allocatorIS2_EEE8__appendEj
MV:__ZN20DynamicHeapAllocatorI17LowLevelAllocatorE8AllocateEji
aLb:__ZN20DynamicPropertySheet15SetVectorQueuedERKN9ShaderLab16FastPropertyNameERK8Vector4fN19ShaderPropertySheet8SetFlagsE
m5c:_String_Format_m1263743648
F$e:_ReadOnlyCollection_1_System_Collections_IEnumerable_GetEnumerator_m4248982967_gshared
$z:__ZN7mecanim9animation22EvaluateAvatarRetargetEPKNS0_14AvatarConstantEPKNS0_11AvatarInputEPNS0_12AvatarOutputEPNS0_12AvatarMemoryEPNS0_15AvatarWorkspaceEb
ENa:__ZN14RenderSettings23VirtualRedirectTransferER19StreamedBinaryWriteILb0EE
onc:__ZL26Transfer_SimpleNativeClassI9JSONWrite10RectOffsetLb0EEvRK29SerializationCommandArgumentsR31RuntimeSerializationCommandInfo
F0a:__ZN14SafeBinaryRead21TransferSTLStyleArrayI13dynamic_arrayI12BoneWeights4Lj16EEEEvRT_17TransferMetaFlags
Xdj:_GC_push_conditional
Cha:__ZN17GenericDynamicVBO10AllocateVBEjR21DynamicVBOChunkHandle
PFe:_List_1_get_Item_m1547593893_gshared
gqe:_Path_GetPathRoot_m1269357080
y3i:__ZN30dense_hashtable_const_iteratorI10KeyWrapperIP18Il2CppGenericClassES3_N6il2cpp8metadata22Il2CppGenericClassHashEN14dense_hash_setIS3_S6_NS3_14EqualsComparerINS5_25Il2CppGenericClassCompareEEENSt3__29allocatorIS3_EEE8IdentityESA_SD_EppEv
c8c:_EventSystem_SetSelectedGameObject_m2211816110
bl:_glMapBufferRange
sVa:__ZN9Texture2D8TransferI18StreamedBinaryReadILb0EEEEvRT_
gdc:__Z31Input_CUSTOM_GetMouseButtonDowni
rec:__Z75Register_UnityEngine_Playables_PlayableHandle_INTERNAL_CALL_IsValidInternalv
D4b:__ZN13PlayableGraph4PlayEv
fEa:__ZNK9Transform16GetLocalPositionEv
aya:__ZN13LoadOperation19IntegrateTimeSlicedEi
euh:_ArrayReadOnlyList_1_get_Item_m176001975_gshared
Qfe:_X501__cctor_m3795360380
Mda:__ZN13GfxDeviceGLES22DispatchComputeProgramE12ObjectHandleI18ComputeProgram_TagPvE15ComputeBufferIDj
sHd:_Convert_ToInt32_m2297793940
K8a:__Z17TransformAABBSlowRK4AABBRK10Matrix4x4fRS_
lnf:_X509Chain_Build_m1140429528
_ab:__ZN9ShaderLab21SerializedShaderState8TransferI14SafeBinaryReadEEvRT_
Evi:_Terminal_NotifyCommandHandlers_m2901839470
DZc:_RSAPKCS1SignatureFormatter_SetKey_m2365816458
oDc:_cf2_stack_pushInt
Z5h:_PropertyName__ctor_m4147171238_AdjustorThunk
FGf:_CompressedStack__ctor_m276924800
r9c:_ExecuteEvents_get_cancelHandler_m1964324668
wRa:__ZN15SerializeTraitsINSt3__24pairIN4core12basic_stringIcNS2_20StringStorageDefaultIcEEEES6_EEE8TransferI24GenerateTypeTreeTransferEEvRS7_RT_
bxj:b89
axj:b88
x$h:_Mathf_Sin_m712860563
fdi:_Vector3_Dot_m827632793
Cwj:b81
Bwj:b80
Jpa:__ZN7ApiGLES19CreateSparseTextureEjj14GraphicsFormatiiiiRiS1_S1_
z1:__ZN18ResourceImageGroup7CleanupEv
Vwj:b85
Uwj:b84
Xwj:b87
Wwj:b86
T1g:__Z68RuntimeInvoker_Void_t1841601450_Int32_t2071877448_Double_t4078015681PFvvEPK10MethodInfoPvPS4_
J2b:__ZN13ProduceHelperI4MeshLb0EE7ProduceE18MemLabelIdentifier18ObjectCreationMode
F7e:_PrivateKeyInfo_Decode_m1053025782
Tee:_PKCS12_Decrypt_m2457743414
OSa:__ZN8Playable19SetOutputConnectionEPS_i
IDi:__ZN15dense_hashtableINSt3__24pairIK10KeyWrapperIPK11Il2CppClassEPKcEES6_N6il2cpp5utils11PointerHashIS3_EEN14dense_hash_mapIS6_S9_SE_NS6_14EqualsComparerINS0_8equal_toIS5_EEEENS0_9allocatorISA_EEE9SelectKeyESJ_SL_EC2ERKSO_j
Ql:_glDeleteShader
QQd:_Exception_GetType_m3898489832
Bla:__ZN6prcoreL17RemapGenericFloatI15TexFormatRGHalf16TexFormatRGFloatEEvPKNS_9InnerInfoE
uPe:_Stack_1_Peek_m1548778538_gshared
dgi:_GUILayoutUtility_get_spaceStyle_m4248899869
vch:_Shadow_set_effectColor_m3110056844
V8b:__Z27scripting_add_internal_callPKcPKv
o0d:_Array_InternalArray__Insert_TisUriScheme_t1876590943_m2728325409_gshared
uWi:__ZN13Il2CppHashMapINSt3__24pairIPK9EventInfoP11Il2CppClassEEj17ReflectionMapHashIS7_ENS0_8equal_toIS7_EENS0_9allocatorINS1_IK10KeyWrapperIS7_EjEEEEEC2EjRKS9_RKSB_
v4h:_X509Store_CheckStore_m1027496478
vs:__ZN26AnimatorControllerPlayable18SetLayerAutoWeightEv
ENc:__Z44Register_UnityEngine_Canvas_get_pixelPerfectv
W4c:_String_Contains_m4017059963
LFh:_DefaultComparer_Compare_m1606207039_gshared
RKc:__ZN2UI14CanvasRenderer12SyncMaterialENS0_8SyncFlagE
Qhj:__ZN6il2cpp2vm9Parameter30GetDefaultParameterValueObjectEPK10MethodInfoPK13ParameterInfoPb
b1d:_Array_InternalArray__set_Item_TisLabelData_t3712112744_m2253365137_gshared
wef:_RecordProtocol_InternalReceiveRecordCallback_m2228921492
uue:_StringReader__ctor_m643998729
bkf:_IPv6Address_TryParse_m2220524278
pzc:_UNITY_tt_face_done_kern
tMh:_Context_get_DefaultContext_m2211922324
h1a:__ZN12BoneWeights48TransferI24GenerateTypeTreeTransferEEvRT_
W7e:_RSAManaged_GetPaddedValue_m2972141669
ebh:_ScrollRect_OnDrag_m1424848249
bDb:__Z19scripting_gc_enablev
xGb:__ZZ23InitPlayerLoopCallbacksvEN41InitializationPlayerUpdateTimeRegistrator7ForwardEv
vRh:_AnchorInfo__ctor_m617409099
FMc:__Z55Register_UnityEngine_CanvasRenderer_DisableRectClippingv
Urf:_Interval_CompareTo_m2909556284_AdjustorThunk
G0a:__ZN14SafeBinaryRead21TransferSTLStyleArrayI13dynamic_arrayI11ColorRGBA32Lj4EEEEvRT_17TransferMetaFlags
Lqf:_Interpreter_GetLastDefined_m2450713313
OQh:_Parser_ParseAssertionType_m3316669790
Veb:__ZN9ShaderLab7Program27CreateFromSerializedProgramERKNS_17SerializedProgramE10ShaderTypeiP16PropertyNamesSetPK6Shader
Ybh:_Selectable_get_isPointerDown_m774209881
pgb:__ZNSt3__27__sort4IRNS_6__lessIN4core12basic_stringIcNS2_20StringStorageDefaultIcEEEES6_EEPS6_EEjT0_SA_SA_SA_T_
Bqj:dynCall_viiiifii
YUi:__ZN6il2cpp2gc19AppendOnlyGCHashMapINSt3__24pairIPK11Il2CppImageP11Il2CppClassEEP22Il2CppReflectionModule17ReflectionMapHashIS9_ENS2_8equal_toIS9_EEEC2Ev
X_:__Z20GetPersistentManagerv
tGc:_UNITY_TT_Set_Var_Design
CX:__ZN21SystemInfoStringCache16StaticInitializeEPv
r9e:_TlsStream__ctor_m4117943603
LRi:__ZN15dense_hashtableINSt3__24pairIK10KeyWrapperIPK10Il2CppTypeEjEES6_N6il2cpp8metadata14Il2CppTypeHashEN14dense_hash_mapIS6_jSB_NS6_14EqualsComparerINSA_26Il2CppTypeEqualityComparerEEENS0_9allocatorIS8_EEE9SelectKeyESF_SH_E12maybe_shrinkEv
Ndh:_Text_FontTextureChanged_m4236993972
o8i:__ZN6il2cpp2gc16GarbageCollector23MakeDescriptorForObjectEPji
B$f:_ParameterModifier_t1820634920_marshal_pinvoke
pAb:__ZNK13MonoBehaviour7GetNameEv
Q9a:__ZN19ScriptingInvocation28AdjustArgumentsToMatchMethodEv
K3i:__ZN15dense_hashtableI10KeyWrapperIP18Il2CppGenericClassES3_N6il2cpp8metadata22Il2CppGenericClassHashEN14dense_hash_setIS3_S6_NS3_14EqualsComparerINS5_25Il2CppGenericClassCompareEEENSt3__29allocatorIS3_EEE8IdentityESA_SD_E6insertERKS3_
iG:__Z15_CheckFMODError11FMOD_RESULTPKciS1_
TLa:__Z20RenderMultipleMeshesRK15RenderNodeQueueRK18RenderMultipleData17ShaderChannelMask
HPi:__ZN6il2cpp2vm4Type19GetGenericParameterEPK10Il2CppType
fMc:__Z51Register_UnityEngine_CanvasGroup_get_blocksRaycastsv
eEh:_InternalEnumerator_1_get_Current_m2826780083_gshared
BUd:_Array_InternalArray__ICollection_Remove_TisCustomAttributeNamedArgument_t94157543_m2838387005_gshared
rd:_glBeginQuery
OPf:_Assembly_GetCustomAttributes_m95309865
VHb:__ZN6Camera12RenderStereoENS_10RenderFlagE8CullFlagPNS_24PerformEyeRenderFunctionE
Eib:__ZN20LocalFileSystemPosix10ToAbsoluteEPKc
Wjd:_GridLayoutGroup__ctor_m1099847132
XW:__GLOBAL__sub_I_runtime_input_0_cpp
gQd:_Enum_ToObject_m275924358
xm:f0
ayd:_ArrayListWrapper_set_Capacity_m2792463350
Tlj:_getcwd
JEf:_StringBuilder_Append_m1128243247
kxa:__ZN25ThreadsafeLinearAllocatorD2Ev
gJd:_DateTime_get_Year_m1985210972
d8a:__Z21SendMessageToEveryoneRK17MessageIdentifier11MessageData
G4:__ZN21BillboardBatchManager16StaticInitializeEPv
VY:__ZN12_GLOBAL__N_138ArchiveRedirectFileSystemStaticDestroyEPv
HQd:_EventHandler_Invoke_m1137722757
FTa:__ZN12CubemapArray34UpdateFileTextureUploadInstructionEP26FileAssetUploadInstructionj
Rxe:_MonoType_IsSubclassOf_m2211166238
eTe:_Collection_1_System_Collections_ICollection_CopyTo_m2859266050_gshared
Ipa:__Z23CreateSparseTextureGLES9TextureIDii14GraphicsFormati
Gej:_GC_continue_reclaim
cpe:_InvalidCastException__ctor_m2730571470
epf:_X509ChainElementCollection_System_Collections_IEnumerable_GetEnumerator_m2559704689
umf:_PublicKey_get_Key_m126090744
vvc:__ZNSt3__23mapIN20TextRenderingPrivate7FontRefEP11FT_FaceRec_NS_4lessIS2_EENS_9allocatorINS_4pairIKS2_S4_EEEEEixERS9_
xza:__ZN17ArchiveFileSystem10AddStorageEP20ArchiveStorageReader
bId:_Convert_ToSingle_m690748777
Drh:_EqualityComparer_1_System_Collections_IEqualityComparer_GetHashCode_m1203798961_gshared
VBi:__ZN6il2cpp2vm5Class15GetEnumBaseTypeEP11Il2CppClass
IUa:__ZNK9Texture2D16GetNpotTexelSizeEv
k6g:_Mask_get_rectTransform_m3304369086
IWg:__Z78RuntimeInvoker_Void_t1841601450_ScriptableRenderContext_t4271526_RuntimeObjectPFvvEPK10MethodInfoPvPS4_
Hha:__ZN9GfxDevice22GetDefaultVertexBufferE26GfxDefaultVertexBufferTypej
a$e:_ReadOnlyCollection_1_System_Collections_ICollection_CopyTo_m1129689124_gshared
jmj:___fseeko_unlocked
wwj:_glGetActiveUniform__wrapper
bmj:_sscanf
V0a:__ZN14SafeBinaryRead21TransferSTLStyleArrayINSt3__26vectorI17BlendShapeChannelNS1_9allocatorIS3_EEEEEEvRT_17TransferMetaFlags
bEb:__Z17BeginSplashScreenv
Zdb:__ZN9ShaderLab16SerializedShader8TransferI19StreamedBinaryWriteILb0EEEEvRT_
pMf:_UInt32_Parse_m2400360707
uC:__ZN7mecanim9animation18CreateAvatarMemoryEPKNS0_14AvatarConstantERNS_6memory9AllocatorE
HDd:_Stack_Pop_m3788808882
$Hh:_Enumerator_VerifyCurrent_m4246196125_AdjustorThunk
fLd:_DateTime_op_Equality_m1867073872
jB:__ZN7mecanim8skeleton16SkeletonPoseCopyIN4math4trsXENS2_7affineXEEEvPKNS0_13SkeletonPoseTIT_EEPNS5_IT0_EE
mha:__ZN18GfxFramebufferGLES18GetFramebufferNameERK20GfxRenderTargetSetup
Fjc:__Z30Event_Get_Custom_PropCharacterP12Il2CppObject
Y5:__ZN13PlayableGraph27SchedulePlayableDestructionERK9HPlayable
Gtj:_glGetFramebufferAttachmentParameteriv__wrapper
JSc:__Z13RegisterClassI20UnityConnectSettingsEvv
vmb:__Z22scripting_array_length17ScriptingArrayPtr
w0c:_SecurityElement_GetAttribute_m4288291176
hki:_IndexedSet_1_get_Count_m2839545138_gshared
TTa:__ZN14SafeBinaryRead20TransferTypelessDataEjPvi
L8f:__ZL66StringFreezingAttribute_t2691375565_CustomAttributesCacheGeneratorP21CustomAttributesCache
NM:__ZN13dynamic_arrayI12SoundChannelLj4EE9push_backERKS0_
hpa:__Z19GetActiveColorSpacev
Wrh:_EqualityComparer_1__cctor_m1672307556_gshared
svf:_SoapTypeAttribute_get_IsInteropXmlElement_m2941294827
Iyc:_UNITY_tt_face_load_kern
zCe:_Enumerator_System_Collections_IEnumerator_get_Current_m3542273247_gshared
rwd:_Char_System_IConvertible_ToUInt32_m1557991717_AdjustorThunk
ODf:_Encoding_get_UTF8Unmarked_m628720656
Wle:_NumberFormatter_RoundBits_m1545255255
nY:__Z6StrCmpPKcS0_
Dfb:__Z21CheckGpuProgramUsable20ShaderGpuProgramType
DQf:_Binder__cctor_m3736115807
w7i:__ZN6il2cpp2os9Directory20GetFileSystemEntriesERKNSt3__212basic_stringIcNS2_11char_traitsIcEENS2_9allocatorIcEEEESA_iiPi
Y$g:__Z84RuntimeInvoker_Int32_t2071877448_Color32_t874517518_Color32_t874517518_RuntimeObjectPFvvEPK10MethodInfoPvPS4_
gph:_Dictionary_2_OnDeserialization_m2160537783_gshared
uuc:__ZN20TextRenderingPrivate19NativeTextGenerator5SetupEv
APb:__ZNK15SharedLightData24GetFinalShadowResolutionEv
k5a:__ZN12AspectRatios8TransferI18StreamedBinaryReadILb0EEEEvRT_
c4b:__ZN10GameObject14CopyPropertiesERS_
tkc:__Z44Register_UnityEngine_GUIStyle_get_fixedWidthv
bZc:_RSACryptoServiceProvider_Common_m2581564813
X8h:_Vector2_Scale_m2260641886
use:_MemoryStream_CheckIfClosedThrowDisposed_m2253054610
Cuh:_ArrayReadOnlyList_1_GetEnumerator_m634288642_gshared
zZa:__ZNK13ScreenManager12IsFullScreenEv
Emj:_rand
huj:_emscripten_glFramebufferRenderbuffer__wrapper
dWg:__Z72RuntimeInvoker_Boolean_t3825574718_Ray_t2469606224_SingleU26_t4173844468PFvvEPK10MethodInfoPvPS4_
Y7i:__ZN6il2cpp5utils9PathUtils7CombineIcEENSt3__212basic_stringIT_NS3_11char_traitsIS5_EENS3_9allocatorIS5_EEEERKNS0_10StringViewIS5_EERKSA_
rnb:__ZN14SafeBinaryRead21TransferSTLStyleArrayINSt3__26vectorI17AnimationCurveTplIfE13stl_allocatorIS4_L18MemLabelIdentifier1ELi16EEEEEEvRT_17TransferMetaFlags
iyf:_ObjectManager_RegisterObject_m872610295
YRb:__Z22PrepareOptimizedPlanesPK5PlaneiPKN4math7_float4E
Z7h:_RectOffset_t3387826427_marshal_pinvoke
Kid:_Graphic_SetVerticesDirty_m1607014370
AU:__ZN11UnityEngine15CloudWebService17WebFileDownloaderINS0_20WebRequestRestClientENS0_23WebRequestRestHeaderMapEE10InitializeERKN4core12basic_stringIcNS5_20StringStorageDefaultIcEEEE
E4:__ZN17UniqueIDGenerator15CreatePureIndexEv
Or:__ZN11UnityEngine9Animation28GenericAnimationBindingCache15DidReloadDomainEv
bhe:_AppDomain_InternalGetProcessGuid_m1278588156
Znd:_InputField_MoveRight_m386206014
$5a:__ZNSt3__26vectorIN15ResourceManager10DependencyE13stl_allocatorIS2_L18MemLabelIdentifier52ELi16EEE6assignINS_11__wrap_iterIPS2_EEEENS_9enable_ifIXaasr21__is_forward_iteratorIT_EE5valuesr16is_constructibleIS2_NS_15iterator_traitsISC_E9referenceEEE5valueEvE4typeESC_SC_
FJg:__Z116RuntimeInvoker_Boolean_t3825574718_RuntimeObject_Int32_t2071877448_RuntimeObject_Int32_t2071877448_Int32_t2071877448PFvvEPK10MethodInfoPvPS4_
ype:_BinaryReader_ReadBoolean_m2892291883
jBi:__ZN15dense_hashtableINSt3__24pairIK10KeyWrapperIPK22Il2CppGenericParameterEP11Il2CppClassEES6_N6il2cpp5utils11PointerHashIS4_EEN14dense_hash_mapIS6_S9_SE_NS6_14EqualsComparerINS0_8equal_toIS5_EEEENS0_9allocatorISA_EEE9SelectKeyESJ_SL_E14squash_deletedEv
Phc:__Z14GUIClipTextureP9Texture2DPhiiii
HAi:_AnimatorControllerPlayable__ctor_m4080566273
pdf:_TlsServerCertificate_validateCertificates_m1988583701
VFa:__ZNK9Transform18TransformDirectionERK8Vector3f
izj:_emscripten_glClearStencil__wrapper
wHi:__ZN15dense_hashtableINSt3__24pairIK10KeyWrapperIPK11Il2CppClassEPKcEES6_N6il2cpp5utils11PointerHashIS3_EEN14dense_hash_mapIS6_S9_SE_NS6_14EqualsComparerINS0_8equal_toIS5_EEEENS0_9allocatorISA_EEE9SelectKeyESJ_SL_E12resize_deltaEjj
voj:__ZNK10__cxxabiv120__si_class_type_info27has_unambiguous_public_baseEPNS_19__dynamic_cast_infoEPvi
Wrj:_glTexSubImage3D__wrapper
gqf:_FactoryCache_Add_m2602974721
Gha:__Z30AddDefaultStreamsToMeshBuffersR9GfxDeviceR11MeshBuffersj17ShaderChannelMaskS3_
xY:__ZL16GetInterfaceImpl18UnityInterfaceGUID
Fie:_RegionInfo_construct_internal_region_from_name_m3316088619
mCi:__ZN6il2cpp2vmL17SetupFieldOffsetsENS0_15FieldLayoutKindEP11Il2CppClassjRKNSt3__26vectorIjNS4_9allocatorIjEEEE
mEe:_List_1_System_Collections_IList_get_Item_m936612973_gshared
Paj:__ZN6il2cpp6icalls8mscorlib6System15MonoCustomAttrs27GetCustomAttributesInternalEP12Il2CppObjectP20Il2CppReflectionTypeb
AGc:_UNITY_TT_Set_MM_Blend
_W:__GLOBAL__sub_I_runtime_math_random_0_cpp
syf:_ObjectReader_ReadAssembly_m869834280
mai:_Sprite_INTERNAL_get_textureRect_m127050026
mEb:__ZN14PreloadManager35WaitForAllAsyncOperationsToCompleteEv
qXe:_Collection_1_IsSynchronized_m971497175_gshared
b9c:_ExecuteEvents_Execute_m1617536317
Kdh:_Text_get_cachedTextGeneratorForLayout_m1357670532
PH:__ZL31InitializeAudioScriptingClassesv
jJb:__Z14SortGUIByDepthP10GUIElementS0_
yme:_NumberFormatter_NumberToString_m126384393
Kvj:_emscripten_glVertexAttrib4fv__wrapper
etf:_LogicalCallContext__ctor_m3173272863
TB:__ZN12_GLOBAL__N_120ProcessRootMotionMixER33AnimationPlayableEvaluationOutputR35AnimationPlayableEvaluationConstantR32AnimationPlayableEvaluationInputS1_f
Cwe:_MonoCustomAttrs__cctor_m2608447972
ele:_Int32_FindSign_m3803672540
ejb:__ZNK20LocalFileSystemPosix21GetAvailableDiskSpaceEPKcRy
GX:__ZNSt3__26__treeIiNS_4lessIiEENS_9allocatorIiEEE7destroyEPNS_11__tree_nodeIiPvEE
h9e:_CipherSuite_InitializeCipher_m229247572
vaa:__ZNK9GfxDevice14GetWorldMatrixEv
S_f:_MonoProperty_GetGetMethod_m1100580870
uhb:__Z19scripting_array_new17ScriptingClassPtrjj
BM:__ZN11SoundHandle13CreateChannelEb
iWa:__ZN14SafeBinaryRead21TransferSTLStyleArrayI13dynamic_arrayI12LightmapDataLj4EEEEvRT_17TransferMetaFlags
uhe:_ArgumentException__ctor_m3312963299
wcb:__ZNSt3__26vectorIN9ShaderLab20SerializedSubProgram16TextureParameterENS_9allocatorIS3_EEE6assignIPS3_EENS_9enable_ifIXaasr21__is_forward_iteratorIT_EE5valuesr16is_constructibleIS3_NS_15iterator_traitsISA_E9referenceEEE5valueEvE4typeESA_SA_
aGi:__ZN13Il2CppHashMapIN6il2cpp5utils13dynamic_arrayIPK10Il2CppTypeLj4EEEPFvvENS0_8metadata19Il2CppSignatureHashENS9_22Il2CppSignatureCompareENSt3__29allocatorINSC_4pairIK10KeyWrapperIS6_ES8_EEEEEC2EjRKSA_RKSB_
Kvi:_U3CCreateWhereIteratorU3Ec__Iterator1D_1_MoveNext_m3533253043_gshared
EVi:__ZN15dense_hashtableINSt3__24pairIK10KeyWrapperIPK22Il2CppGenericParameterEPK24MonoGenericParameterInfoEES6_N6il2cpp5utils11PointerHashIS4_EEN14dense_hash_mapIS6_SA_SF_NS6_14EqualsComparerINS0_8equal_toIS5_EEEENS0_9allocatorISB_EEE9SelectKeyESK_SM_E15set_deleted_keyERKSB_
rZb:__ZN6prcoreL11inner_clearILj2EEEvPhjjj
cq:__Z14resize_trimmedINSt3__26vectorIN4core12basic_stringIcNS2_20StringStorageDefaultIcEEEENS0_9allocatorIS6_EEEEEvRT_j
SAe:_Enumerator_System_Collections_IEnumerator_get_Current_m2853089017_AdjustorThunk
Fg:_emscripten_exit_fullscreen
Xld:_InputField_get_mesh_m3276583786
YJh:_GCHandle_Free_m1639542352_AdjustorThunk
G6i:__ZN6il2cpp6icalls8mscorlib6System6String19InternalAllocateStrEi
Prc:__Z29Transfer_Blittable_ArrayFieldI8JSONRead11QuaternionfEvRT_R9ArrayInfoRK23StaticTransferFieldInfo
nbc:__Z45Register_UnityEngine_Camera_get_targetDisplayv
p2b:__ZNK24RendererAnimationBinding15GenerateBindingERKN4core12basic_stringIcNS0_20StringStorageDefaultIcEEEEbRN11UnityEngine9Animation14GenericBindingE
wKa:__Z15GetFlareManagerv
UOh:_Enumerator_System_Collections_IEnumerator_get_Current_m1429268283
lZe:_ReadOnlyCollection_1_System_Collections_Generic_ICollectionU3CTU3E_Clear_m388357963_gshared
Dkj:___toread
uCb:__ZNSt3__26vectorI10vector_mapIiiNS_4lessIiEE13stl_allocatorINS_4pairIiiEEL18MemLabelIdentifier38ELi16EEES4_IS9_LS7_38ELi16EEE26__swap_out_circular_bufferERNS_14__split_bufferIS9_RSA_EE
Yoj:___cxa_is_pointer_type
n5c:_String_Concat_m56707527
VB:__ZN7mecanim9animation16EvaluateAvatarDXEPKNS0_14AvatarConstantEPKNS0_11AvatarInputEPNS0_12AvatarMemoryEPNS0_15AvatarWorkspaceEPNS0_12AvatarOutputE
xoa:__ZN4gles20DestroyRenderSurfaceEP7ApiGLESP17RenderSurfaceGLES
RAe:_Enumerator_System_Collections_IEnumerator_get_Current_m2853089017_gshared
tgc:__Z34Transform_CUSTOM_SetAsFirstSiblingP12Il2CppObject
Mva:__ZN17PersistentManager40GlobalToLocalSerializedFileIndexInternalERK26SerializedObjectIdentifier
BR:__ZN11UnityEngine15CloudWebService17SessionEventQueue14ParseEventDataERKN4core12basic_stringIcNS2_20StringStorageDefaultIcEEEE
N6c:_BaseEventData_get_selectedObject_m3551206992
i8d:_SimpleCollator_CompareOrdinal_m2176988387
rRd:_CCGregorianCalendar_GetYear_m1289900195
wme:_Int16_ToString_m2592645088
Efa:__ZN13TranslateGLES4InitERK12GraphicsCaps16GfxDeviceLevelGL
Nzf:_SerializationInfoEnumerator_Reset_m2206466680
fuj:_emscripten_glGetShaderPrecisionFormat__wrapper
doi:_GenericEqualityComparer_1_Equals_m1934771410_gshared
Rhj:__ZN6il2cpp5utils9Exception26FormatInvalidCastExceptionEPK11Il2CppClassS4_
x0b:__ZN13ProduceHelperI10TagManagerLb0EE7ProduceE18MemLabelIdentifier18ObjectCreationMode
uij:__ZN6il2cpp2os6Memory12AlignedAllocEjj
lcj:__ZN6il2cpp8metadataL7CompareEPK10Il2CppTypeS3_
cSf:_TypeBuilder_get_is_created_m736553860
O7e:_RSAManaged__ctor_m1370411656
Oxb:__Z18Transfer_BlittableI18StreamedBinaryReadILb0EELb1E10ColorRGBAfEvRK29SerializationCommandArgumentsR31RuntimeSerializationCommandInfo
a6h:_PropertyName_op_Equality_m112228798
$8b:__ZL27GetComponentsImplementationILb0ELi0EEbR10GameObjectbRK17CompareParametersRK39GetComponentsImplementation_ReturnValue
aBb:__ZN9Scripting36IsSystemCollectionsGenericDictionaryE17ScriptingClassPtr
E8g:_Raycast3DCallback_EndInvoke_m3234280377
yfd:_ColorTweenCallback__ctor_m3619686788
d2:__ZL16ReadTypeTreeImplILb0EEbR8TypeTreeRK16TypeTreeIteratorRPKhS6_i
Vx:__ZN27AnimationLayerMixerPlayable16SetLayerMaskCopyEjRKN7mecanim6bitsetILj70EEEPKNS0_8skeleton12SkeletonMaskE
jvi:_Hacker_StartGame_m1755528023
VNa:__ZNK22BuiltinResourceManager21GetResourceInstanceIDEPKN5Unity4TypeERKN4core12basic_stringIcNS4_20StringStorageDefaultIcEEEE
$cc:__Z42Register_UnityEngine_RectOffset_set_bottomv
kyd:_ArrayListWrapper_IndexOf_m3574835167
oLb:__ZN28LightProbeProxyVolumeContext8CopyFromERKS_
xEa:__ZN23TransformChangeDispatch32QueueTransformChangeIfHasChangedER18TransformHierarchy
yoa:__ZN7ApiGLES18DeleteRenderbufferERj
cna:__ZL23ProgramUniformMatrix4fvPK7ApiGLESjiihPKv
Koa:__ZN7ApiGLES13CreateTextureEjj14GraphicsFormatiiiii
ecb:__ZN9ShaderLab20SerializedSubProgram15MatrixParameter8TransferI14SafeBinaryReadEEvRT_
b9b:__ZL27GetComponentsImplementationILb0ELi1EEbR10GameObjectbRK17CompareParametersRK39GetComponentsImplementation_ReturnValue
HFc:_Round_Down_To_Grid
xGf:_UTF8Decoder__ctor_m1460357288
Kea:__ZN13RenderTexture7ReleaseEv
mpc:__Z18Transfer_BlittableI8JSONReadLb1EN4math12int3_storageEEvRK29SerializationCommandArgumentsR31RuntimeSerializationCommandInfo
c2a:__ZN10MeshFilter23VirtualRedirectTransferER14SafeBinaryRead
AEd:_Convert_ToByte_m1201588964
m2a:__ZN12MeshRenderer17MainThreadCleanupEv
Vra:__ZN22CreateGpuProgramOutput12CreateParamsEv
ZI:__ZN10ObjectPoolIN4FMOD7ChannelENS0_8ChannelIEE7GetFreeEi
K6f:__ZL55EventBuilder_t2927243889_CustomAttributesCacheGeneratorP21CustomAttributesCache
ufa:__ZNK14GfxContextGLES13GetDefaultFBOEv
MUd:_Array_InternalArray__ICollection_Remove_TisSByte_t454417549_m2474211570_gshared
y8h:_RectTransform_set_anchorMax_m1168582032
W5b:__Z13GetImagePixelI10ColorRGBAfET_PKhii13TextureFormat15TextureWrapModeS5_ii
OMi:_il2cpp_class_is_enum
yhf:_AuthorityKeyIdentifierExtension_get_Identifier_m3535568551
FHa:__ZNSt3__23mapIN9ShaderLab16FastPropertyNameEN18UnityPropertySheet11UnityTexEnvENS_4lessIS2_EENS_9allocatorINS_4pairIKS2_S4_EEEEEixERS9_
Ona:__ZNK13TranslateGLES25GetTextureTargetDimensionEj
H0d:_Array_InternalArray__set_Item_TisByte_t3683104436_m1694926640_gshared
HPh:_PatternCompiler_EmitInfo_m597931026
d5e:_ModulusRing_Multiply_m3113924743
Lfc:__Z47Texture2D_CUSTOM_INTERNAL_CALL_GetPixelBilinearP12Il2CppObjectffR10ColorRGBAf
YZ:__ZN9Scripting12LogExceptionE21ScriptingExceptionPtriPKcb
Fi:_emscripten_glVertexAttrib4f
RYe:_ReadOnlyCollection_1_System_Collections_IEnumerable_GetEnumerator_m531171980_gshared
A1a:__ZN10Matrix4x4f8TransferI19StreamedBinaryWriteILb0EEEEvRT_
c8h:_RectOffset__ctor_m976836251
h3d:_Array_Sort_TisUILineInfo_t3621277874_m3105833015_gshared
kye:_MonoType_GetGenericArguments_m2708198481
sEe:_List_1_AddEnumerable_m2489692396_gshared
Ww:__ZN7mecanim12statemachine24CreateStateMachineMemoryEPKNS0_20StateMachineConstantERNS_6memory9AllocatorE
xjh:_Enumerator_get_Current_m419581838_AdjustorThunk
Yca:__ZN9GfxDevice18SetGlobalDepthBiasEff
bKi:__ZN6il2cpp6icalls8mscorlib6System8MonoType12get_AssemblyEP20Il2CppReflectionType
G6h:_Vector3_get_normalized_m1057036856
Ti:_emscripten_glGetPointerv
JB:__ZN8Animator22ApplyBuiltinRootMotionEv
UDb:__Z26ApplyMaterialPassWithCacheRK18SharedMaterialDataR17ShaderPassContextP6ShaderPN9ShaderLab4PassEibPKNS6_10GrabPassesEPNS6_11SubProgramsEPK22DeviceRenderStateBlock
oUd:_Array_InternalArray__ICollection_Remove_TisKeyValuePair_2_t3716250094_m2566517826_gshared
c1i:__ZN30dense_hashtable_const_iteratorINSt3__24pairIK10KeyWrapperIP14Il2CppIUnknownEjEES5_N6il2cpp5utils11PointerHashIS3_EEN14dense_hash_mapIS5_jSB_NS5_14EqualsComparerINS0_8equal_toIS4_EEEENS0_9allocatorIS7_EEE9SelectKeyESG_SI_EppEv
mYa:__ZN8Renderer23VirtualRedirectTransferER14SafeBinaryRead
gTf:_DerivedType_get_UnderlyingSystemType_m3904230233
sMa:__Z27ConvertSubMeshesToTrianglesR13dynamic_arrayI7SubMeshLj4EERS_ItLj2EE
hCi:__ZN6il2cpp2vmL15GetBitmapNoInitEP11Il2CppClassPjRjj
nof:_X509Certificate2Collection__ctor_m819526826
vH:__ZN12AudioManager5ResetEv
J5g:__Z75RuntimeInvoker_RuntimeObject_Single_t2076509932_RuntimeObject_RuntimeObjectPFvvEPK10MethodInfoPvPS4_
q6e:_KeyBuilder_Key_m3814433741
vhe:_ArgumentException__ctor_m158205422
CXd:_Array_compare_TisVector3_t2243707580_m3709184876_gshared
Akd:_HorizontalLayoutGroup_SetLayoutHorizontal_m3237355818
tB:__ZN7mecanim5human14RetargetToTDoFEPKNS0_5HumanEPNS0_9HumanPoseEPNS_8skeleton13SkeletonPoseTIN4math4trsXEEESB_
V7i:__ZN6il2cpp6icalls8mscorlib6System11Environment20GetWindowsFolderPathEi
hEg:__ZL60AspectRatioFitter_t3114550109_CustomAttributesCacheGeneratorP21CustomAttributesCache
Kv:__ZN7mecanim5human18HumanPoseBlendNodeERNS0_9HumanPoseEPS1_f
Lwc:_UNITY_FT_RoundFix
lfb:__ZN9ShaderLab20SerializedSubProgram15AddTextureParamEPKcii16TextureDimension
GTh:_Uri_get_Parser_m2250631932
o2a:__ZNK12MeshRenderer22GetTypeVirtualInternalEv
Did:_Graphic_set_color_m646149893
KQa:__ZN14SafeBinaryRead19TransferSTLStyleMapINSt3__23mapIN4core12basic_stringIcNS3_20StringStorageDefaultIcEEEES7_NS1_4lessIS7_EE13stl_allocatorINS1_4pairIKS7_S7_EEL18MemLabelIdentifier1ELi16EEEEEEvRT_17TransferMetaFlags
tKc:__ZN2UI6Canvas27UpdateEventIndexesRecursiveERi
HR:__ZN11UnityEngine15CloudWebService16SessionContainer21PrepareDataErrorEventERN4core12basic_stringIcNS2_20StringStorageDefaultIcEEEE
lxc:_UNITY_FT_Outline_New
Vtb:__Z19TransferField_ArrayI19StreamedBinaryWriteILb0EE27Converter_SimpleNativeClassI8GUIStyleEEvRK23StaticTransferFieldInfoR31RuntimeSerializationCommandInfoRT0_
Q9g:_Scrollbar_SetDirection_m3264558284
swj:_emscripten_glCopyTexSubImage2D__wrapper
$ej:_maybe_finalize
z5h:_PlayableHandle_IsValidInternal_m3315870994
Lwf:_RemotingServices_RegisterInternalChannels_m1827304423
apc:__Z35Transfer_Blittable_FixedBufferFieldI8JSONReadiEvRK29SerializationCommandArgumentsR31RuntimeSerializationCommandInfo
eJi:__ZNSt3__213__vector_baseIN6il2cpp2os19SocketHandleWrapperENS_9allocatorIS3_EEED2Ev
lSg:__Z77RuntimeInvoker_RuntimeObject_Int32_t2071877448_RuntimeObject_SByte_t454417549PFvvEPK10MethodInfoPvPS4_
cc:invoke_viiffi
Hv:__ZN7mecanim18ValueArrayBlendEndILb0EEEvPKNS_10ValueArrayERKNS_14ValueArrayMaskERKNS_16ValueArrayWeightERS1_
xWb:__ZN13sorted_vectorINSt3__24pairIN4core12basic_stringIcNS2_20StringStorageDefaultIcEEEEPK17MessageIdentifierEEN10vector_mapIS6_S9_NS0_4lessIS6_EENS0_9allocatorISA_EEE13value_compareESF_E10insert_oneERKSA_
JHf:_Thread_GetCachedCurrentUICulture_m5590127
Ifi:_GUILayoutEntry_get_margin_m3913640621
Ycb:__Z14resize_trimmedINSt3__26vectorIN9ShaderLab18SerializedPropertyENS0_9allocatorIS3_EEEEEvRT_j
_Me:_List_1_CheckMatch_m4018158235_gshared
L8d:_Context_t2636657155_marshal_pinvoke_back
eHi:__ZN6il2cpp2vm13MetadataCache38GetMethodInfoFromMethodDefinitionIndexEi
Mud:_Byte_System_IConvertible_ToDateTime_m1583041031
s_a:__ZN10VertexData8TransferI24GenerateTypeTreeTransferEEvRT_
n9i:__ZN13Il2CppHashMapIPK19Il2CppGenericMethodP10MethodInfoN6il2cpp8metadata23Il2CppGenericMethodHashENS6_26Il2CppGenericMethodCompareENSt3__29allocatorINS9_4pairIK10KeyWrapperIS2_ES4_EEEEEC2EjRKS7_RKS8_
Ash:_EqualityComparer_1_System_Collections_IEqualityComparer_Equals_m1089835085_gshared
tRb:__ZL10CullLightsRK22SceneCullingParametersR11CullResults
Jhd:_Dropdown__cctor_m264401557
Nrd:_Array_IndexOf_m2819632474
S6h:_Ray_GetPoint_m2427899009_AdjustorThunk
jHh:_Comparer_1__cctor_m3996541505_gshared
Rw:__ZN7mecanim12statemachine20GetBlendTreeConstantERKNS0_13StateConstantEi
lZb:__Z40GetTemporaryCachePathApplicationSpecificv
dba:__ZN9GfxDevice16EndAsyncJobFrameEv
Byc:_UNITY_tt_face_load_hhea
_Dd:_Convert_ToBase64String_m1936815455
Nk:___syscall3
Qk:___syscall6
Sk:___syscall4
wNd:_Decimal_ToString_m759431975
$jb:__ZNSt3__26__treeINS_12__value_typeIN4core12basic_stringIcNS2_20StringStorageDefaultIcEEEEPN16MemoryFileSystem4NodeEEENS_19__map_value_compareIS6_SA_NS_4lessIS6_EELb1EEE13stl_allocatorISA_L18MemLabelIdentifier55ELi16EEE7destroyEPNS_11__tree_nodeISA_PvEE
odd:_ColorBlock_get_fadeDuration_m987725262
vBf:_CryptographicException__ctor_m2415891459
qba:__ZN9GfxDevice27UpdateComputeSkinPoseBufferE15ComputeBufferIDP12SkinMeshInfo
gl:_emscripten_glShaderBinary
Hff:_SslStreamBase_Dispose_m747909841
Xei:_GUI_CallWindowDelegate_m2603162942
rif:_DictionaryNodeEnumerator_get_DictionaryNode_m3521889822
Rt:__ZN7mecanim5human19MaskHasLeftFootGoalERKNS_6bitsetILj70EEE
i0g:__Z101RuntimeInvoker_Int32_t2071877448_RuntimeObject_Color32_t874517518_Int32_t2071877448_Int32_t2071877448PFvvEPK10MethodInfoPvPS4_
PNc:__Z58Register_UnityEngine_Canvas_GetETC1SupportedCanvasMaterialv
swb:__ZN17AnimationCurveTplIfE8TransferI18StreamedBinaryReadILb1EEEEvRT_
yLd:_DateTimeOffset_GetHashCode_m3312197462_AdjustorThunk
eQc:__ZN18UnityConnectClientD2Ev
eMi:_il2cpp_set_data_dir
BTh:_Uri_get_IsUnc_m2111738174
FXf:_TypeBuilder_IsValueTypeImpl_m1499671481
iPc:__ZN11UnityEngine15PlatformWrapper30GetGraphicsDriverLibraryStringEv
y7e:_EncryptedPrivateKeyInfo_Decode_m1706190306
Pxb:__Z18Transfer_BlittableI18StreamedBinaryReadILb0EELb0E4AABBEvRK29SerializationCommandArgumentsR31RuntimeSerializationCommandInfo
Rpi:_AudioListener_ClearExtensionProperties_m2267088681
BD:__ZN16MecanimAnimation24DeleteAnimatedPropertiesERP26IAnimatedPropertyEvaluator
sId:_Convert_ToUInt16_m1665900934
Cie:_RegionInfo__ctor_m2058831971
CHb:__Z14DrawGUITextureRK5RectTIfEP7Texture11ColorRGBA32P8Materiali
Rdh:_Text_get_supportRichText_m3291105891
wA:__ZN9BlobWrite8TransferI22OffsetPtrArrayTransferIKN4math7_float4EEEEvRT_PKc17TransferMetaFlags
Ogi:_GUIUtility_set_systemCopyBuffer_m3458871692
BPa:__ZN15TextureSettings8TransferI24GenerateTypeTreeTransferEEvRT_
ROh:_MatchCollection_GetEnumerator_m3516985966
Loc:__ZN9JSONWrite8TransferI4AABBEEvRT_PKc17TransferMetaFlags
MDf:_UTF7Encoding__ctor_m2365939916
fBa:__ZN25MultiBlocksMemoryFileData9SetLengthEy
PAi:_Animator_SetTrigger_m2003713590
GXh:_DelegatePInvokeWrapper_StateChanged_t2480912210
B6g:_MatEntry__ctor_m3650167335
yUa:__ZNK9Texture2D20GetRuntimeMemorySizeEv
ALf:_TypeInitializationException__ctor_m2993591639
Vkc:__ZN5Unity9rapidjson13GenericReaderINS0_4UTF8IcEES3_13JSONAllocatorE9ParseTrueILj0ENS0_19GenericStringStreamIS3_EENS0_15GenericDocumentIS3_S4_S4_EEEEvRT0_RT1_
om:_emscripten_glUniform2iv
Cke:_Int16_System_IConvertible_ToInt64_m733340257
gvc:_UNITY_FT_Outline_Transform
Ffc:__Z60Register_UnityEngine_Sprites_DataUtility_Internal_GetMinSizev
ACi:__ZN6il2cpp2vm5Class10GetMethodsEP11Il2CppClassPPv
iNb:__Z30AddDefaultStreamsToMeshBuffersR9GfxDeviceR11MeshBuffersRK16DrawBuffersRange17ShaderChannelMaskS6_
boa:__ZN7ApiGLES17DeleteFramebufferERN2gl6HandleILNS0_10ObjectTypeE9EEES3_
Yqa:__ZN15UniformTFMethod13MapBoneBufferEj
Laf:_RecordProtocol_SendAlert_m2816808523
kJc:__ZN2UI14CanvasRendererD2Ev
wHb:__ZN13RenderManager22RenderOffscreenCamerasEv
HZi:__ZN6il2cpp6icalls8mscorlib6System5Array8SetValueEP11Il2CppArrayP12Il2CppObjectS5_
Hue:_SynchronizedReader_Read_m1399666181
vZf:_MonoEvent_get_Name_m2796714646
OCb:__Z9SetupArgviPPKc
BAi:_AnimationOffsetPlayable__ctor_m1644499845
lad:_PointerEventData_set_worldNormal_m2025727441
Wbi:_Transform_INTERNAL_get_worldToLocalMatrix_m2822011810
Sbf:_Context_get_SentConnectionEnd_m3114190867
yTa:__ZN12CubemapArray23VirtualRedirectTransferER24GenerateTypeTreeTransfer
J2:__ZN12FileAccessor4OpenER15FileSystemEntry14FilePermission16FileAutoBehavior
mpi:_AudioSource_get_spatializeInternal_m4243931620
DXa:__ZN23TransformChangeDispatch32QueueTransformChangeIfHasChangedERK15TransformAccess
Q9c:_PointerEventData_set_clickTime_m3931922487
O1:__ZN15dense_hashtableINSt3__24pairIKiP4RTTIEEiN11TypeManager27HashFunctorPersistentTypeIDEN14dense_hash_mapIiS4_S7_NS0_8equal_toIiEE13stl_allocatorIS5_L18MemLabelIdentifier7ELi16EEE9SelectKeyESA_SD_E12maybe_shrinkEv
Ole:_NumberFormatter_AppendNonNegativeNumber_m629862866
dSa:__ZNSt3__26vectorINS_4pairIN9ShaderLab16FastPropertyNameEN18UnityPropertySheet11UnityTexEnvEEENS_9allocatorIS6_EEE21__push_back_slow_pathIKS6_EEvRT_
SIh:_ResourceInfo__ctor_m2401359321_AdjustorThunk
Q7i:__ZN6il2cpp2os26LibraryNamePrefixAndSuffixC2EPKcS3_
e1d:_Array_InternalArray__set_Item_TisMonoResource_t3127387157_m732733855_gshared
rji:_UnityEvent_1_Invoke_m1599856953_gshared
gBd:_Hashtable__ctor_m392789568
JFf:_UTF7Encoding__cctor_m4192443836
B:tempValue
oYh:_Display_get_systemHeight_m3140485477
Gke:_Int16_System_IConvertible_ToSingle_m3277935657
A_:__Z29scripting_class_from_fullnamePKcS0_S0_
jdi:_Vector3_get_sqrMagnitude_m1445517847_AdjustorThunk
C8g:_Raycast3DCallback_Invoke_m2271859924
qx:__ZN26AnimatorControllerPlayable18DeallocateBindingsEv
SM:__ZN11AudioSource19CreateOpenALRolloffEfff
ozc:_UNITY_FT_Stream_ReadAt
Pfh:_Enumerator_get_CurrentKey_m2387752419_AdjustorThunk
pGi:__ZN15dense_hashtableINSt3__24pairIK10KeyWrapperIN6il2cpp5utils13dynamic_arrayIPK10Il2CppTypeLj4EEEEPFvvEEESA_NS3_8metadata19Il2CppSignatureHashEN14dense_hash_mapISA_SD_SG_NSA_14EqualsComparerINSF_22Il2CppSignatureCompareEEENS0_9allocatorISE_EEE9SelectKeyESK_SM_E9set_valueEPSE_RKSE_
lZh:_UnityEventBase_FindMethod_m2780816114
ELf:_UInt16_System_IConvertible_ToBoolean_m887616848
EN:__ZN11AudioModule22CreateAudioClipFromWWWEP10IWWWStreamPKcbbi
yEf:_StringBuilder_set_Length_m3039225444
oVe:_Collection_1_System_Collections_IList_Contains_m3870109702_gshared
STd:_Array_InternalArray__ICollection_Contains_TisRaycastResult_t21186376_m3188614988_gshared
bJd:_CultureAwareComparer_GetHashCode_m3681260951
tLc:__Z13RegisterClassIN2UI11CanvasGroupEEvv
tZb:__ZN6prcoreL11inner_clearILj4EEEvPhjjj
L8g:_Selectable__ctor_m1440593935
Psi:__ZL25UnresolvedVirtualCall_132P12Il2CppObject17Color_t2020392075faaaPK10MethodInfo
X5:__ZNK8Playable6HandleEv
L0:__ZN14MessageHandler28MessageIDToMessageIdentifierEi
Hjf:_HttpRequestCreator_Create_m3607509610
O_a:__ZNK11SpriteAtlas20GetRuntimeRenderDataEPK6Sprite
rgj:__ZN6il2cpp2vm10WaitHandle19NewManualResetEventEb
e$e:_ReadOnlyCollection_1_System_Collections_IList_Contains_m3707723158_gshared
ovc:__ZN20TextRenderingPrivate15DynamicFontData36GetFaceForCharacterIfAvailableInFontERKNS_7FontRefERK13dynamic_arrayI4PPtrIN13TextRendering4FontEELj4EEj
Zpi:_AudioExtensionManager_GetReadyToPlay_m3272224102
mv:__ZN7mecanim14ValueArrayCopyILb0EEEvPKNS_10ValueArrayEPS1_
SE:__Z51Register_UnityEngine_Animator_get_hasBoundPlayablesv
$vi:_Nullable_1_ToString_m1238126148_AdjustorThunk
Dd:emscriptenWebGLGetUniform
po:FUNCTION_TABLE_iiiiiiiiiii
_Sb:__ZL10CleanUpJobP20CullingGroupsJobData
wwd:_Char_CompareTo_m3044885427_AdjustorThunk
Lqe:_FileStream_GetSecureFileName_m508045384
VBh:_InternalEnumerator_1_System_Collections_IEnumerator_get_Current_m2035754659_AdjustorThunk
tHb:__ZN13RenderManager15BatchModeUpdateEv
WZa:__ZN14SafeBinaryRead21TransferSTLStyleArrayI13dynamic_arrayI8Vector2fLj4EEEEvRT_17TransferMetaFlags
Lva:__ZN17PersistentManager51InstanceIDToLocalSerializedObjectIdentifierInternalEiR31LocalSerializedObjectIdentifier
jEc:_UNITY_FT_Create_Class_cff_services
gd:_glVertexAttribIPointer
nWc:_HMAC_set_HashName_m457235014
h6b:__ZNK6Sprite10GetPaddingE20SpriteRenderDataMode
DBi:__ZN6il2cpp2vm5Class11GetPtrClassEPK10Il2CppType
aTd:_Array_InternalArray__ICollection_Contains_TisTableRange_t2011406615_m605506746_gshared
Xlh:_Dictionary_2_Add_m1296007576_gshared
aId:_Decimal_op_Explicit_m729046406
FBf:_CryptoConfig_CreateFromName_m2169102076
bjd:_Graphic_OnEnable_m2900261811
IBf:_CryptographicUnexpectedOperationException__ctor_m3552441227
dLb:__ZN14qsort_internal5QSortIP15RODataDepthPassi17ROSorterDepthPassEEvT_S4_T0_T1_
gyd:_ArrayListWrapper_Clear_m321161741
bod:_InputField_LineDownCharacterPosition_m2690468785
nzc:_UNITY_ft_glyphslot_alloc_bitmap
l3d:_Array_Sort_TisVector2_t2243707579_TisVector2_t2243707579_m2582252549_gshared
ENf:_UInt64_System_IConvertible_ToDouble_m2828923873
ZIe:_List_1_System_Collections_IList_set_Item_m1129584681_gshared
KAc:_ft_raster1_render
mhc:__Z47Register_UnityEngine_Mesh_RecalculateBoundsImplv
QEe:_List_1_set_Capacity_m491101164_gshared
ynj:__ZNKSt3__221__basic_string_commonILb1EE20__throw_length_errorEv
XEf:_StringBuilder_Insert_m1733097906
zgf:_SslStreamBase_get_HashStrength_m480059173
xlc:__ZN5Unity9rapidjson6WriterI16TempBufferWriterNS0_4UTF8IcEES4_13JSONAllocatorE11WriteStringEPKcj
fkh:_ValueCollection_System_Collections_Generic_ICollectionU3CTValueU3E_Clear_m3271993638_gshared
LDd:_Enumerator_MoveNext_m1419609883
HI:__ZN4FMOD7Channel19setReverbPropertiesEPK29FMOD_REVERB_CHANNELPROPERTIES
j0:__ZN13MonoBehaviour22GetScriptFullClassNameEv
D6h:_RangeInt_get_end_m480861812
Qjf:_ServicePointManager_FindServicePoint_m3137356168
LAb:__ZN13MonoBehaviour9CallAwakeEv
nOa:__ZN20SphericalHarmonicsL211AddWeightedERKS_f
Dad:_PointerInputModule_GetPointerData_m1695674453
zOg:__Z90RuntimeInvoker_Void_t1841601450_RuntimeObject_RuntimeObject_RuntimeObject_SByte_t454417549PFvvEPK10MethodInfoPvPS4_
_pb:__Z19TransferField_ArrayI17RemapPPtrTransfer27Converter_SimpleNativeClassI8GUIStyleEEvRK23StaticTransferFieldInfoR31RuntimeSerializationCommandInfoRT0_
YId:_Convert_ToUInt64_m345450801
cwi:_Predicate_1_BeginInvoke_m2559992383_gshared
dmc:__ZN9JSONWrite8TransferI10ColorRGBAfEEvRT_PKc17TransferMetaFlags
dLe:_List_1_Find_m1270109362_gshared
F0:__Z25scripting_method_get_name18ScriptingMethodPtr
rob:__Z19TransferField_ArrayI14SafeBinaryRead16Converter_StringEvRK23StaticTransferFieldInfoR31RuntimeSerializationCommandInfoRT0_
Umj:_rename
Sej:_GC_exit_check
Bye:_NotSupportedException__ctor_m3232764727
hjf:_TypeConverterAttribute_Equals_m2330345916
NSg:__Z90RuntimeInvoker_Boolean_t3825574718_Int32_t2071877448_Int32U26_t455636984_Int32_t2071877448PFvvEPK10MethodInfoPvPS4_
tAh:_InternalEnumerator_1_System_Collections_IEnumerator_get_Current_m1038263751_gshared
bvi:_Hacker_Start_m3377866405
lqe:_MonoIO_CreateDirectory_m379525469
MWb:__ZNSt3__26vectorINS_4pairIN4core12basic_stringIcNS2_20StringStorageDefaultIcEEEES6_EE13stl_allocatorIS7_L18MemLabelIdentifier38ELi16EEE6insertENS_11__wrap_iterIPKS7_EERSD_
nA:__ZN9BlobWrite8TransferI22OffsetPtrArrayTransferI9OffsetPtrIN7mecanim12statemachine18StateMachineMemoryEEEEEvRT_PKc17TransferMetaFlags
xxc:_UNITY_ft_smooth_renderer_class_pic_free
JLe:_List_1_System_Collections_IList_Remove_m3763718607_gshared
vff:_SslClientStream_remove_PrivateKeySelection_m427666577
h4c:_String_Concat_m2000667605
faj:__ZN6il2cpp2vm6String8NewUtf16EPKDsi
U6i:__ZN6il2cpp2os10ThreadImpl12QueueUserAPCEPFvPvES2_
WPc:__ZN22BaseUnityConnectClient10QueueEventERN11UnityEngine15CloudWebService17CloudServiceEventEPKcjb
aZg:__Z71RuntimeInvoker_Bounds_t3033363703_RuntimeObject_Matrix4x4U26_t266301477PFvvEPK10MethodInfoPvPS4_
P6d:_ExecuteEvents_GetEventHandler_TisRuntimeObject_m3333041576_gshared
Nwc:_UNITY_FT_Hypot
atd:_BitConverter_ToInt64_m1329623425
j0b:__ZN8RendererC2E12RendererType18MemLabelIdentifier18ObjectCreationMode
IMi:_il2cpp_class_is_abstract
wf:_emscripten_glGetError
hVi:__ZN15dense_hashtableINSt3__24pairIK10KeyWrapperIPK14Il2CppAssemblyEPK22Il2CppMonoAssemblyNameEES6_N6il2cpp5utils11PointerHashIS4_EEN14dense_hash_mapIS6_SA_SF_NS6_14EqualsComparerINS0_8equal_toIS5_EEEENS0_9allocatorISB_EEE9SelectKeyESK_SM_E14squash_deletedEv
sJ:__Z14FMOD_FILE_SeekPvjS_
Ksf:_MethodCall_get_Properties_m1893707917
qhh:_ShimEnumerator_get_Entry_m2387156530_gshared
PGi:__ZN14dense_hash_mapI10KeyWrapperIN6il2cpp5utils13dynamic_arrayIPK10Il2CppTypeLj4EEEEPFvvENS1_8metadata19Il2CppSignatureHashENS8_14EqualsComparerINSB_22Il2CppSignatureCompareEEENSt3__29allocatorINSG_4pairIKS8_SA_EEEEEC2EjRKSC_RKSF_
bUb:__ZNK13RenderTexture32CalculateNeedsInvertedProjectionEv
VYb:__ZN10systeminfo18GetOperatingSystemEv
Ef:emscriptenWebGLGet
Y2:__Z19CanReplaceComponentRN5Unity9ComponentEPKNS_4TypeEPN4core12basic_stringIcNS5_20StringStorageDefaultIcEEEE
t1b:__ZN12CubemapArray11InitTextureEiii13TextureFormatb
Zmf:_X509Certificate2_get_SignatureAlgorithm_m3069898012
Une:_Int64_System_IConvertible_ToSingle_m1678482180
WA:__ZN7mecanim5human13HumanFixTwistEPKNS0_5HumanEPNS_8skeleton13SkeletonPoseTIN4math4trsXEEES9_iiRKf
UNb:__ZL24AssignProjectorQueuesJobP30AssignProjectorQueuesJobHeader
$If:_TimeSpan_get_Hours_m3804628138
f4i:__ZN14dense_hash_mapI10KeyWrapperIP12Il2CppObjectEN6il2cpp2gc9CachedCCWENS4_5utils11PointerHashIS1_EENS3_14EqualsComparerINSt3__28equal_toIS2_EEEENSB_9allocatorINSB_4pairIKS3_S6_EEEEEC2EjRKS9_RKSE_
vGi:__ZN15dense_hashtableINSt3__24pairIK10KeyWrapperIN6il2cpp5utils13dynamic_arrayIPK10Il2CppTypeLj4EEEEPFvvEEESA_NS3_8metadata19Il2CppSignatureHashEN14dense_hash_mapISA_SD_SG_NSA_14EqualsComparerINSF_22Il2CppSignatureCompareEEENS0_9allocatorISE_EEE9SelectKeyESK_SM_E4swapERSP_
ifb:__ZN9ShaderLab20SerializedSubProgram14SetConstBufferEPKci
yhe:_ArgumentNullException__ctor_m911049464
g3e:_Comparison_1_Invoke_m345024424_gshared
FCc:_cf2_getStdVW
m0e:_ReadOnlyCollection_1_System_Collections_IList_Insert_m3936197025_gshared
nW:__Z40DebugStringToFilePostprocessedStacktraceRK21DebugStringToFileData
Rqc:__Z29Transfer_Blittable_ArrayFieldI8JSONReadjEvRT_R9ArrayInfoRK23StaticTransferFieldInfo
vBh:_InternalEnumerator_1_get_Current_m314017974_AdjustorThunk
kg:__setLetterbox
Rre:_MemoryStream__ctor_m1043059966
xuf:__ZN21InterfaceFuncInvoker3IP12Il2CppObjectP6Type_t28StreamingContext_t1417235061PS1_E6InvokeEjP11Il2CppClassS1_S3_S4_S5_
_0a:__ZNSt3__26vectorI17BlendShapeChannelNS_9allocatorIS1_EEE6assignINS_11__wrap_iterIPS1_EEEENS_9enable_ifIXaasr21__is_forward_iteratorIT_EE5valuesr16is_constructibleIS1_NS_15iterator_traitsISA_E9referenceEEE5valueEvE4typeESA_SA_
kpd:_LayoutElement_set_preferredWidth_m3072758716
jFb:__Z12SetGfxDeviceP9GfxDevice
Ilf:_AsnEncodedData_ToString_m724151831
RYh:_Object_CompareBaseObjects_m1461253683
OYb:__ZN11TimeManager11GetRealtimeEv
MJ:__ZN29AudioEffectInternalDefinitionC2EP26UnityAudioEffectDefinitionb
iZf:_MonoMethodInfo_GetDeclaringType_m4186531677
uvf:_SoapTypeAttribute_SetReflectionObject_m1566293812
joi:_Enumerator_System_Collections_IEnumerator_Reset_m2573763156_AdjustorThunk
Pwf:_RemotingServices_CreateClientProxy_m1631035355
iOf:_UInt64_ToString_m2892887310
pja:_stbir_resize
u9i:__ZN15dense_hashtableINSt3__24pairIK10KeyWrapperIPK19Il2CppGenericMethodEP10MethodInfoEES6_N6il2cpp8metadata23Il2CppGenericMethodHashEN14dense_hash_mapIS6_S9_SD_NS6_14EqualsComparerINSC_26Il2CppGenericMethodCompareEEENS0_9allocatorISA_EEE9SelectKeyESH_SJ_EC2ERKSM_j
lBa:__Z37ReadDirectoryInfo_UnityWebAndUnityRawR12FileAccessorRKN20ArchiveStorageHeader6HeaderERNS1_13DirectoryInfoE
pZ:__ZNSt3__26__treeINS_12__value_typeIPKciEENS_19__map_value_compareIS3_S4_15compare_tstringIS3_ELb1EEENS_9allocatorIS4_EEE7destroyEPNS_11__tree_nodeIS4_PvEE
lph:_Dictionary_2_ToTValue_m1381983709_gshared
tye:_MulticastDelegate_KPM_m1592985119
AQc:__ZN13dynamic_arrayIN4core12basic_stringIcNS0_20StringStorageDefaultIcEEEELj4EE6assignEPKS4_S7_
$Xe:_Collection_1_ConvertItem_m3941916604_gshared
Gza:__ZN15dense_hashtableINSt3__24pairIKN4core12basic_stringIcNS2_20StringStorageDefaultIcEEEEP20ArchiveStorageReaderEES6_20StringHash32FunctionIS6_EN14dense_hash_mapIS6_S9_SC_NS0_8equal_toIS6_EE13stl_allocatorISA_L18MemLabelIdentifier55ELi16EEE9SelectKeyESF_SI_E5clearEv
dKc:__ZN2UI6Canvas26MarkAllNestedCanvasesDirtyEv
q1i:__ZN6il2cpp2vm12ReboxIfBoxedEP14Il2CppIUnknownP11Il2CppClass
mCb:__ZN25PathNamePersistentManagerD2Ev
Z_:__ZN17PersistentManager48IntegrateObjectAndUnlockIntegrationMutexInternalEi
q9:__ZZ29InitializeSortingGroupManagerPvEN44PostLateUpdateSortingGroupsUpdateRegistrator7ForwardEv
hp:__ZN6Object12SetHideFlagsENS_9HideFlagsE
iuj:_emscripten_glGetFramebufferAttachmentParameteriv__wrapper
THb:__ZN13RendererScene15InitializeUmbraEv
gNa:__Z28CalculateGlobalMatrixInverse23TransformAccessReadOnly
Q3f:__ZL60SecurityAttribute_t2016950496_CustomAttributesCacheGeneratorP21CustomAttributesCache
yad:_PointerEventData_ToString_m1218584363
RFf:_UTF7Encoding_GetCharCount_m2589913583
hOi:_AnalyticsSessionInfo_CallSessionStateChanged_m2293069762
Hse:_MemoryStream_CalculateNewCapacity_m3533542025
jhj:__GLOBAL__sub_I_Runtime_cpp_38355
ETh:_Uri_Reduce_m2577728307
zJf:_TimeSpan_Equals_m4102942751_AdjustorThunk
ekh:_ValueCollection_System_Collections_Generic_ICollectionU3CTValueU3E_Add_m1903672223_gshared
qTc:__ZN12HeaderHelper14SetUnvalidatedERKN4core12basic_stringIcNS0_20StringStorageDefaultIcEEEES6_b
NF:__ZN4FMOD6SoundI7releaseEv
PBa:__ZN10MemoryFile9SetLengthEy
uMf:_UInt16_ToString_m2038947049_AdjustorThunk
dsb:__ZN5RectTIiE8TransferI24GenerateTypeTreeTransferEEvRT_
oWa:__ZN14SafeBinaryRead21TransferSTLStyleArrayI13dynamic_arrayI7Hash128Lj8EEEEvRT_17TransferMetaFlags
lBb:__Z28scripting_class_is_interface17ScriptingClassPtr
Ah:_glTexStorage2D
mQa:__ZNK9ShaderLab10SubProgram14EnsureCompiledEv
pGg:__Z79RuntimeInvoker_Boolean_t3825574718_RuntimeObject_RuntimeObject_SByte_t454417549PFvvEPK10MethodInfoPvPS4_
lzf:_ObjectManager_RecordFixup_m3572285566
ICd:_SortedList_InitTable_m460350503
v0:__Z18BuildScriptClassId17ScriptingClassPtr
Vxh:_InternalEnumerator_1_get_Current_m4279678504_AdjustorThunk
HAa:__ZL31DeleteLastPathNameComponentImplRKN4core12basic_stringIcNS_20StringStorageDefaultIcEEEEPKc
e_b:__Z13RegisterClassI18DelayedCallManagerEvv
iQc:__ZN18UnityConnectClient15GetCloudServiceEv
mqb:__Z18Transfer_BlittableI24GenerateTypeTreeTransferLb0EiEvRK29SerializationCommandArgumentsR31RuntimeSerializationCommandInfo
_Ii:__ZN6il2cpp2os19SocketHandleWrapperD2Ev
fBb:__ZL28SerializationCommandGroupForRK31TransferFunctionScriptingTraits17ScriptingClassPtr17ScriptingFieldPtrRK20CoreScriptingClasses
QEa:__ZN10TagManager32RegisterDefaultTagsAndLayerMasksEv
CHi:__ZN15dense_hashtableINSt3__24pairIK10KeyWrapperIPKcEP11Il2CppClassEES5_N6il2cpp5utils11StringUtils12StringHasherIS4_EEN14dense_hash_mapIS5_S8_SE_NS5_14EqualsComparerINSB_13VmStringUtils21CaseSensitiveComparerEEENS0_9allocatorIS9_EEE9SelectKeyESJ_SL_E15insert_noresizeERKS9_
wHf:_SynchronizationLockException__ctor_m549086841
Exd:_ArrayList_InsertRange_m1478230997
Dfa:__ZN4gles8InitCapsEP7ApiGLESP12GraphicsCapsR16GfxDeviceLevelGL
Jja:__ZN6prcore14BlitImageFloatERK14ImageReferenceRS0_NS0_8BlitModeE
WKa:__Z24CalculateVertexLightDataRK15SharedLightDataR14GfxVertexLight
TWh:_Color_get_black_m455352838
ii:_glEnable
A9a:__ZN15dense_hashtableINSt3__24pairIKiiEEi21InstanceIDHashFunctorN14dense_hash_mapIiiS4_NS0_8equal_toIiEE13stl_allocatorIS3_L18MemLabelIdentifier1ELi16EEE9SelectKeyES7_SA_E12maybe_shrinkEv
iQa:__ZNK9ShaderLab7Program28BeginReadUnsupportedVariantsEv
CJb:__ZNK25CameraStackRenderingState21GetImageEffectTextureEb
eAf:_RuntimeMethodHandle__ctor_m2437574937_AdjustorThunk
N6a:__ZNSt3__26vectorIN30RuntimeInitializeOnLoadManager9ClassInfoE13stl_allocatorIS2_L18MemLabelIdentifier13ELi16EEE7reserveEj
qmc:__Z35Transfer_Blittable_FixedBufferFieldI9JSONWriteiEvRK29SerializationCommandArgumentsR31RuntimeSerializationCommandInfo
VLf:_UInt16_System_IConvertible_ToInt64_m2835280558_AdjustorThunk
Uxg:__ZL53g_UnityEngine_Assembly_CustomAttributesCacheGeneratorP21CustomAttributesCache
Iwi:_Predicate_1_BeginInvoke_m3926587117_gshared
VD:__ZZN8Animator15InitializeClassEvEN31FunctorImpl_427kDidModifyAvatar4CallEPviR11MessageData
F_e:_ReadOnlyCollection_1_System_Collections_IList_Remove_m2779327941_gshared
ix:__ZN26AnimatorControllerPlayable17ProcessRootMotionEP35AnimationPlayableEvaluationConstantP32AnimationPlayableEvaluationInputP33AnimationPlayableEvaluationOutput
HGg:__Z94RuntimeInvoker_Boolean_t3825574718_Int32_t2071877448_SByte_t454417549_ExceptionU26_t1467204777PFvvEPK10MethodInfoPvPS4_
mgd:_DefaultControls_CreateToggle_m1568873127
Yoh:_Dictionary_2_InitArrays_m2270022740_gshared
KOc:__ZN11UnityEngine7Connect15DeviceInfoEvent16CollectExtraInfoEv
gFf:_UnicodeEncoding_GetChars_m3765282346
Hoe:_IntPtr__ctor_m4104029105
HCh:_InternalEnumerator_1_System_Collections_IEnumerator_get_Current_m771161214_AdjustorThunk
txe:_MonoType_get_attributes_m1493788675
KCa:__ZN20ArchiveStorageReader10InitializeER15FileSystemEntryyb
VGd:_Convert_ToDouble_m4236754739
Chd:_Dropdown_CreateItem_m2702141380
k5f:__ZL48Stack_t1043988394_CustomAttributesCacheGeneratorP21CustomAttributesCache
uo:FUNCTION_TABLE_viifi
sZf:_MonoEvent_GetAddMethod_m4289563120
q3f:__ZL37Type_t_CustomAttributesCacheGeneratorP21CustomAttributesCache
kGc:_UNITY_tt_face_free_hdmx
FOi:__ZN6il2cpp2vm14TypeNameParser5ParseEb
i8g:_ReflectionMethodsCache__ctor_m1835220
HSc:__ZN23UnityPurchasingSettingsC2Ev
mPd:_Double_ToString_m1864290157
cUb:__ZL10RenderFaceR9GfxDeviceR18MaterialStateCacheP13RenderTextureiif
jci:_SpriteAtlasManager__cctor_m453260161
g2i:__ZNK24NamespaceAndNamePairHashclERKNSt3__24pairIPKcS3_EE
vja:__ZL37stbir__resample_horizontal_downsampleP11stbir__infoiPf
V9a:__ZNK5Unity9Component38MarkGameObjectAndComponentDependenciesER27GarbageCollectorThreadState
xX:__ZL16OutOfMemoryErrorjj18MemLabelIdentifieriPKc
KTc:__ZN20UnityWebRequestProtoI24UnityWebRequestTransport16AtomicRefCounter14RedirectHelper14ResponseHelper15DownloadHandler13UploadHandler12HeaderHelper14AsyncOperationED0Ev
Maf:_RecordProtocol_SendRecord_m132002114
W0:__ZNK11TypeManager15ClassNameToRTTIEPKcb
Eyb:__Z18Transfer_BlittableI18StreamedBinaryReadILb0EELb1EdEvRK29SerializationCommandArgumentsR31RuntimeSerializationCommandInfo
Ivj:_emscripten_glVertexAttrib2fv__wrapper
wje:_Guid__ctor_m2599802704
hre:_FileStream_get_CanRead_m4148920720
Bia:__ZN4crnd12symbol_codec32decode_receive_static_data_modelERNS_25static_huffman_data_modelE
kZb:__ZN18ScriptingArguments8AddFloatEf
Nhe:_GregorianCalendar_set_CalendarType_m2438362222
z8i:__ZN6il2cpp2vmL24HexValueToLowercaseAsciiEh
bUd:_Array_InternalArray__ICollection_Contains_TisVector2_t2243707579_m3625698589_gshared
AOc:__ZN11UnityEngine15PlatformWrapper16GetVRRenderScaleEv
qnc:__Z18Transfer_BlittableI9JSONWriteLb0EaEvRK29SerializationCommandArgumentsR31RuntimeSerializationCommandInfo
bR:__ZN11UnityEngine15CloudWebService14DataDispatcher34OnSessionContainerArchivedAndReadyERNS0_16SessionContainerE
yzi:_RectTransformUtility_PixelAdjustPoint_m1375786599
yie:_NumberFormatInfo_GetFormat_m3247563525
Yab:__ZN14SafeBinaryRead19TransferSTLStyleMapINSt3__23mapIN4core12basic_stringIcNS3_20StringStorageDefaultIcEEEEiNS1_4lessIS7_EENS1_9allocatorINS1_4pairIKS7_iEEEEEEEEvRT_17TransferMetaFlags
eyc:_gray_move_to
HVc:_DSAParameters_t1872138834_marshal_pinvoke
VTi:__ZN6il2cpp2vm10Reflection14GetEventObjectEP11Il2CppClassPK9EventInfo
Vaf:_TlsStream_Write_m2271546135
U9b:__Z30RegisterValidateMethodCallbackiPF18ScriptingMethodPtrS_17ScriptingClassPtrP6ObjectEPKc
hSd:_CultureInfo_ConstructInternalLocaleFromCurrentLocale_m1342751405
mEf:_Latin1Encoding_GetString_m3553289597
u8g:_GetRayIntersectionAllNonAllocCallback_Invoke_m1247446986
Dzc:_tt_cmap_init
Irc:__ZN8JSONRead8TransferI9BoundsIntEEvRT_PKc17TransferMetaFlagsb
Ia:invoke_viidi
P3i:__ZN15dense_hashtableI10KeyWrapperIP18Il2CppGenericClassES3_N6il2cpp8metadata22Il2CppGenericClassHashEN14dense_hash_setIS3_S6_NS3_14EqualsComparerINS5_25Il2CppGenericClassCompareEEENSt3__29allocatorIS3_EEE8IdentityESA_SD_E12maybe_shrinkEv
gwb:__Z29Transfer_Blittable_ArrayFieldI18StreamedBinaryReadILb1EEdEvRT_R9ArrayInfoRK23StaticTransferFieldInfo
lI:__ZN9AudioClip7CleanupEv
Ddi:_Vector4_set_Item_m1525226067_AdjustorThunk
Mzj:_emscripten_glCheckFramebufferStatus__wrapper
DYi:__ZNK15dense_hashtableINSt3__24pairIK10KeyWrapperIP11Il2CppClassES4_EES5_N6il2cpp8metadata16SZArrayClassHashEN14dense_hash_mapIS5_S4_SA_NS5_14EqualsComparerINS9_19SZArrayClassCompareEEENS0_9allocatorIS7_EEE9SelectKeyESE_SG_E12test_deletedEj
jqc:__Z18Transfer_BlittableI8JSONReadLb0EdEvRK29SerializationCommandArgumentsR31RuntimeSerializationCommandInfo
Z_g:__Z83RuntimeInvoker_Boolean_t3825574718_NavigationU26_t3929175072_Navigation_t1571958496PFvvEPK10MethodInfoPvPS4_
QHf:_Thread_ClrState_m822263449
w8d:_SimpleCollator_LastIndexOfOrdinalIgnoreCase_m550798345
waa:__ZNK9GfxDevice13GetViewMatrixEv
XVh:_Bounds_Encapsulate_m17114941
T8a:__ZN17RemapPPtrTransferC2E24TransferInstructionFlagsb
Y1:__ZN8TypeTree8BlobReadERPKhS1_ib
YHa:__ZN6CameraD0Ev
jgi:_GUILayoutUtility_Begin_m659595645
X9d:_ModulusRing_Multiply_m386339435
u7:__ZN31CanvasBatchIntermediateRenderer16StaticInitializeEPv
Ujd:_GraphicRaycaster_U3CRaycastU3Em__0_m3971200721
G_e:_ReadOnlyCollection_1_System_Collections_IList_RemoveAt_m3004588099_gshared
yw:__ZN7mecanim12AndValueMaskILb0EEEvPKNS_14ValueArrayMaskEPS1_
B6a:__ZN14SafeBinaryRead21TransferSTLStyleArrayINSt3__26vectorIi13stl_allocatorIiL18MemLabelIdentifier13ELi16EEEEEEvRT_17TransferMetaFlags
BGd:_Decimal_op_Implicit_m4246329390
Ahe:_ArgumentNullException__ctor_m2252076819
cVb:__ZN10GameObjectC2E18MemLabelIdentifier18ObjectCreationMode
OGc:_raccess_guess_apple_double
wxe:_MonoType_GetAttributeFlagsImpl_m250699879
Jyf:_SerializationInfo__ctor_m4016423422
Kma:__ZL18ProgramUniform1uivPK7ApiGLESjiihPKv
D1b:__ZN14Texture2DArray13RebuildMipMapEv
wDi:__ZN13Il2CppHashSetIPK17Il2CppGenericInstN6il2cpp8metadata21Il2CppGenericInstHashENS4_24Il2CppGenericInstCompareENSt3__29allocatorI10KeyWrapperIS2_EEEEC2EjRKS5_RKS6_
l8i:__ZN6il2cpp2gc16GarbageCollector14RemoveWeakLinkEPPv
jfb:__ZN9ShaderLab20SerializedSubProgram14AddVectorParamEPKcii15ShaderParamTypei
n1e:_ReadOnlyCollection_1_System_Collections_IEnumerable_GetEnumerator_m1734360860_gshared
cJh:_ResourceSet_ReadResources_m1669023823
Mfe:_PKCS12_RemoveCertificate_m1590055870
pZi:__ZN6il2cpp2vm6Thread7SetNameEP12Il2CppThreadP12Il2CppString
uDb:__ZN13ScreenManager18SetAllowCursorLockEb
vS:__ZN11UnityEngine15CloudWebService10RestClientINS0_23WebRequestRestHeaderMapEE16SetRequestHeaderERKN4core12basic_stringIcNS4_20StringStorageDefaultIcEEEESA_
G6a:__ZN30RuntimeInitializeOnLoadManager15ClassMethodInfo8TransferI14SafeBinaryReadEEvRT_
pEg:__ZL73CanvasScaler_t2574720772_CustomAttributesCacheGenerator_m_ScreenMatchModeP21CustomAttributesCache
VO:__ZL22InitializeModule_Audiov
Fjb:__ZN16MemoryFileSystem8IsLockedERK13FileEntryData
Z_i:__ZN6il2cpp6icalls8mscorlib6System2IO6MonoIO5WriteEiP11Il2CppArrayiiPi
aZf:_MonoCMethod_Invoke_m931478014
fIg:__Z86RuntimeInvoker_Int32_t2071877448_Int16_t4041245914_Int32_t2071877448_Int32_t2071877448PFvvEPK10MethodInfoPvPS4_
jJh:_SatelliteContractVersionAttribute__ctor_m2605651717
Tk:_emscripten_glBindRenderbuffer
Vqg:__ZL77RuntimePlatform_t1869584967_CustomAttributesCacheGenerator_OSXDashboardPlayerP21CustomAttributesCache
Nej:_GC_dirty_init
Jrd:_Array_Copy_m1969461849
byf:_MessageFormatter_ReadMethodResponse_m4134629501
m5i:__ZN6il2cpp2vm5Field14GetValueObjectEP9FieldInfoP12Il2CppObject
iLc:__ZNK2UI6Canvas16GetTargetDisplayEv
uQd:_Environment_get_OSVersion_m1247315981
l5:__ZN6Object17FindObjectsOfTypeEPKN5Unity4TypeER13dynamic_arrayIPS_Lj4EEb
FAb:__ZN13MonoBehaviour17RemoveFromManagerEv
IIa:__ZN12ImageFilters14AddImageFilterERK11ImageFilter
cZa:__ZL11DecodeValuePPKcS0_
Rhh:_ShimEnumerator_MoveNext_m2013866013_gshared
CV:__ZN13MemoryManagerC2Ev
fqa:__ZN12SkinMeshInfo10DeallocateEPS_
cCa:__ZN20ArchiveStorageReader28AcquireAndPrefillUnusedBlockEjPNS_11CacheResultE
x1b:__Z12NHxRoughnessIA4_tEvP9Texture2DPT_iiii
H5:__ZN18AsyncUploadManagerD2Ev
hhb:__ZN9Transform5ResetEv
tsb:__Z22TransferField_NonArrayI24GenerateTypeTreeTransfer16Converter_StringEvRK23StaticTransferFieldInfoR31RuntimeSerializationCommandInfoRT0_
tzc:_UNITY_FT_CMap_New
nDb:__Z17MainLoopKeepalivePv
JOh:_MatchCollection__ctor_m1944681790
RWc:_HMACSHA512__ctor_m1667460019
Okj:_printf_core
jye:_MonoType_ToString_m473949831
kSb:__Z14CalcHullBoundsPK8Vector3fPKhhRK5PlaneRK10Matrix4x4fR10MinMaxAABB
$vf:_RealProxy__ctor_m2147093603
YKb:__Z19SetupLODFadeKeywordR17ShaderPassContexti
rdj:_GC_set_fl_marks
Kpa:__ZL25CheckCopyTextureArgumentsRK7ApiGLESP11GLESTextureS3_
X7a:__ZN13dynamic_arrayI26EnlightenSystemInformationLj8EE6insertEPS0_PKS0_S4_
Zyc:_tt_name_entry_ascii_from_utf16
vye:_MulticastNotSupportedException__ctor_m2164514827
wJd:_DateTime_System_IConvertible_ToChar_m2489529194_AdjustorThunk
Srb:__Z29Transfer_Blittable_ArrayFieldI24GenerateTypeTreeTransferyEvRT_R9ArrayInfoRK23StaticTransferFieldInfo
YI:__ZN4FMOD7SystemI9playSoundE17FMOD_CHANNELINDEXPNS_5SoundEbPPNS_7ChannelE
aRh:_Regex_GetGroupIndex_m1686599756
Crg:__ZL68PreferBinarySerialization_t2472773525_CustomAttributesCacheGeneratorP21CustomAttributesCache
xw:__ZN27AnimationLayerMixerPlayable17LayerMixerProcessEP35AnimationPlayableEvaluationConstantP32AnimationPlayableEvaluationInputP33AnimationPlayableEvaluationOutputM17AnimationPlayableFvS1_S3_S5_EMS_FvS1_S3_S5_ESA_MS_FvS5_S1_S3_S5_ifE
fOi:__ZN6il2cpp2os4File4ReadEPNS0_10FileHandleEPciPi
yH:__ZN12AudioManager23VirtualRedirectTransferER18StreamedBinaryReadILb0EE
inj:_realloc
Agc:__Z57Register_UnityEngine_Transform_INTERNAL_get_localRotationv
Ebh:_ScrollRect_SetLayoutVertical_m1225848090
O1h:_Plane_ToString_m4267831659_AdjustorThunk
pKf:_Type_get_IsInterface_m3583817465
hrj:dynCall_viif
KZf:_MonoField_get_DeclaringType_m1591666235
msf:_Enumerator_MoveNext_m4234629003
FDc:_cf2_hint_lock
ypb:__ZL26Transfer_SimpleNativeClassI17RemapPPtrTransfer8GradientLb0EEvRK29SerializationCommandArgumentsR31RuntimeSerializationCommandInfo
hy:__ZN17AnimationPlayable26DisconnectNoTopologyChangeEPS_i
uxe:_MonoType_GetDefaultConstructor_m925465120
aLf:_Type_IsArrayImpl_m3073208555
dT:__ZN13UploadHandlerD2Ev
Fpj:dynCall_viiiiiffi
yc:_emscripten_glBlendFuncSeparate
g_:__Z20scripting_string_newPKc
Xec:__Z43Material_CUSTOM_Internal_CreateWithMaterialP12Il2CppObjectS0_
eqe:_Directory_GetCurrentDirectory_m44486537
BPe:_Collection_1_System_Collections_ICollection_CopyTo_m1047946700_gshared
Olc:__ZN9JSONWrite12AppendToNodeEPN5Unity9rapidjson12GenericValueINS1_4UTF8IcEE13JSONAllocatorEEPKcRS6_
EB:__ZNSt3__26__sortIRPFbPKN8Animator11AnimatorJobES4_EPS4_EEvT0_S9_T_
FG:__ZN17AudioCustomFilterD2Ev
uoa:__ZN18GfxFramebufferGLES18ReleaseFramebufferEP17RenderSurfaceBaseP14GfxContextGLES
AMh:_Context_GetDynamicPropertyCollection_m1987747444
anf:_X509Certificate2_get_Version_m1927399907
B3b:__ZN13ProduceHelperI6CameraLb0EE7ProduceE18MemLabelIdentifier18ObjectCreationMode
Ald:_Image_RadialCut_m3229543088
BU:__ZN19CloudServiceHandler34HandleSaveFileWebRequestPlayerLoopEv
Ux:__ZN7mecanim21ValueArrayReverseCopyEPKNS_18ValueArrayConstantEPKNS_10ValueArrayES2_PS3_PKi
nG:__Z31GetParentSampleClipFromInstancePN11SoundHandle8InstanceE
H$b:__ZNK28RectTransformPropertyBinding13GetFloatValueERKN11UnityEngine9Animation10BoundCurveE
zUb:__ZN6Camera22StandaloneCustomRenderENS_10RenderFlagEP6ShaderRKN4core12basic_stringIcNS3_20StringStorageDefaultIcEEEEPNS_21PerformRenderFunctionE
Y5a:__ZNSt3__26vectorI4PPtrI6ObjectE13stl_allocatorIS3_L18MemLabelIdentifier52ELi16EEE6assignINS_11__wrap_iterIPS3_EEEENS_9enable_ifIXaasr21__is_forward_iteratorIT_EE5valuesr16is_constructibleIS3_NS_15iterator_traitsISD_E9referenceEEE5valueEvE4typeESD_SD_
zjj:__ZN6il2cpp2os16ThreadLocalValue8GetValueEPPv
JHi:__ZN6il2cpp2vm13MetadataCache14GetGenericInstEPKPK10Il2CppTypej
m_c:_SHA384Managed_Initialize_m712692291
YO:__ZN13AudioListener17ReadExtensionNameEi
aLh:_ChannelInfo__ctor_m2502026239
Lb:invoke_iiidii
Zo:setThrew
p1b:__ZL21BuildEmptyCubeTexturePKci11ColorRGBA3217TextureColorSpace
uei:_Event_get_modifiers_m3267430607
$ab:__ZN14SafeBinaryRead21TransferSTLStyleArrayINSt3__26vectorIN9ShaderLab20SerializedSubProgramENS1_9allocatorIS4_EEEEEEvRT_17TransferMetaFlags
ipc:__Z15Transfer_StringI8JSONReadLb1EEvRK29SerializationCommandArgumentsR31RuntimeSerializationCommandInfo
Chf:_BasicConstraintsExtension_Encode_m3738782306
oMb:__Z25DoForwardShaderRenderLoopR17RenderLoopContextR13dynamic_arrayI16RenderObjectDataLj4EERK11CullResultsbbbN6Camera10RenderFlagE
p6d:_GameObject_GetComponent_TisRuntimeObject_m2812611596_gshared
xyc:_sfnt_load_face
Vee:_PKCS12_GetSymmetricAlgorithm_m1812022677
fGf:_UTF8Encoding_GetByteCount_m2372933408
xMh:_Context_get_NeedsContextSink_m1907794755
oyc:_UNITY_ft_service_list_lookup
Nbi:_Transform_get_localScale_m46214814
p6e:_ARC4Managed_GenerateKey_m716135508
Tic:__ZN5IMGUI21SelectReceivingWindowER8GUIStateb
mCh:_InternalEnumerator_1_get_Current_m3179981210_gshared
bV:__ZN13BaseAllocator13TryDeallocateEPv
trd:_Array_CreateInstance_m1054139389
vki:_U3CStartU3Ec__Iterator0_Reset_m2580847683_gshared
QJa:__ZNSt3__26vectorIN12FlareManager10FlareEntryENS_9allocatorIS2_EEE21__push_back_slow_pathIKS2_EEvRT_
WQf:_Default_check_arguments_with_score_m1714931543
NVc:_SHA1_Create_m4086509717
s_f:_MonoMethodInfo_GetMethodInfo_m3298558752
fH:__ZN13AudioListener17RemoveFromManagerEv
sd:_glAttachShader
Ghd:_Dropdown_SetAlpha_m2769981009
nGa:__ZNK6Camera19GetProjectionMatrixEv
owi:_Predicate_1_BeginInvoke_m1856151290_gshared
oOd:_StackTrace__ctor_m2404985356
c0:__Z38PreallocateObjectFromPersistentManagerib
KJd:_DateTime_System_IConvertible_ToSingle_m3927769066
FUa:__ZNK9Texture2D20GetUnscaledTextureIDEv
VHd:_Convert_ToSByte_m883113940
wyi:_Canvas_get_renderOrder_m2592588836
lye:_MonoType_get_ContainsGenericParameters_m3229732653
SOe:_Queue_1_Peek_m1463479953_gshared
SAi:_Animator_ResetTriggerString_m946167554
OBg:__ZL53InputField_t1631627530_CustomAttributesCacheGeneratorP21CustomAttributesCache
Nei:_GUI_set_skin_m929513544
fdd:_ButtonClickedEvent__ctor_m938038541
_Og:__Z119RuntimeInvoker_Int32_t2071877448_RuntimeObject_Int32_t2071877448_Int32_t2071877448_CharU26_t1894467670_SByte_t454417549PFvvEPK10MethodInfoPvPS4_
PLf:_UInt16_System_IConvertible_ToDouble_m4100549304_AdjustorThunk
i8a:__Z29ClearRepeatingLogMessageStatev
O2c:_Single_System_IConvertible_ToInt16_m962677079
_4:__ZN21EnlightenSceneMappingaSERKS_
Sjj:__ZNK6il2cpp8metadata21Il2CppGenericInstHashclEPK17Il2CppGenericInst
a3c:_Single_System_IConvertible_ToUInt32_m2447833283
oua:__ZN7ApiGLESD2Ev
iEa:__ZN9Transform47ClearTransformHierarchyAndApplyToSerializedDataEv
JAh:_InternalEnumerator_1_get_Current_m4083613828_AdjustorThunk
xqc:__ZN8JSONRead21TransferSTLStyleArrayINSt3__26vectorI8MonoPPtr13stl_allocatorIS3_L18MemLabelIdentifier1ELi16EEEEEEvRT_17TransferMetaFlags
cIa:__ZN6Camera23VirtualRedirectTransferER19StreamedBinaryWriteILb0EE
xrj:dynCall_fidi
_Qi:__ZN15dense_hashtableINSt3__24pairIK10KeyWrapperINS1_IPK9FieldInfoP11Il2CppClassEEEjEES9_17ReflectionMapHashIS8_EN14dense_hash_mapIS9_jSD_NS9_14EqualsComparerINS0_8equal_toIS8_EEEENS0_9allocatorISB_EEE9SelectKeyESI_SK_E12resize_deltaEjj
eHa:__ZN15dense_hashtableINSt3__24pairIKN9ShaderLab7Program23ShaderKeywordSetAndHashEPKNS2_10SubProgramEEES4_NS3_24ShaderKeywordHashFunctorEN14dense_hash_mapIS4_S8_SA_NS0_8equal_toIS4_EE13stl_allocatorIS9_L18MemLabelIdentifier67ELi16EEE9SelectKeyESD_SG_E15insert_noresizeERKS9_
w9b:__ZNK13MonoBehaviour13GetScriptTypeEv
ROa:__ZN13RenderTexture12SetDimensionE16TextureDimension
he:_SDL_FreeRW
kde:_PKCS1_OS2IP_m1273945439
OZc:_SHA1Internal_FillBuff_m891541953
yMc:__Z34CanvasRenderer_Get_Custom_PropCullP12Il2CppObject
HM:__ZN20SoundChannelInstance8getDelayE14FMOD_DELAYTYPEPjS1_
Fmd:_InputField_set_customCaretColor_m3534590098
oah:_ScrollRect_set_viewport_m323693490
ime:_NumberFormatter_FormatExponential_m3975285307
Rtc:__ZNSt3__26vectorIN20TextRenderingPrivate8FontImpl13CharacterInfoE13stl_allocatorIS3_L18MemLabelIdentifier1ELi16EEE8__appendEj
v:tempBigInt
pe:_emscripten_glVertexAttrib1fv
q0h:_Mesh_CheckCanAccessSubmesh_m764012688
Gbb:__ZNSt3__26vectorIN9ShaderLab20SerializedSubProgram12UAVParameterENS_9allocatorIS3_EEE7reserveEj
Aoj:__ZSt11__terminatePFvvE
cfg:__ZL99Thread_t241561612_CustomAttributesCacheGenerator_Thread_t241561612____ExecutionContext_PropertyInfoP21CustomAttributesCache
wJ:__ZN12AudioManager14systemCallbackEP11FMOD_SYSTEM24FMOD_SYSTEM_CALLBACKTYPEPvS3_
Yti:__ZL25UnresolvedVirtualCall_195P12Il2CppObjectfPK10MethodInfo
fOa:__ZN16ReflectionProbes16UpdateSampleDataEv
xKh:_SafeHandle_Finalize_m1839546519
gNh:_Context_AllocateNamedDataSlot_m3200404053
_lf:_X509EnhancedKeyUsageExtension_Decode_m3866320499
eme:_NumberFormatter_AppendIntegerStringWithGroupSeparator_m1401773574
Me:_JS_Sound_Play
Pld:_Image_IsRaycastLocationValid_m864962354
kLg:__Z181RuntimeInvoker_Void_t1841601450_RuntimeObject_Int32_t2071877448_Int32_t2071877448_RuntimeObject_Int32_t2071877448_Int32_t2071877448_RuntimeObject_Int32_t2071877448_Int32_t2071877448PFvvEPK10MethodInfoPvPS4_
Cab:__ZN9ShaderLab16SerializedShader8TransferI14SafeBinaryReadEEvRT_
YA:__ZN7mecanim8skeleton13SkeletonAlignEPKNS0_8SkeletonERKN4math7_float4ES7_i
h2b:__ZN19ShaderPropertySheet16SetVectorIndexedEN9ShaderLab16FastPropertyNameEifRK8Vector4fNS_8SetFlagsE
vwf:_RemotingConfiguration_RegisterWellKnownServiceType_m2491506630
Q9f:__ZL55_TypeBuilder_t2783404358_CustomAttributesCacheGeneratorP21CustomAttributesCache
Ypd:_LayoutRebuilder_Initialize_m2671585490
THe:_List_1_System_Collections_IList_IndexOf_m4061554721_gshared
iU:__ZN11UnityEngine15CloudWebService14DataDispatcher4StopEv
Ibb:__ZNSt3__26vectorIN9ShaderLab20SerializedSubProgram12UAVParameterENS_9allocatorIS3_EEE8__appendEj
V$c:_X509Certificate_ToString_m1582581274
Hjh:_Enumerator_get_Current_m2986380627_gshared
sza:__ZN17ScriptingGCHandle7AcquireE18ScriptingObjectPtr25ScriptingGCHandleWeakness
hMh:_LifetimeServices_set_LeaseTime_m1487876644
fSf:_ConstructorBuilder_not_supported_m3687319507
uKc:__ZN2UI14CanvasRenderer14AttachToCanvasER8JobFencePNS_6CanvasENS0_15InstructionTypeE
T2c:_Single_System_IConvertible_ToInt64_m3555853323_AdjustorThunk
uqj:dynCall_iifiii
dja:__Z21HasAlphaTextureFormat13TextureFormat
lO:__ZN12AudioManager6UpdateEv
Yia:__ZN14ImageReference9BlitImageERKS_NS_8BlitModeE
is:__ZN8Animator12AddToManagerEv
yhh:_ShimEnumerator_get_Key_m1171725158_gshared
yBb:__ZN23CachedSerializationDataD2Ev
zTb:__ZNK25CameraStackRenderingState31CalculateStereoCameraTargetTypeEv
INa:__ZN14RenderSettings23VirtualRedirectTransferER14SafeBinaryRead
a7i:__ZN6il2cpp2os10ThreadImpl15CurrentThreadIdEv
RTd:_Array_InternalArray__ICollection_Contains_TisColor32_t874517518_m2818328910_gshared
qpi:_AudioExtensionManager_WriteExtensionProperties_m4015275001
pGc:_UNITY_tt_face_load_fpgm
ZDa:__Z17IsObjectAvailablei
Z2a:__ZN12InputManagerD0Ev
Phj:__ZN6il2cpp6icalls8mscorlib6System11Diagnostics10StackTrace9get_traceEP15Il2CppExceptionib
_fd:_DefaultControls_CreateUIObject_m2810394112
THa:__ZNK16LightmapSettings14GetLightProbesEv
aFf:_UnicodeEncoding_GetBytes_m1337660232
nnj:_posix_memalign
x2b:__ZN13ProduceHelperI12MeshRendererLb0EE7ProduceE18MemLabelIdentifier18ObjectCreationMode
zFh:_InternalEnumerator_1_get_Current_m747506907_AdjustorThunk
SUh:_LogCallback_Invoke_m115567905
f0:__ZNK15MonoScriptCache7ReleaseEv
kCi:__ZN6il2cpp2vm5Class13HasReferencesEP11Il2CppClass
$f:_glBindTexture
Clj:_snprintf
mnd:_InputField_set_caretPosition_m888572237
wVf:_ILGenerator__cctor_m3943061018
uyd:_ArrayListWrapper_Clone_m1506311066
pzi:_CanvasRenderer_CreateUIVertexStream_m2882962535
H9a:__Z36scripting_liveness_calculation_begin17ScriptingClassPtriPFvPP12Il2CppObjectiPvES3_PFvvES7_
Wra:__ZN16UniformCacheGLES6CreateERK20GpuProgramParameters
oGf:_UTF8Encoding_Fallback_m811555654
XNf:_UInt64_CompareTo_m3513742483
WYd:_Array_InternalArray__IndexOf_TisPlayableBinding_t2498078091_m398853908_gshared
J8d:_SimpleCollator_MatchesForwardCore_m558011650
d$e:_ReadOnlyCollection_1_System_Collections_IList_Clear_m1918003010_gshared
guj:_emscripten_glGetProgramInfoLog__wrapper
Pbi:_Transform_set_localScale_m1442831667
FD:__ZN25AnimatedPropertyEvaluator29BindCurveToScriptingObjectPtrERKN13AnimationClip10FloatCurveEj18ScriptingObjectPtrb
sGf:_UTF8Encoding_InternalGetChars_m373801468
p1:__ZN17PersistentManager23DestroyFromFileInternalEi
zMd:_Decimal_System_IConvertible_ToChar_m2425091200_AdjustorThunk
DMb:__Z19SetupMotionMatricesR6CameraR18RPDataMotionVector
mQd:_Enum_ToString_m2112979707
huf:_MonoMethodMessage_get_MethodName_m3580519713
lC:__ZN26AnimatorControllerPlayable18PrepareForPlaybackERN7mecanim6memory9AllocatorE
TWc:_HMACSHA512__cctor_m1167457383
jGf:_UTF8Encoding_GetBytes_m4170182058
tHe:_List_1_IndexOf_m2418862432_gshared
qHa:__ZN22CreateGpuProgramOutputC2Ev
tse:_MemoryStream_InternalConstructor_m2423667240
cvf:_SoapMethodAttribute_SetReflectionObject_m3431595769
Qch:_Slider_set_maxValue_m2951480075
b3b:__ZN8GUILayer12CleanupClassEv
Aod:_InputField_OnSubmit_m2856515494
jCi:__ZN6il2cpp2vm5Class4InitEP11Il2CppClass
ga:invoke_vidi
LKc:__ZN2UI14CanvasRenderer17SyncDirtyElementsER8JobFence
Red:_ColorBlock_op_Inequality_m1517672458
Iaj:__ZN6il2cpp5utils11StringUtils15StringDuplicateEPKc
UUb:__Z15CanAddComponentR10GameObjectPKN5Unity4TypeE
HGa:__ZNK9ShaderLab21ShaderRasterStateDesc16ToGfxRasterStateEPK19ShaderPropertySheetS3_R14GfxRasterState
$V:_tlsf_memalign
QBf:_CspParameters__ctor_m2480441577
Hjj:__ZN6il2cpp2os9EventImplC2Ebb
JMh:_DynamicPropertyCollection_NotifyMessage_m840388347
oTh:_Uri_ParseUri_m5711497
qUg:__Z98RuntimeInvoker_RuntimeObject_RuntimeObject_RayU26_t3651946800_Single_t2076509932_Int32_t2071877448PFvvEPK10MethodInfoPvPS4_
OY:__Z20IsMatrixBuiltinParamPKcPi
Q1b:__ZN8Renderer19PostInitializeClassEv
zvh:_InternalEnumerator_1_get_Current_m1943362081_AdjustorThunk
Xfj:__ZN6il2cpp6icalls8mscorlib6System8Delegate23CreateDelegate_internalEP20Il2CppReflectionTypeP12Il2CppObjectP22Il2CppReflectionMethodb
QQf:_Default_check_type_m2363631305
TAb:__ZN18DelayedCallManager18CancelCallDelayed2E4PPtrI6ObjectEPF15CallObjectStatePS1_PvES7_
nxa:__ZN25ThreadsafeLinearAllocator10ReallocateEPvji
$kb:__Z18Transfer_BlittableI14SafeBinaryReadLb1E11QuaternionfEvRK29SerializationCommandArgumentsR31RuntimeSerializationCommandInfo
n9:__ZN18SpriteAtlasManagerD0Ev
YYd:_Array_InternalArray__IndexOf_TisRaycastHit2D_t4063908774_m3739817942_gshared
R_f:_MonoProperty_GetAccessors_m3704698731
yfj:_GC_disable
S0a:__ZN10Matrix4x4f8TransferI14SafeBinaryReadEEvRT_
Kve:_UnmanagedMemoryStream_ReadByte_m2501145010
lyf:_ObjectRecord_UnchainFixup_m3025030310
iC:__ZN14AvatarPlayback8StopTimeEv
A3:__Z6AppendRKN4core12basic_stringIcNS_20StringStorageDefaultIcEEEEPKc
pUg:__Z81RuntimeInvoker_RuntimeObject_Ray_t2469606224_Single_t2076509932_Int32_t2071877448PFvvEPK10MethodInfoPvPS4_
IWh:_Color_ToString_m55788918_AdjustorThunk
vga:__ZN7ApiGLES18ClearBufferSubDataEjN2gl12BufferTargetEll
bbc:__Z37Camera_Get_Custom_PropAllCamerasCountv
H$a:__ZN14Texture2DArray8TransferI18StreamedBinaryReadILb0EEEEvRT_
CZi:__ZN6il2cpp6icalls8mscorlib6System5Array9GetLengthEP11Il2CppArrayi
KQb:__Z18ApplyOcclusionMaskR19ProbeOcclusionCacheRK17LightProbeContextRK10RenderNodeb
Ore:_FileStreamAsyncResult__ctor_m1096228032
eBc:_Split_Cubic
cb:invoke_fiiii
aMd:_DBNull_System_IConvertible_ToSByte_m1228193074
GRe:_Collection_1__ctor_m2818834331_gshared
KSg:__Z68RuntimeInvoker_UInt16_t986882611_UInt16_t986882611_UInt16_t986882611PFvvEPK10MethodInfoPvPS4_
yii:_UnityAction_1_Invoke_m3979091955_gshared
ore:_FileStream_FlushBuffer_m2594140542
vbj:__ZN6il2cpp2vm8Profiler12GCHeapResizeEx
Drj:dynCall_viiifi
Yna:__ZN18GfxFramebufferGLES20ActiveContextChangedEPP17RenderSurfaceBaseS2_
Lna:__Z19PluginsRenderMarkeri
dE:__ZN10HumanTrait18InitializeBoneNameEv
a3i:__ZNSt3__214__split_bufferIN6il2cpp2vm5Image20EmbeddedResourceDataERNS_9allocatorIS4_EEEC2EjjS7_
Ekd:_HorizontalOrVerticalLayoutGroup_get_spacing_m2859152439
Y8f:__ZL57DispIdAttribute_t607560947_CustomAttributesCacheGeneratorP21CustomAttributesCache
NG:__ZN12AudioManager17RemoveAudioSourceEP11AudioSource
Pfi:_GUILayoutEntry_SetVertical_m861127195
kmi:_AesManaged_get_KeySize_m2773901127
T5d:_Array_InternalArray__get_Item_TisUInt64_t2909196914_m2580870875_gshared
DGf:_UTF8Decoder_GetChars_m3819660582
cQ:__ZN5physx14PxLightCpuTask12addReferenceEv
D4i:__ZN6il2cpp2gc16GarbageCollector19InitializeFinalizerEv
Wx:__ZN7mecanim8skeleton18CreateSkeletonMaskEjPKNS0_19SkeletonMaskElementERNS_6memory9AllocatorE
pic:__ZN10GUIManager10DoGUIEventER10InputEventb
Sqb:__Z35Transfer_Blittable_FixedBufferFieldI24GenerateTypeTreeTransferxEvRK29SerializationCommandArgumentsR31RuntimeSerializationCommandInfo
uGc:_UNITY_TT_Init_Glyph_Loading
DLb:__Z20CalculateSqrDistanceRK8Vector3fRK4AABB
_K:__Z32AudioMixerDuckingProcessCallbackP21UnityAudioEffectStatePfS1_jii
DRf:_CustomAttributeTypedArgument_GetHashCode_m999147081_AdjustorThunk
U0b:__ZN26CustomRenderTextureManagerD2Ev
mdc:__Z32Input_Get_Custom_PropInputStringv
xre:_FileStream_Read_m3880951166
Xpi:_AudioExtensionManager_Update_m3727859914
DH:__ZN12AudioManager8TransferI24GenerateTypeTreeTransferEEvRT_
fia:__Z25GetBytesFromTextureFormat13TextureFormat
u_i:__ZN6il2cpp6icalls8mscorlib6System9Threading6Thread20Thread_free_internalEP12Il2CppThreadi
Hpj:dynCall_iiffi
yD:__ZN16MecanimAnimation25RegisterIAnimationBindingEPKN5Unity4TypeEiP17IAnimationBinding
e1:__Z32scripting_class_get_assemblyname17ScriptingClassPtr
COc:__ZN11UnityEngine15PlatformWrapper15GetVRDeviceNameEv
Wlh:_Dictionary_2_Resize_m2532139610_gshared
L$h:_Mathf_RoundToInt_m1833913145
vJf:_TimeSpan_Equals_m2029123271_AdjustorThunk
gIi:__ZN6il2cpp2vm13MetadataCache23GetInvokerMethodPointerEPK10MethodInfoPK20Il2CppGenericContext
pta:__ZN9GfxDevice21RegisterNativeTextureE9TextureIDi16TextureDimension
dSd:_CultureInfo__ctor_m456863818
dhj:__ZN6il2cpp6icalls8mscorlib6System10Reflection4Emit11TypeBuilder20create_generic_classEP27Il2CppReflectionTypeBuilder
hCe:_Enumerator_MoveNext_m2504790928_gshared
HP:__Z60Register_UnityEngine_AudioListener_GetNumExtensionPropertiesv
Si:_emscripten_glUniformMatrix4fv
FXi:__ZN15dense_hashtableINSt3__24pairIK10KeyWrapperINS1_IP11Il2CppClassjEEES4_EES6_N6il2cpp8metadata14ArrayClassHashEN14dense_hash_mapIS6_S4_SB_NS6_14EqualsComparerINSA_17ArrayClassCompareEEENS0_9allocatorIS8_EEE9SelectKeyESF_SH_E13set_empty_keyERKS8_
Ufb:__ZN12ScriptMapperD2Ev
wWc:_KeyedHashAlgorithm_Dispose_m1864300576
O2h:_X509Certificate_PEM_m49854707
bmf:_X509BasicConstraintsExtension__ctor_m3320418592
Y1h:_ExtendedKeyUsageExtension_Decode_m901297139
Ufc:__Z52Register_UnityEngine_RenderTexture_Internal_GetWidthv
iej:_GC_check_leaked
keb:__ZN9ShaderLab20SerializedSubProgram16TextureParameter8TransferI19StreamedBinaryWriteILb0EEEEvRT_
D0d:_Array_InternalArray__Insert_TisVector4_t2243707581_m1643342708_gshared
wwa:__ZNK7Hash12812PackToUInt32Ev
V2:__ZNSt3__227__insertion_sort_incompleteIRNS_6__lessI14ObjectLoadDataS2_EEPS2_EEbT0_S6_T_
qU:__ZN11UnityEngine15CloudWebService16SessionContainer8AddEventEPNS0_14CloudEventInfoE
Yra:__Z4TrimRKN4core12basic_stringIcNS_20StringStorageDefaultIcEEEES5_
Ydh:_Text_set_resizeTextMaxSize_m4034967714
R3f:__ZL55GuidAttribute_t222072359_CustomAttributesCacheGeneratorP21CustomAttributesCache
oRf:_CustomAttributeNamedArgument_Equals_m2691468532
e_a:__ZN10VertexData8TransferI14SafeBinaryReadEEvRT_
SI:__ZN4FMOD8ChannelI8setDelayE14FMOD_DELAYTYPEjj
vDd:_Stack__ctor_m2410583781
cfj:_GC_malloc_atomic
OQf:_Default_GetBetterMethod_m4255740863
qSf:_ConstructorBuilder_GetILGenerator_m1731893569
c3i:__ZNSt3__214__split_bufferIN6il2cpp2vm5Image20EmbeddedResourceDataERNS_9allocatorIS4_EEED2Ev
f$:__ZL20SortItemByInstanceIDRKN18AwakeFromLoadQueue4ItemES2_
uXf:_TypeBuilder_create_runtime_class_m2719530260
SYc:_RNGCryptoServiceProvider_RngClose_m2921734810
gy:__ZNK34AnimationStateMachineMixerPlayable26GetInterruptedPosePlayableEv
yRc:__ZN20UnityConnectSettings8TransferI24GenerateTypeTreeTransferEEvRT_
zA:__ZN34BlobWriteTransferSTLStyleArrayImplI22OffsetPtrArrayTransferIbEEclERS1_17TransferMetaFlagsR9BlobWrite
K7d:_SimpleCollator_IsHalfKana_m4255579023
EPe:_Collection_1_System_Collections_IList_Contains_m3365884450_gshared
CAa:__Z16FlaggedAsSkippedIN4core12basic_stringIcNS0_20StringStorageDefaultIcEEEEEbRK13FileEntryInfoRKT_19FileEnumerationFlag
P4:__ZL31InitializeRendererUpdateManagerPv
bRg:__Z106RuntimeInvoker_RuntimeObject_Int16_t4041245914_RuntimeObject_BooleanU26_t3168250738_BooleanU26_t3168250738PFvvEPK10MethodInfoPvPS4_
Dvi:_Terminal_Awake_m2961603900
nbf:_ClientSessionInfo_Dispose_m2571428025
Kpd:_LayoutGroup_DelayedSetDirty_m4276695617
zef:_RecordProtocol_decryptRecordFragment_m2510859489
Bhi:_InvokableCall_1__ctor_m975753341_gshared
P3a:__ZN11TimeManager8TransferI19StreamedBinaryWriteILb0EEEEvRT_
dse:_DelegatePInvokeWrapper_ReadDelegate_t3184826381
$Bc:_compare_uni_maps
nPc:__ZN11UnityEngine15PlatformWrapper27GetGraphicsCapsSupportFlagsEv
qNd:_Decimal_Equals_m1115043331
tub:__ZN12NativeBufferI16Converter_StringE15SetupForWritingER9ArrayInfo
ktj:___cxa_end_catch__wrapper
Vkh:_ValueCollection_System_Collections_Generic_ICollectionU3CTValueU3E_Clear_m231380274_gshared
L8c:_Entry__ctor_m1176697586
BBb:__ZN13MonoBehaviour22DoScriptRebuildWarningEv
dbc:__Z38Camera_CUSTOM_INTERNAL_CALL_RaycastTryP12Il2CppObjectRK3Rayfi
feh:_Text_get_verticalOverflow_m3134063496
wZi:__ZN6il2cpp6icalls8mscorlib6System5Array13ClearInternalEP11Il2CppArrayii
SJh:_GCHandle_get_Target_m2327042781
Ulc:__ZN8JSONRead21TransferSTLStyleArrayI13dynamic_arrayI11KeyframeTplIfELj4EEEEvRT_17TransferMetaFlags
hpj:_llvm_cttz_i32
wmf:_PublicKey_DecodeDSA_m1169363495
sjc:__ZN11IMGUIModule25GetGUIStyleScriptingClassEv
TEc:_tt_get_interface
O2d:_Array_Sort_TisRuntimeObject_m143182644_gshared
f_i:__ZN6il2cpp5utils9PathUtils7CombineIcEENSt3__212basic_stringIT_NS3_11char_traitsIS5_EENS3_9allocatorIS5_EEEERKSA_SC_
Jif:_NameObjectCollectionBase_BaseGet_m667273025
XNg:__Z104RuntimeInvoker_RuntimeObject_Byte_t3683104436_RuntimeObject_SByte_t454417549_RuntimeObject_RuntimeObjectPFvvEPK10MethodInfoPvPS4_
Zoc:__ZN9JSONWrite8TransferI13dynamic_arrayIiLj4EEEEvRT_PKc17TransferMetaFlags
F4b:__ZN13PlayableGraph21InvalidateMultithreadEv
j_:__Z18ConvertUTF16toUTF8PPKtS0_PPhS2_15ConversionFlags
Igi:_GUIStyleState__ctor_m3673085649
LKf:_TypeLoadException__ctor_m1903359728
Pzi:__ZL16my_g_bit_nth_msfj
wVc:_KeySizes__ctor_m3526899007
Bke:_Int16_System_IConvertible_ToInt32_m191782913_AdjustorThunk
Qrg:__ZL69ArgumentCache_t4810721_CustomAttributesCacheGenerator_m_FloatArgumentP21CustomAttributesCache
LCf:_EncoderReplacementFallback__ctor_m2208438262
OJb:__Z23SetupStereoFlareElementP11FlareVertexRK8Vector2fS3_S3_RK11ColorRGBA32RK10Matrix4x4fRK8Vector3fb
sa:invoke_iiiifiiii
C8h:_RectTransform_set_anchoredPosition_m4223859262
pqe:_Directory_GetFiles_m4036267478
KPd:_Enum_System_IConvertible_ToType_m2669300536
Aoa:__ZL19BlitFramebufferImplRN4gles23BlitFramebufferDrawQuadER9GfxDevice9TextureIDRK8Vector4f
ARi:__ZN15dense_hashtableINSt3__24pairIK10KeyWrapperIPK10Il2CppTypeEjEES6_N6il2cpp8metadata14Il2CppTypeHashEN14dense_hash_mapIS6_jSB_NS6_14EqualsComparerINSA_26Il2CppTypeEqualityComparerEEENS0_9allocatorIS8_EEE9SelectKeyESF_SH_E4findERS7_
Cai:_StackTraceUtility_ExtractStringFromExceptionInternal_m234524721
uZe:_ReadOnlyCollection_1_System_Collections_IList_Add_m2333231354_gshared
Ivc:_UNITY_FT_List_Add
PWf:_OpCodes__cctor_m939885911
r1b:__ZN14Texture2DArray11InitTextureEiii13TextureFormatb
cff:_RSASslSignatureDeformatter_SetHashAlgorithm_m4048969080
wUh:_UriParser_InitializeAndValidate_m251943319
d$c:_SymmetricAlgorithm_set_Padding_m3081984460
rWi:__ZN15dense_hashtableINSt3__24pairIK10KeyWrapperINS1_IPK11Il2CppImageP11Il2CppClassEEEjEES9_17ReflectionMapHashIS8_EN14dense_hash_mapIS9_jSD_NS9_14EqualsComparerINS0_8equal_toIS8_EEEENS0_9allocatorISB_EEE9SelectKeyESI_SK_E14squash_deletedEv
y3a:__ZN9InputAxis8TransferI18StreamedBinaryReadILb0EEEEvRT_
TNb:__ZNK6Camera26GetStereoSingleCullEnabledEv
Ozf:_StreamingContext_t1417235061_marshal_pinvoke_back
R6a:__Z14resize_trimmedINSt3__26vectorIN4core12basic_stringIcNS2_20StringStorageDefaultIcEEEE13stl_allocatorIS6_L18MemLabelIdentifier13ELi16EEEEEvRT_j
Hxd:_ArrayList_RemoveAt_m2578928333
Jlb:__Z18Transfer_BlittableI14SafeBinaryReadLb0EaEvRK29SerializationCommandArgumentsR31RuntimeSerializationCommandInfo
Zhi:_InvokableCall_3__ctor_m4270240248_gshared
AYe:_ReadOnlyCollection_1_System_Collections_IList_set_Item_m1233322304_gshared
d2h:_GeneralNames_get_DNSNames_m2721668874
APd:_Enum_System_IConvertible_ToByte_m38374586
iYe:_ReadOnlyCollection_1_System_Collections_Generic_IListU3CTU3E_RemoveAt_m1592158292_gshared
wsj:_emscripten_glFrustum__wrapper
Ref:_ReceiveRecordAsyncResult_get_CompletedWithError_m2670396551
bNd:_Decimal_Equals_m1798565377
sdb:__ZN15SerializeTraitsINSt3__26vectorIN9ShaderLab20SerializedSubProgram15MatrixParameterENS0_9allocatorIS4_EEEEE8TransferI24GenerateTypeTreeTransferEEvRS7_RT_
CTf:_TypeBuilder_check_created_m2929267877
ORg:__Z121RuntimeInvoker_Int64_t909078037_Int32_t2071877448_Int32_t2071877448_Int32_t2071877448_Int32_t2071877448_Int32_t2071877448PFvvEPK10MethodInfoPvPS4_
_Hb:__Z20SyncFenceCullResultsR11CullResults
Mqa:__ZN15TextureTFMethod20IsBoneCountSupportedEi
HNa:__ZN14RenderSettings23VirtualRedirectTransferER24GenerateTypeTreeTransfer
JJd:_DateTime_System_IConvertible_ToSByte_m2575078084_AdjustorThunk
bqb:__Z22TransferField_NonArrayI17RemapPPtrTransfer27Converter_SimpleNativeClassI8GUIStyleEEvRK23StaticTransferFieldInfoR31RuntimeSerializationCommandInfoRT0_
$$b:__ZNK17AnimationCurveTplIfE20EvaluateWithoutCacheEfRf
$8i:__ZN6il2cpp2os6Thread12QueueUserAPCEPFvPvES2_
YNa:__ZN19ShaderPropertySheet10SetTextureERK23FastTexturePropertyNameP7Texture
mSe:_Collection_1_IsValidItem_m1304951912_gshared
w6b:__ZN4Mesh10SetNormalsEPK8Vector3fj
XFd:_Convert_ToDateTime_m4161927553
ITf:_TypeBuilder_GetConstructors_m774120094
or:__ZN17AnimationCurveTplIfE8TransferI14SafeBinaryReadEEvRT_
YJd:_Calendar_get_EraNames_m452820602
FYa:__ZNSt3__26vectorIN15QualitySettings14QualitySettingENS_9allocatorIS2_EEE6assignIPS2_EENS_9enable_ifIXaasr21__is_forward_iteratorIT_EE5valuesr16is_constructibleIS2_NS_15iterator_traitsIS9_E9referenceEEE5valueEvE4typeES9_S9_
DIb:__ZNK19ShaderPropertySheet11HasPropertyERKN9ShaderLab16FastPropertyNameE
uJd:_DateTime_System_IConvertible_ToByte_m2670443498_AdjustorThunk
h5e:_BigInteger_op_Addition_m1734797151
U_a:__ZN15dense_hashtableINSt3__24pairIKN4core12basic_stringIcNS2_20StringStorageDefaultIcEEEE13dynamic_arrayI4PPtrI6SpriteELj4EEEES6_20StringHash32FunctionIS6_EN14dense_hash_mapIS6_SC_SF_NS0_8equal_toIS6_EE13stl_allocatorISD_L18MemLabelIdentifier81ELi16EEE9SelectKeyESI_SL_E4findERS7_
bUf:_EnumBuilder_CreateNotSupportedException_m62763134
iTc:__ZNK12HeaderHelper3GetERKN4core12basic_stringIcNS0_20StringStorageDefaultIcEEEE
Gnf:_X509Chain_CheckRevocation_m2480313486
fwe:_Math_Log_m3371716878
p3a:__ZN9InputAxis8TransferI14SafeBinaryReadEEvRT_
u$:__ZNK21ExecutionOrderManager30GetCustomAwakeFromLoadQueueForEPKN5Unity4TypeE
KSc:__Z27RegisterModule_UnityConnectv
lBd:_Hashtable__ctor_m4280223555
p$f:_ParameterInfo_get_IsRetval_m1881464570
Wvf:_RealProxy__ctor_m3041043303
yle:_NumberFormatter_Init_m2654758994
GWc:_HMACSHA1__ctor_m1168389339
kK:__ZN10ObjectPoolIN4FMOD12ChannelGroupENS0_13ChannelGroupIEE7SetSizeEi
Dae:_PrimalityTest_BeginInvoke_m966469054
SVh:_Bounds_get_max_m1939845278_AdjustorThunk
x$e:_ReadOnlyCollection_1_System_Collections_Generic_ICollectionU3CTU3E_Clear_m1785953911_gshared
HNf:_UInt64_System_IConvertible_ToInt16_m2797150165_AdjustorThunk
D5d:_Array_InternalArray__get_Item_TisLabelData_t3712112744_m863115768_gshared
mne:_Int32_Parse_m753946802
cqi:_AudioConfigurationChangeHandler_Invoke_m653824108
lMe:_List_1_RemoveAt_m2331128844_gshared
xWi:__ZN14dense_hash_mapI10KeyWrapperINSt3__24pairIPK9EventInfoP11Il2CppClassEEEj17ReflectionMapHashIS8_ENS9_14EqualsComparerINS1_8equal_toIS8_EEEENS1_9allocatorINS2_IKS9_jEEEEE15set_deleted_keyERSH_
SXf:_UnmanagedMarshal_ToMarshalAsAttribute_m3695569337
tnb:__Z14resize_trimmedINSt3__26vectorI17AnimationCurveTplIfE13stl_allocatorIS3_L18MemLabelIdentifier1ELi16EEEEEvRT_j
xTb:__ZN25CameraStackRenderingState19SetupLastEyeCamerasERK11CameraStack
DCa:__Z12GUIDToStringRK9UnityGUID
kG:__ZN11SoundHandleC2ERKS_
Yw:__ZN17AnimationPlayableC2E18DirectorPlayerType
qHi:__ZNK6il2cpp5utils11collections13ArrayValueMapIPK10Il2CppType17Il2CppInteropData26InteropDataToTypeConverterNS_8metadata14Il2CppTypeLessENS8_26Il2CppTypeEqualityComparerEE10find_firstERKS5_
ALa:__ZN15SerializeTraitsI12fixed_bitsetILi24EjEE8TransferI18StreamedBinaryReadILb0EEEEvRS1_RT_
iae:_BigInteger_op_Addition_m1196561843
Zyi:_CanvasRenderer_INTERNAL_CALL_GetColor_m3192682614
nMh:_FormatterData__ctor_m3974986124
cYc:_RijndaelManagedTransform_get_CanReuseTransform_m3735256596
JAd:_Comparer__cctor_m1327316974
kqe:_MonoIO_ExistsFile_m1421941572
gLd:_DateTime_op_GreaterThanOrEqual_m3818963848
Zu:__ZN17AnimationPlayable18DeallocateBindingsEv
eVb:__ZN6Camera25StandaloneRenderToCubemapEP7TextureiPFvPK9SceneNodePK4AABBR9IndexListPvESA_j
bgd:_DefaultControls_SetDefaultTextValues_m1707718380
ccd:_TouchInputModule_UseFakeInput_m2112019004
b8c:_EventSystem_get_baseEventDataCache_m4294741599
MNa:__ZN14RenderSettings18TransferDeprecatedI14SafeBinaryReadEEvRT_
wX:__ZN12TLSAllocatorI14StackAllocatorE8AllocateEji
u0:__ZN16ScriptingManager18GetMonoScriptCacheEi
KJg:__Z62RuntimeInvoker_Void_t1841601450_RuntimeObject_Int64_t909078037PFvvEPK10MethodInfoPvPS4_
FDi:__ZN15dense_hashtableINSt3__24pairIK10KeyWrapperIPK11Il2CppClassEPKcEES6_N6il2cpp5utils11PointerHashIS3_EEN14dense_hash_mapIS6_S9_SE_NS6_14EqualsComparerINS0_8equal_toIS5_EEEENS0_9allocatorISA_EEE9SelectKeyESJ_SL_E15set_deleted_keyERKSA_
ikd:_GridLayoutGroup_CalculateLayoutInputHorizontal_m2355123124
Qlb:__Z18Transfer_BlittableI14SafeBinaryReadLb1EyEvRK29SerializationCommandArgumentsR31RuntimeSerializationCommandInfo
Vlc:__ZN8JSONRead8TransferIfEEvRT_PKc17TransferMetaFlagsb
Rth:_U3CGetEnumeratorU3Ec__Iterator0_Reset_m2980566576_gshared
Snj:__ZNSt3__212basic_stringIcNS_11char_traitsIcEENS_9allocatorIcEEE6appendEPKcj
g7f:__ZL54TypeBuilder_t3308873219_CustomAttributesCacheGeneratorP21CustomAttributesCache
sla:__ZN6prcoreL17RemapGenericFloatI18TexFormatARGBFloat17TexFormatRGBAHalfEEvPKNS_9InnerInfoE
$Se:_Collection_1_CheckWritable_m691269733_gshared
IL:__ZN11AudioSource21ApplyCachedParametersE12SoundChannel
FUf:_GenericTypeParameterBuilder_GetAttributeFlagsImpl_m3338182267
AQ:__ZN13Simd4iFactoryIN6detail9FourTupleEEC2Eiiii
Cue:_SynchronizedReader__ctor_m1408327515
i5h:_X509Store_LoadCrl_m1146720614
p1e:_ReadOnlyCollection_1_System_Collections_IList_Clear_m1858417639_gshared
Sii:_UnityAction_3_Invoke_m1025098032_gshared
sWa:__ZN15SerializeTraitsI33EnlightenTerrainChunksInformationE8TransferI14SafeBinaryReadEEvRS0_RT_
e2b:__ZNK32RendererMaterialAnimationBinding9BindValueER6ObjectRKN11UnityEngine9Animation14GenericBindingERNS3_10BoundCurveE
TSa:__Z13GetIAnimationv
Bja:__ZL18stbir__support_onef
$Fe:_List_1_System_Collections_IList_Remove_m2040310137_gshared
WVh:_Bounds_SetMinMax_m2094075031_AdjustorThunk
Gnc:__Z26Transfer_UnityEngineObjectI9JSONWriteLb0EEvRK29SerializationCommandArgumentsR31RuntimeSerializationCommandInfo
nRa:__ZNSt3__26vectorIN4core12basic_stringIcNS1_20StringStorageDefaultIcEEEE13stl_allocatorIS5_L18MemLabelIdentifier1ELi16EEE6assignINS_11__wrap_iterIPS5_EEEENS_9enable_ifIXaasr21__is_forward_iteratorIT_EE5valuesr16is_constructibleIS5_NS_15iterator_traitsISF_E9referenceEEE5valueEvE4typeESF_SF_
OMf:_UInt32_System_IConvertible_ToInt16_m2251335934_AdjustorThunk
UJc:__ZNSt3__27__sort5IRNS_6__lessIN2UI14DepthSortEntryES3_EEPS3_EEjT0_S7_S7_S7_S7_T_
gtd:_Boolean_System_IConvertible_ToType_m3990189691
Ba:invoke_vdd
v8:__ZN14dense_hash_mapIN4core12basic_stringIcNS0_20StringStorageDefaultIcEEEE13dynamic_arrayI4PPtrI6SpriteELj4EE20StringHash32FunctionIS4_ENSt3__28equal_toIS4_EE13stl_allocatorINSC_4pairIKS4_S9_EEL18MemLabelIdentifier81ELi16EEE15set_deleted_keyERSH_
_Od:_Double_System_IConvertible_ToUInt32_m624993430
tHc:__ZZ29InitializeTextRenderingModulevEN27cleanupAfterLoadRegistrator7ForwardEv
rIf:_Scheduler_Add_m376749205
ww:__ZN27AnimationLayerMixerPlayable24ProcessAnimationLayerMixEP33AnimationPlayableEvaluationOutputP35AnimationPlayableEvaluationConstantP32AnimationPlayableEvaluationInputS1_if
iTb:__Z29PluginsIssueRenderingExtEvent26UnityRenderingExtEventTypePv
jJi:_WebRequestUtils_RedirectTo_m675215376
f1b:__Z14RandomRotationP9Texture2DPhiiii
T7d:_SimpleCollator_IsIgnorable_m2485013022
OJe:_List_1_System_Collections_IList_Insert_m2036969360_gshared
Knd:_InputField_GetUnclampedCharacterLineFromPosition_m1912794077
ELd:_DateTimeOffset_ToString_m2121173678_AdjustorThunk
CRg:__Z74RuntimeInvoker_RuntimeObject_RuntimeObject_Int16_t4041245914_RuntimeObjectPFvvEPK10MethodInfoPvPS4_
ej:_JS_WebRequest_SetResponseHandler
xyj:_glDeleteProgram__wrapper
kbc:__Z50Register_UnityEngine_Camera_INTERNAL_get_pixelRectv
Kka:__ZN6prcoreL18BlitFloatToIntegerERK14ImageReferenceRS0_
bge:_X509CertificateCollection_get_Item_m410866272
LT:__ZN11UnityEngine15CloudWebService14RestDownloader17OnCompleteContentEv
Ckd:_LayoutGroup_SetChildAlongAxis_m1615929339
GRg:__Z75RuntimeInvoker_RuntimeObject_RuntimeObject_Double_t4078015681_RuntimeObjectPFvvEPK10MethodInfoPvPS4_
UQg:__Z200RuntimeInvoker_Boolean_t3825574718_RuntimeObject_RuntimeObject_RuntimeObject_Int32_t2071877448_DateTimeU26_t3448131235_SByte_t454417549_BooleanU26_t3168250738_SByte_t454417549_ExceptionU26_t1467204777PFvvEPK10MethodInfoPvPS4_
Qa:invoke_viffi
sy:__ZN17AnimationPlayable28UpdateInternalStateRecursiveILi1ELb0EEEvPK35AnimationPlayableEvaluationConstant
Q4i:__ZN6il2cpp2gcL10CleanupCCWEPvS1_
Ta:invoke_vifff
Cdc:__Z53Register_UnityEngine_Input_INTERNAL_get_mousePositionv
jxj:_glGetVertexAttribiv__wrapper
Le:_emscripten_request_fullscreen
xCb:__ZN20LocalFileSystemWebGL6DeleteER13FileEntryDatab
PMd:_Decimal_System_IConvertible_ToUInt16_m1621568250
Ne:_emscripten_glDisableVertexAttribArray
Qm:FUNCTION_TABLE_iiiifiiii
lJf:_TimeSpan_get_TotalMinutes_m1645177229_AdjustorThunk
ic:invoke_fifffi
eha:__ZN4gles23ClearCurrentFramebufferEP7ApiGLESbbbRK10ColorRGBAffi
Sw:__ZN7mecanim12statemachine20CreateStateWorkspaceEjjjRNS_6memory9AllocatorE
fwh:_InternalEnumerator_1_System_Collections_IEnumerator_get_Current_m3680087284_gshared
Ye:_emscripten_glDeleteObjectARB
Tf:_IMG_Load
sve:_UnexceptionalStreamReader_Read_m3839775235
K_h:_Input_get_compositionCursorPos_m1028058884
Vfc:__Z53Register_UnityEngine_RenderTexture_Internal_GetHeightv
v6d:_Dropdown_GetOrAddComponent_TisRuntimeObject_m2875934266_gshared
Lla:__ZN6prcoreL17RemapGenericFloatI17TexFormatRGBAHalf18TexFormatARGBFloatEEvPKNS_9InnerInfoE
GPd:_Enum_System_IConvertible_ToInt32_m2459904362
JRg:__Z61RuntimeInvoker_RuntimeObject_Double_t4078015681_RuntimeObjectPFvvEPK10MethodInfoPvPS4_
cPg:__Z211RuntimeInvoker_Int32_t2071877448_RuntimeObject_Int32_t2071877448_Int32_t2071877448_Int32_t2071877448_Int32_t2071877448_RuntimeObject_DecoderFallbackBufferU26_t3597875002_ByteU5BU5DU26_t790777611_SByte_t454417549PFvvEPK10MethodInfoPvPS4_
ijc:__Z14GetBuiltinSkini
g8e:_ContentInfo__ctor_m3871771681
Z6c:_BaseInput_set_compositionCursorPos_m2632248731
ioi:_Enumerator_System_Collections_IEnumerator_Reset_m2573763156_gshared
_1g:__Z74RuntimeInvoker_Void_t1841601450_Int32_t2071877448_MonoResource_t3127387157PFvvEPK10MethodInfoPvPS4_
_pe:_DirectoryInfo_Initialize_m2216118894
H1c:_WindowsIdentity_Dispose_m2649088337
Fgb:__ZN2UI13RectTransform23VirtualRedirectTransferER14SafeBinaryRead
Rcb:__ZNSt3__26vectorIN9ShaderLab20SerializedSubProgramENS_9allocatorIS2_EEE6assignIPS2_EENS_9enable_ifIXaasr21__is_forward_iteratorIT_EE5valuesr16is_constructibleIS2_NS_15iterator_traitsIS9_E9referenceEEE5valueEvE4typeES9_S9_
Spc:__Z18Transfer_BlittableI8JSONReadLb0E8BitFieldEvRK29SerializationCommandArgumentsR31RuntimeSerializationCommandInfo
cxf:_SoapServices_RegisterInteropXmlType_m2949236705
Nvb:__ZL17Transfer_GUIStyleI18StreamedBinaryReadILb1EELb0EEvRK29SerializationCommandArgumentsR31RuntimeSerializationCommandInfo
M5c:_String_CharCopy_m2550399897
NTg:__Z234RuntimeInvoker_RuntimeObject_Int16_t4041245914_RuntimeObject_Int32_t2071877448_Int32_t2071877448_Int32_t2071877448_SByte_t454417549_SByte_t454417549_SByte_t454417549_SByte_t454417549_Int16_t4041245914_SByte_t454417549_SByte_t454417549PFvvEPK10MethodInfoPvPS4_
Xab:__ZN9ShaderLab14SerializedPass8TransferI14SafeBinaryReadEEvRT_
akc:__Z71Register_UnityEngine_GUILayoutUtility_INTERNAL_CALL_Internal_MoveWindowv
pO:__ZN12AudioManager16SetListenerPauseEb
O6a:__ZNSt3__26vectorIN30RuntimeInitializeOnLoadManager9ClassInfoE13stl_allocatorIS2_L18MemLabelIdentifier13ELi16EEE6assignINS_11__wrap_iterIPS2_EEEENS_9enable_ifIXaasr21__is_forward_iteratorIT_EE5valuesr16is_constructibleIS2_NS_15iterator_traitsISC_E9referenceEEE5valueEvE4typeESC_SC_
f$i:__ZN6il2cpp2vm9Exception25RaiseOutOfMemoryExceptionERKNS_5utils10StringViewIDsEE
BRe:_Collection_1_IsValidItem_m2254106115_gshared
RTf:_TypeBuilder_GetEvent_m3876348075
mdh:_Slider_OnMove_m641164662
da:invoke_viiiiiiiiiii
nkj:___syscall_ret
uIf:_Scheduler__ctor_m3716265742
gde:_MACAlgorithm_Final_m4076939925
QOi:__ZNSt3__212basic_stringIcNS_11char_traitsIcEENS_9allocatorIcEEE6assignINS_11__wrap_iterIPKcEEEENS_9enable_ifIXaasr21__is_forward_iteratorIT_EE5valuesr38__libcpp_string_gets_noexcept_iteratorISC_EE5valueERS5_E4typeESC_SC_
K_a:__ZN11ChannelInfo8TransferI19StreamedBinaryWriteILb0EEEEvRT_
Nvh:_InternalEnumerator_1_System_Collections_IEnumerator_get_Current_m3583252352_gshared
F1h:_Object_op_Implicit_m1757773010
sTf:_EnumBuilder_get_FullName_m2818393911
n5e:_BigInteger_op_RightShift_m852685747
rcc:__Z34Register_UnityEngine_Gradient_Initv
A7c:_BaseInputModule_GetAxisEventData_m3903709281
U5d:_Array_InternalArray__get_Item_TisUriScheme_t1876590943_m1821482697_gshared
k4e:_BigInteger__ctor_m3239748086
FZa:__ZN13ScreenManager23SetIsOrientationEnabledE18EnabledOrientationb
T9h:_HitInfo_SendMessage_m3395411273
Cw:__ZN7mecanim5human25HumanPoseAddOverrideLayerERNS0_9HumanPoseERKS1_fRKNS_6bitsetILj70EEE
V$b:__ZN13ProduceHelperI9TransformLb0EE7ProduceE18MemLabelIdentifier18ObjectCreationMode
n_d:_Array_InternalArray__ICollection_Add_TisHitInfo_t1761367055_m2956071622_gshared
GDa:__ZN10GameObject23VirtualRedirectTransferER18StreamedBinaryReadILb0EE
og:_glFrontFace
$yf:_ObjectRecord_get_IsUnsolvedObjectReference_m2202692850
hqf:_FactoryCache_Cleanup_m4130035987
Z8h:_Vector2_op_Addition_m4229571528
U_b:__ZN13ProduceHelperI19LowerResBlitTextureLb0EE7ProduceE18MemLabelIdentifier18ObjectCreationMode
EPb:__ZNSt3__26vectorI16ShadowCasterData13stl_allocatorIS1_L18MemLabelIdentifier2ELi16EEE21__push_back_slow_pathIKS1_EEvRT_
qNf:_UInt32_ToString_m1783596809
gvj:_glUniform1i__wrapper
aIc:__Z51Register_UnityEngine_TextGenerator_GetLinesInternalv
Doi:_HashSet_1_Init_m1258286688_gshared
AZe:_ReadOnlyCollection_1_System_Collections_IList_RemoveAt_m525136953_gshared
ala:__ZN6prcoreL17RemapGenericFloatI17TexFormatRGBFloat18TexFormatRGBAFloatEEvPKNS_9InnerInfoE
vNf:_UInt64_System_IConvertible_ToBoolean_m3012279573_AdjustorThunk
kLf:_Type_get_IsGenericTypeDefinition_m2147901038
CSc:__ZN20UnityConnectSettings10InitializeEv
Khe:_GregorianCalendar__ctor_m3794576475
lNf:_UInt32_TryParse_m4283512434
xbi:_TrackedReference_GetHashCode_m1278837032
bG:__ZN9AudioClip11CreateSoundEv
phh:_ShimEnumerator_MoveNext_m3313047792_gshared
SJf:_TimeSpan_op_Inequality_m257547441
LWi:__ZN14dense_hash_mapI10KeyWrapperINSt3__24pairIPK9FieldInfoP11Il2CppClassEEEj17ReflectionMapHashIS8_ENS9_14EqualsComparerINS1_8equal_toIS8_EEEENS1_9allocatorINS2_IKS9_jEEEEEC2EjRKSB_RKSF_
lSi:__ZNK15dense_hashtableINSt3__24pairIK10KeyWrapperINS1_IPK10MethodInfoP11Il2CppClassEEEjEES9_17ReflectionMapHashIS8_EN14dense_hash_mapIS9_jSD_NS9_14EqualsComparerINS0_8equal_toIS8_EEEENS0_9allocatorISB_EEE9SelectKeyESI_SK_E13find_positionERSA_
Cda:__ZN13GfxDeviceGLES20CreateComputeProgramEPKhj
PFd:_DateTimeFormatInfo_get_RoundtripPattern_m562440017
XRc:__ZN11UnityEngine7Connect16PersistentValues13RestoreValuesER8JSONRead
YAa:__ZN20ArchiveStorageReader31TryToReadDirectoryFromBlockDataEyPKvj
FOd:_Double_System_IConvertible_ToByte_m3004284950_AdjustorThunk
v1i:__ZN6il2cpp2vmL11GetIdentityEP14Il2CppIUnknown
Hce:_SmallXmlParser_ReadCDATASection_m2558307107
Tdj:_GC_push_gc_structures
qLi:__ZN6il2cpp6icalls8mscorlib6SystemL8IsPublicEPK9EventInfo
pDd:_Enumerator_get_Current_m1271212567
dbj:__ZThn4_N6il2cpp2vm13ComObjectBase18ReleaseMarshalDataEP13Il2CppIStream
akf:_IPAddress_ParseIPV6_m2209709575
S9g:_U3CClickRepeatU3Ec__Iterator0_MoveNext_m1747924386
k3e:_Comparison_1_Invoke_m1670081898_gshared
Heh:_Toggle_set_group_m3833595685
cqd:_LayoutRebuilder_ForceRebuildLayoutImmediate_m566681977
b$a:__ZNSt3__213__stable_sortIRNS_4lessI4PPtrI11SpriteAtlasEEENS_11__wrap_iterIPS4_EEEEvT0_SA_T_NS_15iterator_traitsISA_E15difference_typeEPNSD_10value_typeEi
v_d:_Array_InternalArray__ICollection_Add_TisVector4_t2243707581_m698578249_gshared
i6h:_PropertyName_ToString_m1129982609_AdjustorThunk
mY:__ZN8keywords6CreateEPKc
S:Math_imul
TYa:__ZN11PlayerPrefs6GetIntERKN4core12basic_stringIcNS0_20StringStorageDefaultIcEEEEi
bGi:__ZN6il2cpp5utils13dynamic_arrayIPK10Il2CppTypeLj4EEC2ERKS5_
KHc:__Z45TextGenerator_CUSTOM_INTERNAL_get_rectExtentsP12Il2CppObjectP5RectTIfE
xVd:_SetPropertyUtility_SetStruct_TisChar_t3454481338_m2333420724_gshared
ERe:_Collection_1_IsSynchronized_m2601980439_gshared
MBd:_Hashtable_ContainsKey_m2716576664
cP:__ZN11AudioSource12SetAudioClipEP9AudioClip
jPh:_PatternCompiler_EmitCategory_m1696942454
_Md:_Decimal_decimalFloorAndTrunc_m3655683429
P_d:_Array_InternalArray__ICollection_CopyTo_TisInt32_t2071877448_m984622488_gshared
_Z:__ZN18ScriptingArguments9AddObjectE18ScriptingObjectPtr
$Lc:__Z39CanvasGroup_Get_Custom_PropInteractableP12Il2CppObject
XQ:__ZN11UnityEngine15CloudWebService16SessionContainerD2Ev
gSc:__ZL38InitializeUnityConnectScriptingClassesv
TTb:__ZN13ProbeRenderer8ConvolveEbijjb
uha:__ZN17GenericDynamicVBOC2ER9GfxDevice13GfxBufferModejj
NMh:_Context_get_HasDynamicSinks_m1998518649
jic:__ZZN10GUIManager14InitGUIManagerEvEN41PreUpdateIMGUISendQueuedEventsRegistrator7ForwardEv
uii:_UnityAction_1_Invoke_m2903588655_gshared
oS:__ZN11UnityEngine15CloudWebService17SessionEventQueue10PurgeItemsEj
yUb:__ZN6Camera16StandaloneRenderENS_10RenderFlagEP6ShaderRKN4core12basic_stringIcNS3_20StringStorageDefaultIcEEEE
wqd:_Array_System_Collections_IList_get_Item_m2088124007
Qqd:_Array_GetLength_m2083296647
wzd:_SynchronizedArrayListWrapper_ToArray_m1522185111
fvb:__Z18Transfer_BlittableI18StreamedBinaryReadILb1EELb1EtEvRK29SerializationCommandArgumentsR31RuntimeSerializationCommandInfo
Lba:__ZN9GfxDevice20DeallocRenderSurfaceEP17RenderSurfaceBase
OOf:_ValueType_ToString_m3796301715
tna:__ZN20GpuProgramParameters36UpdatePrepareValuesMaximumBufferSizeEv
Udc:__Z53Register_UnityEngine_Quaternion_INTERNAL_CALL_Inversev
D9h:_Screen_get_height_m3831644396
uFa:__ZN12BaseRenderer23RendererBecameInvisibleEv
Ztc:__ZN20TextRenderingPrivate8FontImpl13CharacterInfo8TransferI18StreamedBinaryReadILb0EEEEvRT_
usb:__Z29Transfer_Blittable_ArrayFieldI24GenerateTypeTreeTransferfEvRT_R9ArrayInfoRK23StaticTransferFieldInfo
V3:__ZNSt3__26__treeINS_12__value_typeIN4core12basic_stringIcNS2_20StringStorageDefaultIcEEEES6_EENS_19__map_value_compareIS6_S7_NS_4lessIS6_EELb1EEE13stl_allocatorIS7_L18MemLabelIdentifier13ELi16EEE7destroyEPNS_11__tree_nodeIS7_PvEE
eKg:__Z76RuntimeInvoker_RuntimeObject_RuntimeObject_SByte_t454417549_SByte_t454417549PFvvEPK10MethodInfoPvPS4_
NVb:__ZN19CustomRenderTexture9AddParentE4PPtrIS_E
HXa:__ZN8Gradient8TransferI14SafeBinaryReadEEvRT_
Mji:_UnityEvent_1_Invoke_m1533100983_gshared
mRa:__ZNSt3__26vectorIN4core12basic_stringIcNS1_20StringStorageDefaultIcEEEE13stl_allocatorIS5_L18MemLabelIdentifier1ELi16EEE7reserveEj
ujf:_FileWebRequest__ctor_m4003648606
VDg:__ZL71SpriteState_t1353336012_CustomAttributesCacheGenerator_m_DisabledSpriteP21CustomAttributesCache
IPd:_Enum_System_IConvertible_ToSByte_m3488526280
gHi:__ZNK15dense_hashtableI10KeyWrapperIPK19Il2CppGenericMethodES4_N6il2cpp8metadata23Il2CppGenericMethodHashEN14dense_hash_setIS4_S7_NS4_14EqualsComparerINS6_26Il2CppGenericMethodCompareEEENSt3__29allocatorIS4_EEE8IdentityESB_SE_E4findERKS4_
Jib:__ZNK20LocalFileSystemPosix9IsSymLinkERK13FileEntryData
Ncj:_GC_new_free_list_inner
rph:_DefaultComparer_Equals_m85211180_gshared
Bxe:_MonoType_InternalGetEvent_m532443236
zTe:_Collection_1_IndexOf_m2700825189_gshared
dei:_MathfInternal__cctor_m2774058555
Gqc:__ZN8JSONRead8TransferI10RectOffsetEEvRT_PKc17TransferMetaFlagsb
YR:__ZN9JSONWrite8TransferIN11UnityEngine15CloudWebService14DataErrorEvent15FileErrorDetailEEEvRT_PKc17TransferMetaFlags
l6c:_Decoder__ctor_m2623573910
eJ:__ZN12SoundManager20RegisterModifiedClipEP10SampleClip
aYh:_Logger__ctor_m1903664092
BL:__ZN11AudioSource4PlayEd
ZEi:__ZN15dense_hashtableI10KeyWrapperIPK17Il2CppGenericInstES4_N6il2cpp8metadata21Il2CppGenericInstHashEN14dense_hash_setIS4_S7_NS4_14EqualsComparerINS6_24Il2CppGenericInstCompareEEENSt3__29allocatorIS4_EEE8IdentityESB_SE_E13set_empty_keyERKS4_
lsh:_EqualityComparer_1_System_Collections_IEqualityComparer_Equals_m3589836321_gshared
Tce:_SmallXmlParser_IsNameChar_m1561000202
x3h:_X501__cctor_m2610532554
vgh:_Enumerator_VerifyState_m3173176371_gshared
iMe:_List_1_CheckCollection_m2220107869_gshared
AUa:__ZN7Cubemap23VirtualRedirectTransferER18StreamedBinaryReadILb0EE
Taf:_RecordProtocol_EncodeRecord_m3884270352
$Zc:_SHA256_Create_m896954069
xFc:_Read_CVT
IId:_Convert_ToUInt32_m776714429
jBa:__ZN12FileAccessor4SeekEx10FileOrigin
irb:__ZL26Transfer_SimpleNativeClassI24GenerateTypeTreeTransfer17AnimationCurveTplIfELb0EEvRK29SerializationCommandArgumentsR31RuntimeSerializationCommandInfo
Grc:__ZN8JSONRead21TransferSTLStyleArrayI13dynamic_arrayI9BoundsIntLj4EEEEvRT_17TransferMetaFlags
CWa:__ZN24GenerateTypeTreeTransfer8TransferI13dynamic_arrayI33EnlightenTerrainChunksInformationLj4EEEEvRT_PKc17TransferMetaFlags
qrd:_Array_CreateInstance_m3327690220
Y4:__ZN16LightmapSettings20DidChangeActiveSceneEP10UnitySceneS1_
XFg:__ZL59g_AssemblyU2DCSharp_Assembly_CustomAttributesCacheGeneratorP21CustomAttributesCache
ELi:__ZN6il2cpp5utils9PathUtils8BasenameIcEENSt3__212basic_stringIT_NS3_11char_traitsIS5_EENS3_9allocatorIS5_EEEERKSA_
Ojc:__Z35Register_UnityEngine_Event_get_typev
Gde:_PrivateKeyInfo_DecodeRSA_m1427048948
r$i:__ZN6il2cpp2vm9Exception23GetInvalidCastExceptionERKNS_5utils10StringViewIDsEE
WPf:_Assembly_FillName_m1934025015
G4c:_String_IndexOf_m2126171214
Coe:_Int64_ToString_m1544341651_AdjustorThunk
ty:__ZN8Animator28BuildControllerPlayableCacheEv
tje:_Guid_CheckNull_m2903986431
j$:__Z63ThreadAndSerializationSafeCheckGetMonoBehaviourBeingTransferredv
xfj:_GC_enable
Ocf:_TlsClientCertificateVerify_ProcessAsSsl3_m3377063356
m9i:__GLOBAL__sub_I_GenericMethod_cpp
iVi:__ZN15dense_hashtableINSt3__24pairIK10KeyWrapperIPK14Il2CppAssemblyEPK22Il2CppMonoAssemblyNameEES6_N6il2cpp5utils11PointerHashIS4_EEN14dense_hash_mapIS6_SA_SF_NS6_14EqualsComparerINS0_8equal_toIS5_EEEENS0_9allocatorISB_EEE9SelectKeyESK_SM_EC2ERKSP_j
vbd:_StandaloneInputModule_set_repeatDelay_m2820945738
vMf:_UInt16_ToString_m4213290405
xdc:__Z37Register_UnityEngine_Input_GetAxisRawv
hLh:_ChannelServices_RegisterChannel_m3832858065
PPd:_Enum_GetName_m1226611481
Y3e:_Func_2_Invoke_m4121137703_gshared
nL:__ZN11AudioSource5ResetEv
aKb:__ZN12ImageFilters27SetSurfaceUseResolvedBufferEP13RenderTextureb
q$a:__ZN14Texture2DArray23VirtualRedirectTransferER18StreamedBinaryReadILb0EE
MRh:_Literal_CompileLiteral_m276843152
wgb:__ZN2UI13RectTransform13AwakeFromLoadE17AwakeFromLoadMode
bPb:__ZN14qsort_internal30FindAndMovePivotToLastPositionIP20ShadowCasterSortDatai26ShadowCasterSortDataSorterEEvT_S4_T0_T1_
DFi:__ZNK15dense_hashtableI10KeyWrapperIPK19Il2CppGenericMethodES4_N6il2cpp8metadata23Il2CppGenericMethodHashEN14dense_hash_setIS4_S7_NS4_14EqualsComparerINS6_26Il2CppGenericMethodCompareEEENSt3__29allocatorIS4_EEE8IdentityESB_SE_E3endEv
Ikb:__Z18Transfer_BlittableI14SafeBinaryReadLb1EiEvRK29SerializationCommandArgumentsR31RuntimeSerializationCommandInfo
f9a:__ZN17PersistentManager13GetAllFileIDsERKN4core12basic_stringIcNS0_20StringStorageDefaultIcEEEER13dynamic_arrayIxLj8EE
Qrd:_Array_LastIndexOf_m4096535198
xxd:_ArrayList_Add_m1719188324
VOd:_Double_System_IConvertible_ToSByte_m1653690240_AdjustorThunk
LTg:__Z59RuntimeInvoker_RuntimeObject_Byte_t3683104436_RuntimeObjectPFvvEPK10MethodInfoPvPS4_
JVh:_Bounds_get_size_m3951110137
yk:_glGetStringi
A3i:__ZNK15dense_hashtableI10KeyWrapperIP18Il2CppGenericClassES3_N6il2cpp8metadata22Il2CppGenericClassHashEN14dense_hash_setIS3_S6_NS3_14EqualsComparerINS5_25Il2CppGenericClassCompareEEENSt3__29allocatorIS3_EEE8IdentityESA_SD_E10test_emptyERK30dense_hashtable_const_iteratorIS3_S3_S6_SF_SA_SD_E
xSd:_CultureInfo_set_NumberFormat_m1618950525
Rnf:_X509Store__ctor_m1573680316
eof:_X509Chain_get_CertificateCollection_m324631835
ysh:_EqualityComparer_1__cctor_m1011898363_gshared
ucd:_AnimationTriggers__ctor_m2623627182
dYd:_Array_InternalArray__IndexOf_TisClientCertificateType_t4001384466_m1168139450_gshared
aA:__ZN8Animator9WriteStepEy
KS:__ZN11UnityEngine15CloudWebService20WebRequestRestClient18GetResponseHeadersEv
U4b:__ZN16PropertyAccessorC2Ev
aZa:__ZNSt3__23mapIN4core12basic_stringIcNS1_20StringStorageDefaultIcEEEE9PrefValueNS_4lessIS5_EENS_9allocatorINS_4pairIKS5_S6_EEEEEixERSB_
w4b:__ZN15DirectorManager22ConstructPlayableGraphEv
Y_c:_SymmetricAlgorithm_set_IV_m4262655606
Hdh:_StencilMaterial__cctor_m2963056855
xRf:_CustomAttributeNamedArgument_GetHashCode_m3715408876_AdjustorThunk
RHc:__Z38Register_UnityEngine_Font_HasCharacterv
jnf:_X509Certificate2_AppendBuffer_m3517242299
aTb:__Z35IntersectSpherePlaneBoundsOptimizedRKN4math7_float4EPS1_i
tSd:_CultureInfo_get_IsNeutralCulture_m3874876470
ONd:_Delegate_CreateDelegate_m3813023227
XTh:_Uri_get_AbsoluteUri_m2120317928
m6i:__ZN6il2cpp2os5posix15PosixWaitObject13InterruptWaitEv
ufd:_ColorTween_TweenValue_m3279916815
x4:__Z22CleanupLODGroupManagerPv
o_d:_Array_InternalArray__ICollection_Add_TisContentType_t1028629049_m2984242302_gshared
Kjc:__Z21Event_CUSTOM_PopEventP12Il2CppObject
il:_glUniform3fv
Dij:__ZNK6il2cpp8metadata24Il2CppGenericInstCompareclERK10KeyWrapperIPK17Il2CppGenericInstES8_
S5a:__ZNSt3__218__insertion_sort_3IRN15ResourceManager10Dependency6SorterEPS2_EEvT0_S6_T_
JCe:_Enumerator_System_Collections_IEnumerator_Reset_m3796537546_AdjustorThunk
DGc:_UNITY_FT_Init_Class_tt_service_gx_multi_masters
RRg:__Z53RuntimeInvoker_Int32_t2071877448_TimeSpan_t3430258949PFvvEPK10MethodInfoPvPS4_
gIg:__Z64RuntimeInvoker_RuntimeObject_Int32_t2071877448_Int16_t4041245914PFvvEPK10MethodInfoPvPS4_
kxe:_IntComparer_Compare_m3057931085
LNb:__ZNK16LightmapSettings31GetRealtimeLightmapDecodeValuesEv
vK:__ZN5audio5mixer12SetSuspendedERNS0_16AudioMixerMemoryEb
aab:__ZN17PersistentManager21UnloadNonDirtyStreamsEv
g0i:__ZN6il2cpp2vm13LivenessStateC2EP11Il2CppClassjPFvPP12Il2CppObjectiPvES7_PFvvESB_
N6d:_Array_ConvertAll_TisRuntimeObject_TisRuntimeObject_m2423585546_gshared
FIb:__ZN12ImageFilters4BlitER17ShaderPassContextP7TextureP13RenderTextureiPK18SharedMaterialDataPKcP6ShaderiNS_9BlitFlagsE11CubemapFaceRK8Vector2fSH_
zlf:_Oid__ctor_m1936781897
yS:__ZN11UnityEngine15CloudWebService10RestClientINS0_23WebRequestRestHeaderMapEED2Ev
WIh:_ResourceSet__ctor_m1222864106
NPe:_Collection_1_System_Collections_IList_get_Item_m3376056117_gshared
El:_emscripten_glDepthMask
ICe:_Enumerator_VerifyState_m3639069574_gshared
Fia:__ZN4crnd25static_huffman_data_model22prepare_decoder_tablesEv
lPe:_Enumerator_MoveNext_m689054299_gshared
Q4e:_ModulusRing_Difference_m662924064
Ydd:_CanvasUpdateRegistry_ObjectValidForUpdate_m855695984
Nmd:_InputField_set_onValueChanged_m2406388125
Jic:__Z23GUIStatePopDisplayIndexv
pX:__ZL22CleanupUnityWebStreamsPv
mif:_ListDictionary_Add_m4276262662
b5:__Znaj
EYc:_RIPEMD160Managed_GGG_m1639995340
Xyj:_emscripten_glEnableClientState__wrapper
gZ:__ZN17MessageIdentifierC2EPKcNS_7OptionsEPKN5Unity4TypeES1_
djh:_Enumerator_System_Collections_IEnumerator_get_Current_m1648049763_gshared
Xhj:__ZN6il2cpp6icalls8mscorlib4Mono8Security12Cryptography18KeyPairPersistence15_ProtectMachineEP12Il2CppString
QP:__Z55Register_UnityEngine_AudioSource_get_spatializeInternalv
Z_a:__ZN15dense_hashtableINSt3__24pairIKN4core12basic_stringIcNS2_20StringStorageDefaultIcEEEE13dynamic_arrayI4PPtrI6SpriteELj4EEEES6_20StringHash32FunctionIS6_EN14dense_hash_mapIS6_SC_SF_NS0_8equal_toIS6_EE13stl_allocatorISD_L18MemLabelIdentifier81ELi16EEE9SelectKeyESI_SL_E12resize_deltaEjj
due:_TextWriter__ctor_m2225796097
Kxa:__ZN14SafeBinaryRead8TransferI14ConstantStringEEvRT_PKc17TransferMetaFlags
Zea:__ZNK6Camera16GetStereoEnabledEv
H1b:__ZN12LightManager15InitializeClassEv
QGa:__ZN9ShaderLab11shaderprops16GetComputeBufferEPK19ShaderPropertySheetS3_NS_16FastPropertyNameE
m_:__ZN18ScriptingArgumentsC2Ev
_Jf:_TimeZone_IsDaylightSavingTime_m875882154
tuj:_emscripten_glBlendFuncSeparate__wrapper
F9e:_CipherSuiteCollection_System_Collections_IList_set_Item_m750275607
Gfa:__Z17HasSampledTexture14GraphicsFormat13formatSupport
DJb:__ZNK25CameraStackRenderingState27GetStereoImageEffectTextureEb
GZc:_SHA1CryptoServiceProvider__ctor_m3127563759
np:__ZN8Vector3f8TransferI14SafeBinaryReadEEvRT_
aJi:__ZN6il2cpp6icalls6System6System3Net7Sockets6Socket7ReceiveEiP11Il2CppArrayiiNS4_11SocketFlagsEPi
LFg:__ZL103BaseVertexEffect_t2504093552_CustomAttributesCacheGenerator_BaseVertexEffect_ModifyVertices_m3446986347P21CustomAttributesCache
so:FUNCTION_TABLE_ii
akh:_Enumerator_MoveNext_m335649778_AdjustorThunk
iFa:__ZN10TagManager8TransferI18StreamedBinaryReadILb0EEEEvRT_
gnc:__Z18Transfer_BlittableI9JSONWriteLb0E8BitFieldEvRK29SerializationCommandArgumentsR31RuntimeSerializationCommandInfo
pNf:_UInt32_ToString_m3894907091_AdjustorThunk
V$h:_Matrix4x4__ctor_m828876617_AdjustorThunk
nSd:_CultureInfo_get_TextInfo_m1582311326
rZd:_Array_ForEach_TisRuntimeObject_m1849351808_gshared
xce:_SmallXmlParser_Error_m1832158746
xk:_glDeleteVertexArrays
ICa:__Z24CreateDirectoryRecursiveRKN4core12basic_stringIcNS_20StringStorageDefaultIcEEEE
Osj:b41
Ndb:__ZN9ShaderLab20SerializedSubProgram8TransferI18StreamedBinaryReadILb0EEEEvRT_
Fte:_StreamAsyncResult_get_AsyncWaitHandle_m4218169359
Nsj:b40
wIc:__ZN2UI13CanvasManager9AddCanvasEPNS_6CanvasE
i0a:__ZN9Texture3D8TransferI19StreamedBinaryWriteILb0EEEEvRT_
fKb:__ZNK6Camera22CalculateRenderingPathEv
Aoc:__ZN9JSONWrite8TransferI5RectTIfEEEvRT_PKc17TransferMetaFlags
KB:__ZN11UnityEngine9Animation37SetGenericRootTransformPropertyValuesERKNS0_30AnimatorGenericBindingConstantERKN7mecanim10ValueArrayER9Transformbb
Voa:__Z13ConvertMipmap14GraphicsFormatPKvS_Pviiii
Qpb:__ZL12InvokeMethodI17RemapPPtrTransferEvRK29SerializationCommandArgumentsR31RuntimeSerializationCommandInfo
Vfe:_X509Certificate_get_PublicKey_m714501701
kVh:_AsyncOperation_InternalDestroy_m2067452588
izc:_tt_sbit_decoder_load_image
V4c:_String_LastIndexOf_m290475879
F2d:_Array_Sort_TisInt32_t2071877448_m1860415737_gshared
Dic:__ZNSt3__24listIN10GUIManager12SortedScriptE11memory_poolIS2_EE6__sortI13OldSortScriptEENS_15__list_iteratorIS2_PvEESA_SA_jRT_
zNf:_UInt64_System_IConvertible_ToChar_m1930853313_AdjustorThunk
Jcf:_TlsClientCertificate_SendCertificates_m1096074091
wCd:_SyncHashtable_get_Item_m408601391
rPe:_Stack_1_System_Collections_ICollection_CopyTo_m2104527616_gshared
UEf:_StringBuilder_AppendFormat_m1666670800
TWg:__Z97RuntimeInvoker_Boolean_t3825574718_RuntimeObject_TextGenerationSettings_t2543476768_RuntimeObjectPFvvEPK10MethodInfoPvPS4_
gQc:__ZN18UnityConnectClient12CloseServiceEv
t_i:__ZN6il2cpp6icalls8mscorlib6System9ThreadingL11ThreadStartEPv
W6:__ZN15DirectorManager12OnSampleTimeEv
n0e:_ReadOnlyCollection_1_System_Collections_IList_Remove_m3878418841_gshared
Smd:_InputField_EnforceContentType_m1902926812
BXa:__ZN15dense_hashtableINSt3__24pairIKiiEEi21InstanceIDHashFunctorN14dense_hash_mapIiiS4_NS0_8equal_toIiEE13stl_allocatorIS3_L18MemLabelIdentifier67ELi16EEE9SelectKeyES7_SA_E12resize_deltaEjj
zva:__ZN12CachedReader10Align4ReadEv
kwa:__ZNK9Behaviour22GetTypeVirtualInternalEv
m2g:__Z74RuntimeInvoker_Void_t1841601450_Int32_t2071877448_RaycastHit2D_t4063908774PFvvEPK10MethodInfoPvPS4_
NTb:__Z21GetScriptingArraySize17ScriptingArrayPtr
wtc:__ZN20TextRenderingPrivate8FontImpl8TransferI14SafeBinaryReadEEvRT_
Hca:__ZN9GfxDevice17ImmediateTexCoordEifff
gQh:_Parser_ParseRegularExpression_m2390577313
nsd:_Array_double_swapper_m1175307080
Gof:_X509CertificateEnumerator_System_Collections_IEnumerator_Reset_m327358896
e1c:_Hash__ctor_m2554411450
Vle:_NumberFormatter_AppendDigits_m1308372770
J2c:_Single_System_IConvertible_ToDateTime_m2510003459_AdjustorThunk
XNd:_Delegate_RemoveImpl_m3666700529
osj:_emscripten_glUniform4f__wrapper
Fif:_NameObjectCollectionBase_OnDeserialization_m3478980442
Emd:_InputField_set_caretColor_m2252440840
dD:__ZN8Animator8TransferI19StreamedBinaryWriteILb0EEEEvRT_
PFa:__ZNK6Camera16GetProjectionFarEv
Eq:__Z24InverseTransformRotationRK23TransformAccessReadOnlyRKN4math7_float4E
nwe:_MissingFieldException__ctor_m1161042282
qYd:_Array_InternalArray__IndexOf_TisSlot_t2267560602_m1912863273_gshared
H0h:_Mesh_get_uv3_m1531319041
$Sa:__ZNK14PlayableOutput11DerivesFromE17ScriptingClassPtr
nUa:__ZN7Texture34CreateFileTextureUploadInstructionE18TextureUploadFlagsj
jqa:__ZN13ComputeShader14SetBufferParamEjRKN9ShaderLab16FastPropertyNameE15ComputeBufferID
a0e:_ReadOnlyCollection_1_System_Collections_Generic_IListU3CTU3E_Insert_m3054305464_gshared
WC:__ZN8Animator8TransferI14SafeBinaryReadEEvRT_
JYd:_Array_InternalArray__IndexOf_TisTypeTag_t141209596_m2882894956_gshared
Tch:_Slider_get_value_m4182660424
O2:__Z23AsyncReadForceCloseFileRKN4core12basic_stringIcNS_20StringStorageDefaultIcEEEE
ht:__ZN17AnimationPlayable34CollectAnimatorControllerPlayablesER13dynamic_arrayIP26AnimatorControllerPlayableLj4EE
hO:__ZN16BaseVideoTexture19UpdateVideoTexturesEv
cMa:__Z28BuildSingleStreamChannelInfo17ShaderChannelMaskRK20VertexChannelsLayoutS_S2_P11ChannelInfo
WHa:__ZNK16LightmapSettings23HasLightProbeTetrahedraEv
Wbf:_Context_get_WriteSequenceNumber_m243492531
MZa:__ZN6Sprite23VirtualRedirectTransferER19StreamedBinaryWriteILb0EE
s7f:__ZL51Assembly_t4268412390_CustomAttributesCacheGeneratorP21CustomAttributesCache
N4c:_String_LastIndexOfAny_m1473637802
Xdh:_Text_get_resizeTextMaxSize_m2671487437
j1h:_PlayerEditorConnectionEvents_InvokeMessageIdSubscribers_m795891627
oRi:__ZNK15dense_hashtableINSt3__24pairIK10KeyWrapperINS1_IPK9FieldInfoP11Il2CppClassEEEjEES9_17ReflectionMapHashIS8_EN14dense_hash_mapIS9_jSD_NS9_14EqualsComparerINS0_8equal_toIS8_EEEENS0_9allocatorISB_EEE9SelectKeyESI_SK_E5beginEv
qQa:__ZNK9ShaderLab7Program19HasMatchingVariantsERK13dynamic_arrayI16ShaderKeywordSetLj4EE
QA:__ZN15SerializeTraitsIN4math4trsXEE8TransferI8BlobSizeEEvRS1_RT_
pga:__ZN14DataBufferGLES11CopySubDataEPKS_jjj
de:_emscripten_glVertexPointer
tua:__ZNSt3__26__treeI20DeviceDepthStateGLES11memcmp_lessIS1_S1_ENS_9allocatorIS1_EEE7destroyEPNS_11__tree_nodeIS1_PvEE
zid:_Graphic__ctor_m821539719
RLi:__ZN6il2cpp2vm7Runtime47RaiseExecutionEngineExceptionIfMethodIsNotFoundEPK10MethodInfo
HPb:__Z17GetFrustumPortionPK8Vector3fffPS_
T0i:__ZN15dense_hashtableINSt3__24pairIK10KeyWrapperIP14Il2CppIUnknownEjEES5_N6il2cpp5utils11PointerHashIS3_EEN14dense_hash_mapIS5_jSB_NS5_14EqualsComparerINS0_8equal_toIS4_EEEENS0_9allocatorIS7_EEE9SelectKeyESG_SI_E14squash_deletedEv
vgd:_DefaultControls_CreateDropdown_m1384069408
nad:_PointerEventData_get_clickCount_m4064532478
FQd:_EventArgs__cctor_m1350395667
Daa:__ZNK9GfxDevice27GetPlatformAdjustedViewportEv
k5h:_X509Stores_Open_m2057354563
gRd:_CCGregorianCalendar_is_leap_year_m567513478
Osd:_Attribute_IsDefined_m2118467641
ici:_SpriteAtlasManager_Register_m447878083
Fde:_PrivateKeyInfo_Normalize_m3959595934
Xvh:_InternalEnumerator_1_System_Collections_IEnumerator_get_Current_m3125080595_gshared
nVe:_Collection_1_System_Collections_IList_Add_m2091889616_gshared
Y4b:__ZN16StreamedResource8TransferI24GenerateTypeTreeTransferEEvRT_
Rhd:_DropdownItem_OnPointerEnter_m761897861
hra:__ZN10Matrix3x3f15InvertTransposeEv
nUd:_Array_InternalArray__ICollection_Remove_TisKeyValuePair_2_t1174980068_m2768765894_gshared
rHb:__Z11IsBatchmodev
XSe:_Collection_1_set_Item_m2199807215_gshared
qob:__Z29Transfer_Blittable_ArrayFieldI14SafeBinaryRead8Vector3fEvRT_R9ArrayInfoRK23StaticTransferFieldInfo
BMf:_UInt32_System_IConvertible_ToBoolean_m91295134
fHf:_Monitor_Monitor_test_synchronised_m1542589500
crg:__ZL68RuntimePlatform_t1869584967_CustomAttributesCacheGenerator_WP8PlayerP21CustomAttributesCache
luc:__ZN20TextRenderingPrivate8FontImpl18ResetCachedTextureEv
see:_SymmetricTransform_TransformFinalBlock_m4192185386
gje:_TextInfo__ctor_m1263401274
vdj:_GC_print_finalization_stats
Tkh:_ValueCollection__ctor_m927733289_gshared
Pac:__Z53Register_UnityEngine_Behaviour_get_isActiveAndEnabledv
rkf:_IPAddress_ToString_m267966740
bq:__ZNSt3__26vectorIN4core12basic_stringIcNS1_20StringStorageDefaultIcEEEENS_9allocatorIS5_EEE8__appendEj
g5a:__ZN26PlayerSettingsSplashScreen8TransferI17RemapPPtrTransferEEvRT_
Izh:_InternalEnumerator_1_get_Current_m3922357178_gshared
AKi:__ZN6il2cpp6icalls8mscorlib6SystemL17CollectTypeFieldsINS_5utils10functional10TrueFilterEEEvP11Il2CppClassPKS7_iRNSt3__26vectorIP9FieldInfoNSB_9allocatorISE_EEEERKT_
yAg:__ZL72ColorBlock_t2652774230_CustomAttributesCacheGenerator_m_HighlightedColorP21CustomAttributesCache
qKf:_Type_get_IsValueType_m1733572463
CZb:__Z13GetTagManagerv
RUd:_Array_InternalArray__ICollection_Remove_TisUInt16_t986882611_m65494986_gshared
Q_e:_ReadOnlyCollection_1_IndexOf_m3054637117_gshared
Uzi:__ZL10roundUp128PyS_
HQ:__ZN11UnityEngine15CloudWebService17CloudJobSchedulerD0Ev
I3c:_String_System_IConvertible_ToBoolean_m2696751322
v7a:__ZN18LoadSceneOperation7PerformEv
WIc:__ZNK2UI11CanvasGroup22GetTypeVirtualInternalEv
a0h:_Matrix4x4_MultiplyPoint3x4_m1436516889
Q4c:_String_LastIndexOfAny_m4281325295
DZg:__Z163RuntimeInvoker_Void_t1841601450_RuntimeObject_Int32_t2071877448_SByte_t454417549_SByte_t454417549_SingleU26_t4173844468_SingleU26_t4173844468_SingleU26_t4173844468PFvvEPK10MethodInfoPvPS4_
Xic:__Z21CleanupGlobalGUIStatev
VIf:_TimeSpan__ctor_m1888018443_AdjustorThunk
f4g:__Z74RuntimeInvoker_Int32_t2071877448_UIVertex_t1204258818_UIVertex_t1204258818PFvvEPK10MethodInfoPvPS4_
rCd:_SyncHashtable_get_Count_m3694444082
Gxb:__Z18Transfer_BlittableI18StreamedBinaryReadILb0EELb1EN4math12int3_storageEEvRK29SerializationCommandArgumentsR31RuntimeSerializationCommandInfo
qPi:__ZNSt3__26vectorINS_12basic_stringIcNS_11char_traitsIcEENS_9allocatorIcEEEENS4_IS6_EEE8allocateEj
Rsa:__ZN22VertexDeclarationCache5ClearEv
mab:__ZN15CacheWriterBase18GetAddressOfMemoryEv
Nv:__Z27ProcessRootMotionEmptyMixerP35AnimationPlayableEvaluationConstantP32AnimationPlayableEvaluationInputP33AnimationPlayableEvaluationOutput
lRb:__ZN6Camera24PrepareCullingParametersERK23CameraCullingParameters13RenderingPathR11CullResults
i7b:__Z12SetIUISystemP9IUISystem
I7a:__ZN19RuntimeSceneManager22EndIntegrateMainThreadEP10UnitySceneNS_11LoadingModeE
Spb:__Z26Transfer_UnityEngineObjectI17RemapPPtrTransferLb0EEvRK29SerializationCommandArgumentsR31RuntimeSerializationCommandInfo
X4c:_String_IsNullOrEmpty_m2802126737
zvd:_Byte_Parse_m1442736478
koe:_Int64_Parse_m3258022240
H4c:_String_IndexOfOrdinal_m3591623977
JBf:_CryptoConfig_EncodeLongNumber_m2352037787
UKf:_Type_GetMethod_m475234662
JKh:_ActivationServices_get_ConstructionActivator_m1726426854
lsb:__Z29Transfer_Blittable_ArrayFieldI24GenerateTypeTreeTransfer4AABBEvRT_R9ArrayInfoRK23StaticTransferFieldInfo
gvi:_Hacker_RunMainMenu_m908116088
mfg:__ZL52Activator_t1850728717_CustomAttributesCacheGeneratorP21CustomAttributesCache
xej:_GC_adj_bytes_allocd
j_d:_Array_InternalArray__ICollection_Add_TisKeyframe_t1449471340_m887263954_gshared
P$d:_Array_InternalArray__Insert_TisDateTime_t693205669_m1484996356_gshared
YGe:_List_1_System_Collections_IList_Remove_m3933652540_gshared
Rse:_MonoIO_get_ConsoleInput_m2976499023
LWf:_OpCode_get_Size_m481593949_AdjustorThunk
Qzd:_BitArrayEnumerator_checkVersion_m3839504595
crd:_Array_GetUpperBound_m1352329707
D0i:__ZN6il2cpp6icalls8mscorlib6System10Reflection10MonoMethod19get_base_definitionEP22Il2CppReflectionMethod
Ca:invoke_fiiifii
s4c:_String_TrimEnd_m3153143011
uLd:_DateTimeOffset_Equals_m3728302791_AdjustorThunk
pOa:__ZN20SphericalHarmonicsL219AddDirectionalLightERKN4math7_float3ERKNS0_7_float4E
RJf:_TimeSpan_op_GreaterThanOrEqual_m3997050520
N6:__Z26ScheduleJobForEachInternalR8JobFencePFvPvjES1_iPFvS1_E11JobPriority
pmf:_OidEnumerator_MoveNext_m1889267785
cHb:__ZZ23InitPlayerLoopCallbacksvEN41PostLateUpdateProfilerEndFrameRegistrator7ForwardEv
B7b:__ZN9Scripting18RaiseMonoExceptionEPKcz
uVa:__ZN9Texture2D8TransferI19StreamedBinaryWriteILb0EEEEvRT_
Kki:_TweenRunner_1_StartTween_m3792842064_gshared
f2b:__ZN9ShaderLab16FastPropertyName15InitBy28BitHashEj
R2c:_Single_System_IConvertible_ToInt32_m3269519527_AdjustorThunk
Exi:_TextGenerationSettings_Equals_m1603221718
MZc:_SHA1Internal_ProcessBlock_m4070037334
DEa:__ZN17PersistentManager17IsObjectAvailableEi
eKh:_Marshal_copy_from_unmanaged_m98320635
V0d:_Array_InternalArray__set_Item_TisDouble_t4078015681_m24756265_gshared
qYh:_Display_RelativeMouseAtImpl_m700362000
Rci:_Vector2_get_right_m4262310679
C$b:__ZN13ProduceHelperIN2UI13RectTransformELb0EE7ProduceE18MemLabelIdentifier18ObjectCreationMode
O0a:__ZN17PackedFloatVector12UnpackFloatsEPfiiii
HYe:_ReadOnlyCollection_1__ctor_m3671019970_gshared
Ry:__ZN17AnimationPlayable28UpdateInternalStateRecursiveILi3ELb0EEEvPK35AnimationPlayableEvaluationConstant
Dda:__ZN13GfxDeviceGLES21DestroyComputeProgramER12ObjectHandleI18ComputeProgram_TagPvE
nGd:_Convert_ToDecimal_m2007036836
IZi:__ZN6il2cpp6icalls8mscorlib6System5Array12SetValueImplEP11Il2CppArrayP12Il2CppObjecti
B4:__ZN17UniqueIDGenerator16DestroyPureIndexEj
f1:__ZL21AppendNestedClassName17ScriptingClassPtrRN4core17string_with_labelILi1EEE
xbb:__ZN14SafeBinaryRead21TransferSTLStyleArrayINSt3__26vectorIN9ShaderLab20SerializedSubProgram12UAVParameterENS1_9allocatorIS5_EEEEEEvRT_17TransferMetaFlags
MMh:_Context_NotifyDynamicSinks_m1367144344
QR:__ZN24TextDOMTransferWriteBaseI9JSONWriteE12PushMetaFlagEi
upc:__Z18Transfer_BlittableI8JSONReadLb1E10ColorRGBAfEvRK29SerializationCommandArgumentsR31RuntimeSerializationCommandInfo
xaf:_TlsClientCertificateVerify__ctor_m110646389
cma:__ZN6prcoreL26RemapGenericIntegerToFloatI17TexFormatARGB888815TexFormatRFloatEEvPKNS_9InnerInfoE
VMh:_Context_GetServerContextSinkChain_m390126977
dPi:__ZN6il2cpp2vm17TypeNameParseInfoD2Ev
EI:__ZN4FMOD7Channel7setModeEj
yue:_StringReader_Read_m513112775
hXa:__ZNK8Renderer8GetLayerEv
xKa:__ZN12FlareManager11DeleteFlareEi
PLb:__ZNK6Camera20GetReplacementShaderEv
Wtj:_glProgramBinary__wrapper
mMd:_Decimal__ctor_m569480123_AdjustorThunk
Mjf:_HttpWebRequest__cctor_m3013631978
zhj:__ZNSt3__26__treeINS_12__value_typeINS_12basic_stringIcNS_11char_traitsIcEENS_9allocatorIcEEEEPFvvEEENS_19__map_value_compareIS7_SA_NS_4lessIS7_EELb1EEENS5_ISA_EEE4findIS7_EENS_15__tree_iteratorISA_PNS_11__tree_nodeISA_PvEEiEERKT_
Lbb:__ZNSt3__26vectorIN9ShaderLab20SerializedSubProgram14ConstantBufferENS_9allocatorIS3_EEE7reserveEj
rja:__ZL23stbir__calculate_memoryP11stbir__info
mOg:__Z83RuntimeInvoker_Void_t1841601450_Int64_t909078037_Int32_t2071877448_Int64_t909078037PFvvEPK10MethodInfoPvPS4_
J9g:_Scrollbar_FindSelectableOnRight_m3219495255
a$h:_Logger_IsLogTypeAllowed_m243840823
SIb:__ZNK6Camera18GetRenderRectangleEv
ASi:__ZNK15dense_hashtableINSt3__24pairIK10KeyWrapperINS1_IPK10MethodInfoP11Il2CppClassEEEjEES9_17ReflectionMapHashIS8_EN14dense_hash_mapIS9_jSD_NS9_14EqualsComparerINS0_8equal_toIS8_EEEENS0_9allocatorISB_EEE9SelectKeyESI_SK_E3endEv
X_a:__ZN13sorted_vectorIN4core12basic_stringIcNS0_20StringStorageDefaultIcEEEENSt3__24lessIS4_EE13stl_allocatorIS4_L18MemLabelIdentifier81ELi16EEE4findIS4_EENS5_11__wrap_iterIPS4_EERKT_
y$d:_Array_InternalArray__ICollection_CopyTo_TisVector3_t2243707580_m509487340_gshared
$pc:__ZL26Transfer_SimpleNativeClassI8JSONRead10RectOffsetLb1EEvRK29SerializationCommandArgumentsR31RuntimeSerializationCommandInfo
hMc:__Z44CanvasRenderer_CUSTOM_INTERNAL_CALL_SetColorP12Il2CppObjectRK10ColorRGBAf
Ycj:_GC_should_collect
TKh:_UrlAttribute_Equals_m1587451932
Qmc:__Z18Transfer_BlittableI9JSONWriteLb1EsEvRK29SerializationCommandArgumentsR31RuntimeSerializationCommandInfo
Ame:_Int16_ToString_m4099416068_AdjustorThunk
JVc:_DSAParameters_t1872138834_marshal_pinvoke_cleanup
j8b:__ZN9Transform16SetLocalRotationERK11Quaternionf
MHb:__ZN13RenderManager37RenderCamerasWithScriptableRenderLoopEi
Vae:_ASN1_Element_m2600236165
CY:__ZN23InstancedPropInfoStaticL16RegisterCallbackEPv
ZA:__ZN7mecanim8skeleton25SkeletonPoseComputeLocalQEPKNS0_8SkeletonEPKNS0_13SkeletonPoseTIN4math4trsXEEEPS7_ii
_4i:__ZN6il2cpp2os19ReleaseSocketHandleEj
aMg:__Z92RuntimeInvoker_Void_t1841601450_DateTime_t693205669_DateTime_t693205669_TimeSpan_t3430258949PFvvEPK10MethodInfoPvPS4_
xN:__ZN11AudioModule16GetDSPSampleRateEv
BSf:_TypeBuilder_get_next_table_index_m1415870184
Xoj:___cxa_can_catch
B5e:_SequentialSearchPrimeGeneratorBase_GenerateNewPrime_m296245934
Ewd:_Char_GetUnicodeCategory_m4273361321
bwe:_Math_Round_m565516458
DMh:_Identity_get_ClientDynamicProperties_m767245959
f6i:__ZN6il2cpp2os5posix15PosixWaitObjectC2ENS2_4TypeE
$Jb:__ZN6Camera21PostMultiCustomRenderENS_10RenderFlagEb
qXf:_TypeBuilder_create_generic_class_m986834171
Rpa:__ZN12_GLOBAL__N_112UploadImagesEP7ApiGLESjji14GraphicsFormatPKhjS2_iiii16TextureUsageModePh
QEb:__ZN23ShaderVariantCollection13WarmupShadersEv
Jbf:_Context_set_ProtocolNegotiated_m1177527245
FMf:_UInt32_System_IConvertible_ToChar_m1056040486
M0:__Z25GetCommonScriptingClassesv
qhf:_TlsStream_get_Length_m1562309511
k8a:__Z27scripting_gc_collect_unsafei
CN:__ZN11AudioModule20SuspendVideoTexturesEv
FP:__Z59Register_UnityEngine_AudioExtensionManager_GetAudioListenerv
C1b:__ZN12CubemapArrayC2E18MemLabelIdentifier18ObjectCreationMode
BEd:_Convert_ToByte_m395020137
Erb:__Z26Transfer_UnityEngineObjectI24GenerateTypeTreeTransferLb0EEvRK29SerializationCommandArgumentsR31RuntimeSerializationCommandInfo
Xwc:_UNITY_FT_GlyphLoader_CheckPoints
lve:_TextWriter_WriteLine_m1754475888
tKa:__ZN15SharedLightData7PrecalcEv
IFa:__ZN10Matrix4x4fmLERKS_
v5d:_Array_InternalArray__get_Item_TisDouble_t4078015681_m2215331088_gshared
avb:__Z35Transfer_Blittable_FixedBufferFieldI18StreamedBinaryReadILb1EEsEvRK29SerializationCommandArgumentsR31RuntimeSerializationCommandInfo
Qlh:_Dictionary_2_Init_m3666073812_gshared
KAa:__ZN15ArchiveReadFileD0Ev
lee:_SymmetricTransform_TransformBlock_m1524716432
Rgi:_GUIUtility_TakeCapture_m1786193394
mXd:_Array_compare_TisColor32_t874517518_m3842009370_gshared
tPc:__ZN11UnityEngine15PlatformWrapper18GetOperatingSystemEv
h1e:_ReadOnlyCollection_1_System_Collections_Generic_ICollectionU3CTU3E_Remove_m974176789_gshared
LNd:_Delegate_return_type_match_m4278947849
sod:_InputField_GenerateHightlight_m1346735465
JZh:_UnityEventBase_ToString_m2323130098
wTh:_Uri_ParseNoExceptions_m1151989845
UDd:_GC_SuppressFinalize_m953228702
Mwc:_FT_MSB
bxf:_SoapServices_PreLoad_m490411755
a8h:_RectOffset__ctor_m2517237351
ELg:__Z63RuntimeInvoker_RuntimeObject_Int32_t2071877448_SByte_t454417549PFvvEPK10MethodInfoPvPS4_
Vhj:__ZN6il2cpp6icalls8mscorlib4Mono8Security12Cryptography18KeyPairPersistence10_CanSecureEP12Il2CppString
Jth:_Action_1_Invoke_m4180501989_gshared
Bch:_Slider__ctor_m3124136916
Y9:__ZN13GfxDeviceGLES14SetRasterStateEPK17DeviceRasterState
ind:_InputField_set_caretPositionInternal_m231166704
dbf:_TlsServerHello__ctor_m3032108168
Pua:__ZN14SafeBinaryRead11EndTransferEv
V6f:__ZL98ILGenerator_t99948092_CustomAttributesCacheGenerator_ILGenerator_Mono_GetCurrentOffset_m3553856682P21CustomAttributesCache
rmb:__ZN14SafeBinaryRead8TransferI8MonoPPtrEEvRT_PKc17TransferMetaFlags
VDh:_InternalEnumerator_1_System_Collections_IEnumerator_get_Current_m1533037706_gshared
Rqa:__ZN21UniformBufferTFMethod13MapBoneBufferEj
Vef:_RecordProtocol_SendChangeCipherSpec_m3542001341
G1d:_Array_InternalArray__set_Item_TisVector3_t2243707580_m1390667454_gshared
eic:__ZN12GUIClipState10BeginOnGUIER10InputEvent
XZi:__ZNSt3__26vectorIcNS_9allocatorIcEEEC2Ej
ice:_KeyPairPersistence_CanSecure_m2251009700
Dw:__ZN7mecanim5human14HumanPoseClearERNS0_9HumanPoseERKNS_6bitsetILj70EEE
Iuf:_ReturnMessage_get_Properties_m531965085
CUf:_GenericTypeParameterBuilder_IsSubclassOf_m563999142
UQd:_Exception_ToString_m627574695
YXf:_AddEventAdapter_Invoke_m3970567975
Ejc:__Z30Event_Get_Custom_PropModifiersP12Il2CppObject
yt:__ZN7mecanim9animation16CreateClipOutputEPKNS0_4ClipERNS_6memory9AllocatorE
Q$d:_Array_InternalArray__Insert_TisDecimal_t724701077_m1429254816_gshared
YOg:__Z191RuntimeInvoker_Int32_t2071877448_RuntimeObject_Int32_t2071877448_Int32_t2071877448_RuntimeObject_Int32_t2071877448_SByte_t454417549_Int32U26_t455636984_BooleanU26_t3168250738_SByte_t454417549PFvvEPK10MethodInfoPvPS4_
ZIf:_TimeSpan_get_Days_m1002111510
Qzb:__ZNSt3__218__stable_sort_moveIRN10vector_mapI17ScriptingClassPtrPKN5Unity4TypeENS_4lessIS2_EENS_9allocatorINS_4pairIS2_S6_EEEEE13value_compareENS_11__wrap_iterIPSB_EEEEvT0_SJ_T_NS_15iterator_traitsISJ_E15difference_typeEPNSM_10value_typeE
rab:__ZN6Shader21AwakeFromLoadThreadedEv
ela:__ZN6prcoreL17RemapGenericFloatI17TexFormatRGBFloat17TexFormatRGBAHalfEEvPKNS_9InnerInfoE
YBg:__ZL70InputField_t1631627530_CustomAttributesCacheGenerator_m_CharacterLimitP21CustomAttributesCache
cjj:__ZN6il2cpp2os9SemaphoreC2Eii
Tvh:_InternalEnumerator_1_get_Current_m2960188445_AdjustorThunk
tmb:__ZNSt3__26vectorI8MonoPPtr13stl_allocatorIS1_L18MemLabelIdentifier1ELi16EEE8__appendEj
aeh:_Text_set_alignByGeometry_m1514652028
FKb:__ZN14qsort_internal30FindAndMovePivotToLastPositionIP17RODataReplacementi19ROSorterReplacementEEvT_S4_T0_T1_
ara:__ZN15UniformTFMethod20IsBoneCountSupportedEi
qre:_FileStream_get_Position_m465478322
rFi:__ZN14dense_hash_setI10KeyWrapperIPK19Il2CppGenericMethodEN6il2cpp8metadata23Il2CppGenericMethodHashENS4_14EqualsComparerINS6_26Il2CppGenericMethodCompareEEENSt3__29allocatorIS4_EEEC2EjRKS7_RKSA_
dqj:dynCall_viidi
U$d:_Array_InternalArray__Insert_TisInt64_t909078037_m3039874636_gshared
Meh:_ToggleGroup_NotifyToggleOn_m997426227
dff:_RSASslSignatureDeformatter_SetKey_m1150106904
y_:__ZN24ScriptingMethodFiltering17FilterOnSignatureENS_18MethodSearchFilterE
t9g:_Scrollbar_ClickRepeat_m3403943364
AO:__ZN13ProduceHelperI9AudioClipLb0EE7ProduceE18MemLabelIdentifier18ObjectCreationMode
kWb:__ZN18ScreenManagerWebGL13SetLockCursorE14CursorLockMode
rDc:_cf2_arrstack_finalize
Hxe:_MonoType_GetMethodsByName_m1854415088
Kfh:_Enumerator_get_CurrentValue_m3147984131_gshared
Tui:_DisplayBuffer_CutViewport_m34694897
KSf:_DerivedType_GetMethods_m165266904
Sde:_RSAManaged_EncryptValue_m4089823119
n$b:__ZN13MonoBehaviour19HandleNotificationsEPviR11MessageData
bXh:_Component_get_gameObject_m2159020946
Jjj:__ZN6il2cpp2os9EventImpl5ResetEv
NHi:__ZN6il2cpp2vm13MetadataCache23GetMethodGenericContextEPK10MethodInfo
xei:_Event_get_keyCode_m4176847855
ese:_ReadDelegate_Invoke_m2091885836
TTf:_TypeBuilder_GetField_m2112455315
xtj:b58
ytj:b59
ftj:b52
qtj:b53
dtj:b50
etj:b51
vtj:b56
wtj:b57
ttj:b54
utj:b55
oJd:_DateTime__ctor_m3604679583_AdjustorThunk
fde:_MACAlgorithm_Core_m2390605245
ZCh:_InternalEnumerator_1_System_Collections_IEnumerator_get_Current_m30488070_gshared
x3b:__ZN10GameObject12CleanupClassEv
Maa:__ZN9GfxDevice25SetShaderPropertiesSharedERK19ShaderPropertySheet
cki:_IndexedSet_1_GetEnumerator_m3646001838_gshared
Tha:__ZN18AsyncUploadManager19AsyncResourceUploadER9GfxDeviceii9TextureID
G7g:_VertexHelper_AddUIVertexTriangleStream_m4009409241
P2b:__ZL25InitializeDefaultMaterialv
HMc:__Z53Register_UnityEngine_CanvasRenderer_get_materialCountv
SW:__GLOBAL__sub_I_runtime_graphics_lod_0_cpp
ofh:_VertexHelper_AddVert_m3290455716
Qya:__ZN17PersistentManager12UnloadStreamERKN4core12basic_stringIcNS0_20StringStorageDefaultIcEEEEb
JZb:__ZN14dense_hash_mapIN4core12basic_stringIcNS0_20StringStorageDefaultIcEEEE10vector_setI4PPtrI11SpriteAtlasENSt3__24lessIS8_EE13stl_allocatorIS8_L18MemLabelIdentifier81ELi16EEE20StringHash32FunctionIS4_ENS9_8equal_toIS4_EESC_INS9_4pairIKS4_SF_EELSD_81ELi16EEEixERSL_
fZa:__ZN13ScreenManager17RequestResolutionEiibi
VUc:_DESTransform__ctor_m4096028381
lNi:_il2cpp_unity_liveness_calculation_from_statics
gx:__ZNK26AnimatorControllerPlayable11DerivesFromE17ScriptingClassPtr
mIf:_Scheduler_get_Instance_m1989471839
TXa:__ZN8Renderer8TransferI17RemapPPtrTransferEEvRT_
U4g:__Z76RuntimeInvoker_Boolean_t3825574718_UIVertex_t1204258818_UIVertex_t1204258818PFvvEPK10MethodInfoPvPS4_
wTe:_Collection_1_Contains_m1299140035_gshared
stj:_glBlitFramebuffer__wrapper
p_d:_Array_InternalArray__ICollection_Add_TisUICharInfo_t3056636800_m968274080_gshared
mli:_ObjectPool_1__ctor_m1532275833_gshared
fLe:_List_1_GetIndex_m3262928832_gshared
qfc:__Z33Sprite_CUSTOM_INTERNAL_get_borderP12Il2CppObjectP8Vector4f
jUb:__ZN16ReflectionProbes9GetCameraEv
_eb:__ZL18IsGpuProgramUsable20ShaderGpuProgramTypePK6Shader
she:_ArgumentException__ctor_m2105824819
kLc:__ZN2UI6Canvas17SetSortingLayerIDEi
_cd:_BaseMeshEffect_get_graphic_m3358796463
c6i:__ZN6il2cpp2vm11MethodStack23CleanupForCurrentThreadEv
bwi:_Predicate_1_Invoke_m695569038_gshared
VAe:_Enumerator_VerifyState_m825848279_AdjustorThunk
pLa:__ZN20TierGraphicsSettings8TransferI24GenerateTypeTreeTransferEEvRT_
Kgi:_GUIStyleState_Cleanup_m824895509
dob:__ZN14SafeBinaryRead21TransferSTLStyleArrayI13dynamic_arrayI4AABBLj4EEEEvRT_17TransferMetaFlags
KRa:__ZN18UnityPropertySheet8TransferI19StreamedBinaryWriteILb0EEEEvRT_
rdf:_TlsServerCertificate_checkServerIdentity_m3836435780
F7:__ZNSt3__26__treeINS_12__value_typeIiN11TypeManager18TypeCallbackStructEEENS_19__map_value_compareIiS4_NS_4lessIiEELb1EEENS_9allocatorIS4_EEE7destroyEPNS_11__tree_nodeIS4_PvEE
Uee:_PKCS12_Decrypt_m2353135969
ZWh:_Color32_ToString_m685380321
wZf:_MonoEvent_ToString_m386956596
_qg:__ZL70RuntimePlatform_t1869584967_CustomAttributesCacheGenerator_FlashPlayerP21CustomAttributesCache
L2d:_Array_Sort_TisRuntimeObject_m3309514378_gshared
_ea:__ZL19GetCameraTargetRectRK6Camerabb
tOc:__ZN11UnityEngine7Connect17XRDeviceInfoEventD0Ev
bih:_Transform_1_BeginInvoke_m1786442111_gshared
Yke:_Int32_GetFormatException_m1729046182
dEa:__ZN13dynamic_arrayIN10GameObject13ComponentPairELj4EE6insertEPS1_RKS1_
aV:__ZN21UnityDefaultAllocatorI17LowLevelAllocatorE10DeallocateEPv
tr:__ZN15PackedIntVector8TransferI14SafeBinaryReadEEvRT_
bYf:_FieldInfo_get_IsLiteral_m267898096
HJg:__Z45RuntimeInvoker_RuntimeObject_Int64_t909078037PFvvEPK10MethodInfoPvPS4_
rgf:_SslStreamBase_EndNegotiateHandshake_m1732321201
zih:_Transform_1_BeginInvoke_m1167293475_gshared
hH:__ZN13AudioListener8DoUpdateEv
glc:__ZN5Unity9rapidjson13GenericReaderINS0_4UTF8IcEES3_13JSONAllocatorE9ParseTrueILj1ENS0_25GenericInsituStringStreamIS3_EENS0_15GenericDocumentIS3_S4_S4_EEEEvRT0_RT1_
wEd:__Z13bankers_roundd
X4a:__ZN14SafeBinaryRead8TransferI5RectTIfEEEvRT_PKc17TransferMetaFlags
oi:_emscripten_glGenFramebuffers
EBd:_Hashtable_CopyTo_m2778915805
A7:__ZN17BaseObjectManager16StaticInitializeEPv
_Rf:_ConstructorBuilder_get_IsCompilerContext_m2796899803
_Xd:_Array_IndexOf_TisUIVertex_t1204258818_m613887160_gshared
XEd:_DateTime_CoreParse_m2014268103
wnc:__Z18Transfer_BlittableI9JSONWriteLb0EyEvRK29SerializationCommandArgumentsR31RuntimeSerializationCommandInfo
UPa:__ZN13RenderTexture15ThreadedCleanupEv
cXd:_Array_BinarySearch_TisRuntimeObject_m3361740551_gshared
zTa:__ZN12CubemapArray23VirtualRedirectTransferER14SafeBinaryRead
Ct:__ZN21AnimationClipPlayable16ProcessHumanPassEPK35AnimationPlayableEvaluationConstantPK32AnimationPlayableEvaluationInputP33AnimationPlayableEvaluationOutput
zcc:__Z51Register_UnityEngine_QualitySettings_set_vSyncCountv
o1e:_ReadOnlyCollection_1_System_Collections_IList_Add_m616574295_gshared
Zke:_Int32_ProcessTrailingWhitespace_m2812079777
Dec:__Z43RectTransform_CUSTOM_INTERNAL_set_sizeDeltaP12Il2CppObjectRK13Vector2fIcall
nlf:_WebProxy__ctor_m3679722173
j2i:__ZN15dense_hashtableINSt3__24pairIK10KeyWrapperINS1_IPKcS4_EEEiEES6_24NamespaceAndNamePairHashN14dense_hash_mapIS6_iS9_NS6_14EqualsComparerI26NamespaceAndNamePairEqualsEENS0_9allocatorIS8_EEE9SelectKeyESD_SF_E6insertERKS8_
Fwa:__ZN24GenerateTypeTreeTransfer18BeginArrayTransferEPKcS1_Ri17TransferMetaFlags
gia:__Z16DecompressCrunchPKhRjR13TextureFormatiiii18MemLabelIdentifier
im:___syscall51
mm:___syscall54
Nfb:__ZN9ShaderLab9SubShader19CreateFromSubShaderERKS0_
UC:__ZNK8Animator20IsAnyRendererVisibleEv
YDc:_cff_builder_add_point1
d3i:__ZN6il2cpp2vm5Image21GetCachedResourceDataEPK11Il2CppImageRKNSt3__212basic_stringIcNS5_11char_traitsIcEENS5_9allocatorIcEEEE
Lkd:_HorizontalOrVerticalLayoutGroup_set_childControlWidth_m4209477792
e_d:_Array_InternalArray__ICollection_Add_TisUInt32_t2149682021_m2629016323_gshared
alb:__Z18Transfer_BlittableI14SafeBinaryReadLb0E10ColorRGBAfEvRK29SerializationCommandArgumentsR31RuntimeSerializationCommandInfo
za:invoke_iiiiiiiiii
fP:__ZN11AudioSource25GetNumExtensionPropertiesEv
I$d:_Array_InternalArray__Insert_TisKeyValuePair_2_t888819835_m975554221_gshared
kOg:__Z59RuntimeInvoker_RuntimeObject_Int64_t909078037_RuntimeObjectPFvvEPK10MethodInfoPvPS4_
w7a:__ZN18LoadSceneOperation19IntegrateTimeSlicedEi
xIf:_Scheduler_SchedulerThread_m2209572785
Z7d:_SortKeyBuffer_GetResultAndReset_m2516956577
rYb:__ZN10FileSystem19SetCurrentDirectoryERKN4core12basic_stringIcNS0_20StringStorageDefaultIcEEEE
g1:__ZN16ScriptingManager24NotifyScriptCacheReleaseEi
Hac:__Z47Register_UnityEngine_Coroutine_ReleaseCoroutinev
UH:__ZN15AudioReverbZone13SetFMODValuesEv
HZ:__ZL19StaticDestroyShaderPv
_d:_glRenderbufferStorageMultisample
P6h:_Ray_GetPoint_m2427899009
oy:__ZN23AnimationPlayableOutput17SetTargetAnimatorEP8Animator
Toc:__ZN9JSONWrite8TransferI13dynamic_arrayIN4math12int3_storageELj4EEEEvRT_PKc17TransferMetaFlags
m4h:_X509Chain__ctor_m1113875360
B0e:_ReadOnlyCollection_1__ctor_m2387481411_gshared
Mdf:_TlsServerHello_processProtocol_m1241336522
mUd:_Array_InternalArray__ICollection_Remove_TisKeyValuePair_2_t888819835_m1287715465_gshared
rNh:_ContextAttribute_IsContextOK_m3281216012
pte:_PathTooLongException__ctor_m3212099251
dzf:_ObjectManager_RaiseDeserializationEvent_m1611173032
Cr:__ZN17PackedFloatVector8TransferI18StreamedBinaryReadILb0EEEEvRT_
BUa:__ZN7Cubemap23VirtualRedirectTransferER17RemapPPtrTransfer
Ccc:__Z37Register_UnityEngine_Screen_get_widthv
L5b:__ZN22BlockMemoryCacheWriter11GetPathNameEv
ejd:_Graphic_Rebuild_m2617722358
bLd:_DateTime_ToString_m3108726445_AdjustorThunk
UQ:__ZN19CloudServiceHandlerD2Ev
e5d:_Array_InternalArray__get_Item_TisTableRange_t2011406615_m602485977_gshared
lod:_InputField_Append_m2623574152
mhe:_ApplicationException__ctor_m1120437222
Vo:stackAlloc
_ac:__Z44Camera_CUSTOM_INTERNAL_CALL_ScreenPointToRayP12Il2CppObjectRK8Vector3fR3Ray
VBa:__ZN25SingleBlockMemoryFileData4LockEPPv
_Vf:_MethodBuilder_GetHashCode_m1713271764
hQe:_Collection_1_IsSynchronized_m1319022347_gshared
g7d:_MSCompatUnicodeTable_GetResource_m3816716847
Frf:_Interval_get_IsSingleton_m1888598248_AdjustorThunk
rrd:_Array_CreateInstance_m15016505
vnb:__ZNSt3__26vectorI17AnimationCurveTplIfE13stl_allocatorIS2_L18MemLabelIdentifier1ELi16EEE6assignINS_11__wrap_iterIPS2_EEEENS_9enable_ifIXaasr21__is_forward_iteratorIT_EE5valuesr16is_constructibleIS2_NS_15iterator_traitsISC_E9referenceEEE5valueEvE4typeESC_SC_
Slj:_stat
bHa:__ZN9ShaderLab10SubProgram7CompileEv
pyi:_Canvas_get_isRootCanvas_m3746337338
h$d:_Array_InternalArray__ICollection_CopyTo_TisUInt16_t986882611_m3228377237_gshared
HCg:__ZL68Navigation_t1571958496_CustomAttributesCacheGenerator_m_SelectOnDownP21CustomAttributesCache
XHa:__ZN6CameraD2Ev
EXc:_RC2_set_KeySize_m2015782960
la:invoke_iiiiiiiiiiii
Iee:_StrongName_get_PublicKey_m3777577320
qZh:_PersistentCallGroup_Initialize_m3729167844
IK:__ZN10AudioMixer12RebindOutputEv
VXi:__ZNK15dense_hashtableINSt3__24pairIK10KeyWrapperIP11Il2CppClassES4_EES5_N6il2cpp8metadata16SZArrayClassHashEN14dense_hash_mapIS5_S4_SA_NS5_14EqualsComparerINS9_19SZArrayClassCompareEEENS0_9allocatorIS7_EEE9SelectKeyESE_SG_E5beginEv
cCi:__ZN6il2cpp2vm17SetupFieldsLockedEP11Il2CppClassRKNS_2os12FastAutoLockE
jL:__ZN11AudioSourceD0Ev
yjb:__ZN16MemoryFileSystem4NameEv
N7c:_BaseRaycaster_OnEnable_m3641767070
w5e:_PrimeGeneratorBase_get_PrimalityTest_m308005118
dhc:__Z13SetCopyBufferRKN4core12basic_stringIcNS_20StringStorageDefaultIcEEEE
BFe:_List_1_CheckIndex_m2328469916_gshared
HRg:__Z75RuntimeInvoker_RuntimeObject_RuntimeObject_Decimal_t724701077_RuntimeObjectPFvvEPK10MethodInfoPvPS4_
Kvc:_UNITY_FT_New_Size
W8b:__Z42ScriptingGetComponentsOfTypeFromGameObjectRK26ScriptingGetComponentsArgs
Mei:_GUI_set_changed_m3199207797
oOe:_List_1_get_Item_m3157283227_gshared
mId:_Convert_ToString_m2915777777
fSa:__ZNSt3__27__sort4IRPFbRKNS_4pairIN9ShaderLab16FastPropertyNameEN18UnityPropertySheet11UnityTexEnvEEES8_EPS6_EEjT0_SD_SD_SD_T_
nDc:_cf2_hintmap_build
hBc:_Line_Up
nye:_MonoType_GetGenericTypeDefinition_m2363776160
Tbf:_Context_set_SentConnectionEnd_m2641458842
fe:_emscripten_glBufferSubData
Cud:_Buffer_BlockCopyInternal_m2627156229
Zid:_Graphic_set_material_m329335629
w7c:_ExecuteEvents_get_pointerExitHandler_m3250605428
gka:__ZN6prcoreL12RemapGenericI15TexFormatRGB88817TexFormatARGB8888EEvPKNS_9InnerInfoE
Lp:__Z17CalculateGlobalRS23TransformAccessReadOnly
I9d:_Kernel_multiByteDivide_m735279869
xoh:_Dictionary_2_ToTValue_m542772656_gshared
XHf:_Thread_GetNewManagedId_internal_m3211695465
Kzi:_UISystemProfilerApi_EndSample_m3264820872
Eha:__ZN17GenericDynamicVBO17DrawChunkInternalERK21DynamicVBOChunkHandle17ShaderChannelMaskS3_P17VertexDeclarationP16DrawBuffersRangeij
$nb:__ZN14SafeBinaryRead21TransferSTLStyleArrayI13dynamic_arrayI9BoundsIntLj4EEEEvRT_17TransferMetaFlags
eab:__ZN22MemoryCacherReadBlocks14LockCacheBlockEjPPhS1_
Dtd:_Boolean_System_IConvertible_ToChar_m2637404801_AdjustorThunk
L1c:_SecurityContext_Capture_m2535194991
XLf:_UInt16_System_IConvertible_ToSByte_m3044765342_AdjustorThunk
RIb:__ZNK9GfxDevice26GetSinglePassStereoEyeMaskEv
CQg:__Z66RuntimeInvoker_Void_t1841601450_Int64_t909078037_Int32_t2071877448PFvvEPK10MethodInfoPvPS4_
Juc:__ZN20TextRenderingPrivate8FontImpl16CacheFontForTextEPtiifjPK13dynamic_arrayINS_16TextFormatChangeELj4EE
Z1d:_Array_qsort_TisUIVertex_t1204258818_TisUIVertex_t1204258818_m512606409_gshared
uVc:__Z21ArrayElementTypeCheckP11Il2CppArrayPv
Iwj:_emscripten_glTexSubImage2D__wrapper
_if:_NameValueCollection_AsSingleString_m10599052
hPb:__ZN14qsort_internal30FindAndMovePivotToLastPositionIP21ForwardRenderPassDataiN23ForwardShaderRenderLoop18RenderObjectSorterILb0EEEEEvT_S6_T0_T1_
nze:_Object_InternalGetHashCode_m1371384246
x7g:_Navigation_get_defaultNavigation_m2185194207
Uui:_DisplayBuffer__ctor_m2438399907
Tme:_Int32_System_IConvertible_ToSByte_m1449623243_AdjustorThunk
Gge:_AccessViolationException__ctor_m1270251537
NNc:__Z42Register_UnityEngine_Canvas_get_rootCanvasv
F4h:_X509ExtensionCollection_IndexOf_m3972100651
qmb:__Z14resize_trimmedINSt3__26vectorI8MonoPPtr13stl_allocatorIS2_L18MemLabelIdentifier1ELi16EEEEEvRT_j
Oe:_TTF_RenderText_Solid
RMf:_UInt32_System_IConvertible_ToInt64_m3091851828
wwe:_MissingMethodException__ctor_m3898429715
Cwf:_RemotingConfiguration_RegisterClientProviderTemplate_m514821425
xgh:_Enumerator_System_Collections_IEnumerator_Reset_m3085583937_gshared
O7:__ZN15dense_hashtableINSt3__24pairIKPKcPK4RTTIEES3_N11TypeManager23ConstCharPtrHashFunctorEN14dense_hash_mapIS3_S7_SA_NS9_19ConstCharPtrEqualToE13stl_allocatorIS8_L18MemLabelIdentifier7ELi16EEE9SelectKeyESC_SF_E15insert_noresizeERKS8_
Tde:_RSAManaged_ExportParameters_m2873993187
XDd:_Convert__cctor_m926133987
ePe:_Enumerator__ctor_m2816143215_AdjustorThunk
wSc:__ZN11UnityEngine7Connect16PersistentValuesC2Ev
$nf:_X509Chain_FindParent_m404663796
anc:__Z18Transfer_BlittableI9JSONWriteLb0E5RectTIiEEvRK29SerializationCommandArgumentsR31RuntimeSerializationCommandInfo
vwe:_MissingMemberException__ctor_m2164043278
bAi:__ZL7log2_32j
joa:__Z15IsIEEE754Format14GraphicsFormat
Xpb:__Z19TransferField_ArrayI17RemapPPtrTransfer27Converter_UnityEngineObjectEvRK23StaticTransferFieldInfoR31RuntimeSerializationCommandInfoRT0_
Za:invoke_iifiii
PNa:__ZN14RenderSettings8TransferI18StreamedBinaryReadILb0EEEEvRT_
$ba:__ZN13GfxDeviceGLES15UploadTexture2DE9TextureID16TextureDimensionPKhiii14GraphicsFormati18TextureUploadFlags16TextureUsageMode
LJ:__ZN4FMOD6System9createDSPEP20FMOD_DSP_DESCRIPTIONPPNS_3DSPE
OF:__ZN4FMOD8ChannelI11EndCallbackEv
n$c:_ToBase64Transform_TransformBlock_m2201454137
hjc:__ZN8GUIStyle14SetDefaultFontEPN13TextRendering4FontE
MWf:_OpCode_get_StackBehaviourPop_m3787015663_AdjustorThunk
gPh:_PatternCompiler_EmitCount_m3609178511
zYa:__ZN15QualitySettings23VirtualRedirectTransferER24GenerateTypeTreeTransfer
SNi:__ZN6il2cpp2os10FileHandleC2Ev
PEi:__ZN30dense_hashtable_const_iteratorINSt3__24pairIK10KeyWrapperIPK19Il2CppGenericMethodEPK26Il2CppGenericMethodIndicesEES6_N6il2cpp8metadata23Il2CppGenericMethodHashEN14dense_hash_mapIS6_SA_SE_NS6_14EqualsComparerINSD_26Il2CppGenericMethodCompareEEENS0_9allocatorISB_EEE9SelectKeyESI_SK_EppEv
Uhf:_HybridDictionary_Add_m1037587952
mvc:_UNITY_FT_Request_Metrics
QHa:__Z37GetBarycentricCoordinatesForOuterCellPPK8Vector3fRK13dynamic_arrayIS_Lj4EERS0_RK11TetrahedronR8Vector4fRf
J0i:__ZN6il2cpp6icalls8mscorlib6System10Reflection10MonoMethod29get_IsGenericMethodDefinitionEP22Il2CppReflectionMethod
nZi:__ZN6il2cpp2vm6Thread21AllocThreadStaticDataEi
_Ed:_DateTime_YearMonthDayFormats_m4204607055
Fed:_ColorBlock_set_disabledColor_m3502887543_AdjustorThunk
E9i:__ZN30dense_hashtable_const_iteratorINSt3__24pairIK10KeyWrapperIPK19Il2CppGenericMethodEP10MethodInfoEES6_N6il2cpp8metadata23Il2CppGenericMethodHashEN14dense_hash_mapIS6_S9_SD_NS6_14EqualsComparerINSC_26Il2CppGenericMethodCompareEEENS0_9allocatorISA_EEE9SelectKeyESH_SJ_EppEv
rO:__Z13RegisterClassI13AudioListenerEvv
_li:_Aes__ctor_m4020215067
zmc:__Z18Transfer_BlittableI9JSONWriteLb0E8Vector3fEvRK29SerializationCommandArgumentsR31RuntimeSerializationCommandInfo
Nf:_emscripten_glUniform4i
cjd:_Graphic_OnDisable_m2360886868
sli:_ObjectPool_1_Release_m1615270002_gshared
Ze:_emscripten_glUniform4f
tj:___unlock
Eza:__ZN15dense_hashtableINSt3__24pairIKN4core12basic_stringIcNS2_20StringStorageDefaultIcEEEEP20ArchiveStorageReaderEES6_20StringHash32FunctionIS6_EN14dense_hash_mapIS6_S9_SC_NS0_8equal_toIS6_EE13stl_allocatorISA_L18MemLabelIdentifier55ELi16EEE9SelectKeyESF_SI_ED2Ev
abh:_ScrollRect_InternalCalculateOffset_m3083065267
LWb:__ZN13sorted_vectorINSt3__24pairIN4core12basic_stringIcNS2_20StringStorageDefaultIcEEEES6_EEN10vector_mapIS6_S6_27compare_tstring_insensitiveIS6_E13stl_allocatorIS7_L18MemLabelIdentifier38ELi16EEE13value_compareESD_E9erase_oneIS6_EEjRKT_
Xzd:_Comparer_Compare_m4132969818
UL:__ZN20SoundChannelInstance19setReverbPropertiesEP29FMOD_REVERB_CHANNELPROPERTIES
lqh:_DefaultComparer_Equals_m2171836276_gshared
F$i:__ZN6il2cpp2vm9Exception18GetFormatExceptionEPKc
Mgc:__Z40Register_UnityEngine_Transform_IsChildOfv
H$h:_Mathf_Floor_m484333823
Pxd:_ArrayList_Sort_m923359189
l_h:_Gradient_Init_m3042650694
Obc:__Z45Register_UnityEngine_Display_GetSystemExtImplv
Bu:__ZN7mecanim9animation23TransformValuesFromClipEiiiRKNS_10ValueArrayERKNS0_10ClipOutputERKNS0_12ClipBindingsERS1_RNS_14ValueArrayMaskEb
_zi:__ZL17log2withScale_128yyi
VJc:__ZNSt3__218__insertion_sort_3IRNS_6__lessIN2UI14DepthSortEntryES3_EEPS3_EEvT0_S7_T_
D$b:__ZN2UI13RectTransform15InitializeClassEv
N5:__ZN13RuntimeStaticI15DirectorManagerLb0EE16StaticInitializeEPv
vqc:__ZN8JSONRead8TransferI23ManagedObjectTransfererEEvRT_PKc17TransferMetaFlagsb
R5e:_ASN1_get_Value_m2229768312
f7c:_BaseInput_get_touchCount_m998724785
M3a:__ZN11TimeManager6UpdateEv
Fod:_InputField_get_preferredWidth_m3185355225
PHf:_Thread_SetState_m3198426726
hyd:_ArrayListWrapper_Contains_m1158465965
Zlj:_fflush
sGa:__ZN17LightProbeContext4InitERK16LightmapSettingsRK14RenderSettings
akj:__GLOBAL__sub_I_Error_cpp
wpi:_AudioSource_INTERNAL_CALL_ReadExtensionPropertyName_m3694806886
rRh:_Alternation_GetWidth_m4218808325
W1e:_ReadOnlyCollection_1_System_Collections_IList_Insert_m2651065875_gshared
cxc:_ft_bitmap_glyph_bbox
fjf:_TypeConverterAttribute__ctor_m4061167050
HOe:_Enumerator_MoveNext_m3315718998_gshared
gej:_GC_reclaim_uninit
ySb:__Z34ProcessIndexListIsNodeVisibleStep2RK22SceneCullingParametersPK9SceneNodePK4AABBR9IndexList
QBb:__ZN10MonoScriptD2Ev
hdh:_Slider_OnRectTransformDimensionsChange_m4109401172
jlf:_WebHeaderCollection_Get_m3391944907
idc:__Z39Input_CUSTOM_INTERNAL_get_mousePositionP8Vector3f
iAc:_tt_cmap13_char_next
Kfb:__ZN9ShaderLab4Pass16SetupPassOptionsEv
ah:_JS_Sound_ReleaseInstance
Oqg:__ZL72IL2CPPStructAlignmentAttribute_t130316838_CustomAttributesCacheGeneratorP21CustomAttributesCache
_aa:__ZN13GfxDeviceGLES19DrawBuffersIndirectEP9GfxBufferPK18VertexStreamSourceiP17VertexDeclaration17ShaderChannelMask16GfxPrimitiveType15ComputeBufferIDj
lgd:_DefaultControls_CreateScrollbar_m770089625
tvj:_emscripten_glPixelStorei__wrapper
ISg:__Z98RuntimeInvoker_Void_t1841601450_Int32_t2071877448_Int32_t2071877448_SByte_t454417549_RuntimeObjectPFvvEPK10MethodInfoPvPS4_
ym:FUNCTION_TABLE_diddi
Uec:__Z26Material_CUSTOM_SetIntImplP12Il2CppObjectii
Hke:_Int16_System_IConvertible_ToSingle_m3277935657_AdjustorThunk
Bgf:_SslStreamBase_get_KeyExchangeAlgorithm_m3712013038
SNh:_InternalRemotingServices__cctor_m3821625125
_cc:__Z42Register_UnityEngine_RectOffset_get_bottomv
VEf:_StringBuilder_Insert_m3322917127
uph:_DefaultComparer_Equals_m724229128_gshared
mhh:_Enumerator_VerifyCurrent_m1702320752_AdjustorThunk
aob:__ZN9BoundsInt8TransferI14SafeBinaryReadEEvRT_
OGd:_Convert_ToDouble_m3520060872
Ouj:_emscripten_glUniform1f__wrapper
Opj:dynCall_di
jff:_SslCipherSuite_ComputeServerRecordMAC_m1876572367
tuc:__ZN20TextRenderingPrivate19NativeTextGeneratorC2ERK11UTF16StringPNS_8FontImplE11ColorRGBA32ifRK8Vector2fbifiibffbbbP13dynamic_arrayIN2UI8UIVertexELj4EE
gmc:__Z28RegisterModule_JSONSerializev
cHf:_Interlocked_CompareExchange_m3227034792
eWc:_HashAlgorithm_get_Hash_m931854461
lGh:_DefaultComparer_Compare_m3564013922_gshared
Mgb:__ZN2UI13RectTransform8TransferI14SafeBinaryReadEEvRT_
snc:__Z35Transfer_Blittable_FixedBufferFieldI9JSONWriteaEvRK29SerializationCommandArgumentsR31RuntimeSerializationCommandInfo
c7b:__Z20IsHumanControllingUsv
lIb:__ZNK19RenderEventsContext21ExecuteCommandBuffersEijR17ShaderPassContextR15RenderNodeQueueP19ProfilerInformationi
RV:__ZNK20DynamicHeapAllocatorI17LowLevelAllocatorE10GetPtrSizeEPKv
Qai:_Texture2D_GetPixelBilinear_m3514551520
Yu:__ZN17AnimationPlayable16AllocateBindingsEPK35AnimationPlayableEvaluationConstant
Ygd:_Dropdown_set_value_m2945561009
Raa:__ZN13GfxDeviceGLES17DestroyGpuProgramEPK10GpuProgram
Rhe:_GregorianCalendar_GetMonth_m523739832
Akb:__Z44InitializeTransferFunctionScriptingTraitsForI18StreamedBinaryReadILb0EEEvR31TransferFunctionScriptingTraits
xOb:__ZNSt3__218__insertion_sort_3IR23CompareReflectionProbesP31RuntimeReflectionProbeBlendInfoEEvT0_S5_T_
fqb:__ZN12NativeBufferI27Converter_SimpleNativeClassI8GradientEE15SetupForWritingER9ArrayInfo
D8:__ZNSt3__213__stable_sortIRNS_4lessIN4core12basic_stringIcNS2_20StringStorageDefaultIcEEEEEENS_11__wrap_iterIPS6_EEEEvT0_SC_T_NS_15iterator_traitsISC_E15difference_typeEPNSF_10value_typeEi
BX:__ZN12_GLOBAL__N_113StaticDestroyEPv
eke:_Guid_ToString_m51661589
Odh:_Text_set_font_m1095513810
xzj:_glUnmapBuffer__wrapper
bKd:_DateTime_System_IConvertible_ToUInt32_m1363211018_AdjustorThunk
Yld:_InputField_get_cachedInputTextGenerator_m881618486
$dc:__Z32Mesh_CUSTOM_ExtractArrayFromListP12Il2CppObject
FQf:_Binder_get_DefaultBinder_m965620943
_qc:__ZN8JSONRead21TransferSTLStyleArrayINSt3__26vectorI8Gradient13stl_allocatorIS3_L18MemLabelIdentifier1ELi16EEEEEEvRT_17TransferMetaFlags
h4a:__ZNSt3__218__insertion_sort_3IRNS_6__lessINS_4pairIPKN5Unity4TypeE7Hash128EES8_EEPS8_EEvT0_SC_T_
Prb:__ZN10RectOffset8TransferI24GenerateTypeTreeTransferEEvRT_
rsd:_SimpleEnumerator_get_Current_m482975946
Dmj:_srand
$qb:__Z18Transfer_BlittableI24GenerateTypeTreeTransferLb1E5RectTIiEEvRK29SerializationCommandArgumentsR31RuntimeSerializationCommandInfo
mIa:__ZNSt3__24listI4PPtrI6CameraENS_9allocatorIS3_EEE6removeERKS3_
EJc:__ZN2UI13CanvasManager19RemoveDirtyRendererEPNS_6CanvasEPNS_14CanvasRendererE
OFi:__ZN15dense_hashtableI10KeyWrapperIPK17Il2CppGenericInstES4_N6il2cpp8metadata21Il2CppGenericInstHashEN14dense_hash_setIS4_S7_NS4_14EqualsComparerINS6_24Il2CppGenericInstCompareEEENSt3__29allocatorIS4_EEE8IdentityESB_SE_E12resize_deltaEjj
b8b:__ZN8Material14DisableKeywordERKN4core12basic_stringIcNS0_20StringStorageDefaultIcEEEE
fPc:__ZN11UnityEngine15PlatformWrapper25GetGraphicsRendererStringEv
Tnd:_InputField_KeyPressed_m3066588581
mch:_Selectable_DoStateTransition_m539253088
w_c:_SHA512_Create_m439875055
yU:__ZN11UnityEngine15CloudWebService17WebFileDownloaderINS0_20WebRequestRestClientENS0_23WebRequestRestHeaderMapEED2Ev
Qb:invoke_vi
o_c:_SHA384Managed_update_m2629600295
Hoc:__ZN9JSONWrite8TransferI13dynamic_arrayI9BoundsIntLj4EEEEvRT_PKc17TransferMetaFlags
Ob:invoke_vd
pb:invoke_vf
Z2:__ZNK10GameObject8IsActiveEv
Gye:_NumberFormatter__cctor_m1641464619
zwg:__ZL67g_UnityEngine_PhysicsModule_Assembly_CustomAttributesCacheGeneratorP21CustomAttributesCache
PAf:_SByte_System_IConvertible_ToUInt32_m4256495110
L9c:_PointerEventData_set_eligibleForClick_m2036057844
Zna:__ZN18GfxFramebufferGLES23SetupDefaultFramebufferEPP17RenderSurfaceBaseS2_N2gl6HandleILNS3_10ObjectTypeE9EEE
fmj:_mbsinit
Yxg:__ZL70EventSystem_t3466835263_CustomAttributesCacheGenerator_m_FirstSelectedP21CustomAttributesCache
CZa:__ZN13ScreenManager18RequestOrientationE17ScreenOrientation
BCi:__ZN6il2cpp2vm5Class12SetupMethodsEP11Il2CppClass
s8b:__Z39DeleteLastPathNameComponentWithAnySlashRKN4core12basic_stringIcNS_20StringStorageDefaultIcEEEE
hic:__ZN10GUIManager14InitGUIManagerEv
UBg:__ZL68InputField_t1631627530_CustomAttributesCacheGenerator_m_KeyboardTypeP21CustomAttributesCache
sfh:_VerticalLayoutGroup_CalculateLayoutInputHorizontal_m497637066
rsf:_MethodCall__ctor_m4106494862
cLg:__Z167RuntimeInvoker_Void_t1841601450_SByte_t454417549_SByte_t454417549_SByte_t454417549_SByte_t454417549_SByte_t454417549_SByte_t454417549_SByte_t454417549_SByte_t454417549PFvvEPK10MethodInfoPvPS4_
qkc:__Z37Register_UnityEngine_GUIStyle_Cleanupv
Ma:invoke_iiifii
kLi:__ZN6il2cpp6icalls8mscorlib6System8MonoType13IsPointerImplEP20Il2CppReflectionType
yGd:_Convert_ToDecimal_m2284596541
Mi:_emscripten_glFramebufferRenderbuffer
nRb:__ZN19CullingGroupManager17CullAndSendEventsERK22SceneCullingParametersiRK13CullingOutputRK8JobFence
goe:_Int64_GetHashCode_m4047499913
eEa:__ZN9Transform30EnsureTransformHierarchyExistsEv
XMi:_il2cpp_field_get_flags
NN:__ZN11AudioModule26SetDefaultMicrophoneDriverEPv
Psd:_Attribute_IsDefined_m216577166
Twd:_Char_ToUpper_m109978609
ozh:_InternalEnumerator_1_get_Current_m1089848479_gshared
SOd:_Double_System_IConvertible_ToInt64_m3798425616
ubd:_StandaloneInputModule_get_repeatDelay_m3025279
W_a:__ZN14dense_hash_mapIN4core12basic_stringIcNS0_20StringStorageDefaultIcEEEE13dynamic_arrayI4PPtrI6SpriteELj4EE20StringHash32FunctionIS4_ENSt3__28equal_toIS4_EE13stl_allocatorINSC_4pairIKS4_S9_EEL18MemLabelIdentifier81ELi16EEEixERSH_
CWb:__ZNSt3__26vectorINS_4pairIN4core12basic_stringIcNS2_20StringStorageDefaultIcEEEEPK17MessageIdentifierEENS_9allocatorISA_EEE12__move_rangeEPSA_SE_SE_
GKb:__ZN14qsort_internal17MedianOfThreeSwapIP17RODataReplacement19ROSorterReplacementEEvT_S4_S4_T0_
sBi:__ZNK15dense_hashtableINSt3__24pairIK10KeyWrapperIPK22Il2CppGenericParameterEP11Il2CppClassEES6_N6il2cpp5utils11PointerHashIS4_EEN14dense_hash_mapIS6_S9_SE_NS6_14EqualsComparerINS0_8equal_toIS5_EEEENS0_9allocatorISA_EEE9SelectKeyESJ_SL_E3endEv
o8b:__ZN17TransformInternal36OnScaleChangedCalculateTransformTypeE15TransformAccess
lzd:_SynchronizedArrayListWrapper_InsertRange_m709359548
Xza:__ZN17ArchiveFileSystem10ToAbsoluteEPKc
k5e:_BigInteger_op_Modulus_m13450242
yFd:_DateTime__ctor_m3604679583
UPc:__ZN19UnityConnectService15GetPlayerUserIdEv
oHd:_Convert_ToInt32_m2988544165
o2d:_Array_Resize_TisColor32_t874517518_m2219502085_gshared
wz:__ZN7mecanim6CRCKeyENS_7eStringE
bhf:_SslStreamBase_get_CanWrite_m2069502593
_5b:__ZL12SetPrefValueRKN4core12basic_stringIcNS_20StringStorageDefaultIcEEEERK9PrefValue
naj:__ZN6il2cpp5utils11StringUtils6PrintfEPKcz
jYi:__ZNSt3__26vectorIN6il2cpp8metadata18GenericArrayMethodENS_9allocatorIS3_EEE7reserveEj
tSa:__ZN15NameToObjectMapI6ShaderNSt3__23mapI4PPtrIS0_EN4core12basic_stringIcNS5_20StringStorageDefaultIcEEEENS1_4lessIS4_EENS1_9allocatorINS1_4pairIKS4_S9_EEEEEENS1_8multimapIS9_S4_NSA_IS9_EENSC_INSD_IKS9_S4_EEEEEEE4FindERSK_
uhh:_ShimEnumerator_Reset_m98005789_gshared
_Ta:__ZN24GenerateTypeTreeTransfer21TransferResourceImageE19ActiveResourceImagePKcR13StreamingInfoPvjiPKN5Unity4TypeE
DIh:_ResourceEnumerator__ctor_m1679839941
S$e:_ReadOnlyCollection_1_System_Collections_IList_set_Item_m1377990618_gshared
yVf:_ILGenerator_make_room_m373147874
Xoh:_Dictionary_2_Init_m1045257495_gshared
kYd:_Array_InternalArray__IndexOf_TisKeyValuePair_2_t888819835_m2660446234_gshared
sde:_PKCS1_Verify_v15_m2571212635
vNa:__ZNSt3__212__deque_baseI18ReflectionProbeJobNS_9allocatorIS1_EEED2Ev
Uy:__ZN11UnityEngine9Animation27DestroyAnimationSetBindingsEPNS0_20AnimationSetBindingsERN7mecanim6memory9AllocatorE
obb:__ZN15dense_hashtableINSt3__24pairIKiN4core17string_with_labelILi1EEEEEi18SInt32HashFunctionN14dense_hash_mapIiS5_S7_NS0_8equal_toIiEE13stl_allocatorIS6_L18MemLabelIdentifier1ELi16EEE9SelectKeyESA_SD_E13set_empty_keyERKS6_
ND:__ZN8Animator12CleanupClassEv
qCf:_DecoderReplacementFallbackBuffer__ctor_m1305504326
Yqc:__Z13TransferFieldI8JSONReadLb0E27Converter_SimpleNativeClassI10RectOffsetEEvRK23StaticTransferFieldInfoR31RuntimeSerializationCommandInfoRT1_
F4c:_String_IndexOf_m570401060
CPd:_Enum_System_IConvertible_ToDateTime_m2924690746
yhd:_Dropdown_CreateBlocker_m4109366440
$Vc:_HashAlgorithm_System_IDisposable_Dispose_m2106335965
g3i:__GLOBAL__sub_I_GenericMetadata_cpp
yKi:__ZN6il2cpp6icalls8mscorlib6System8MonoType18GetFields_internalEP20Il2CppReflectionTypeiS5_
$Rb:__Z24CalculateSpotLightBoundsffRK10Matrix4x4fR15SpotLightBounds
j7d:_TailoringInfo__ctor_m2248501932
PQ:__ZN23CloudWebServicesManager23VirtualRedirectTransferER14SafeBinaryRead
JKg:__Z150RuntimeInvoker_Int32_t2071877448_RuntimeObject_Int32_t2071877448_Int32_t2071877448_RuntimeObject_Int32_t2071877448_Int32_t2071877448_Int32_t2071877448PFvvEPK10MethodInfoPvPS4_
Jyd:_FixedSizeArrayListWrapper_InsertRange_m2690348965
tBb:__Z19ShouldTransferFieldR32SerializationCommandQueueBuilder17ScriptingClassPtriR18TransferField_InfoRK20CoreScriptingClasses
vXf:_FieldInfo_get_IsStatic_m1411173225
Ese:_MemoryStream_Read_m2289595005
Bsa:__ZN26SinglePassStereoSupportExt21SetStereoMatrixCommonE21MonoOrStereoscopicEye24BuiltinShaderMatrixParamRK10Matrix4x4f
rK:__ZN5audio5mixer22UpdateAudioMixerMemoryERKNS0_18AudioMixerConstantERNS0_16AudioMixerMemoryEfPN4FMOD6SystemEf
$sc:__ZL21InitializeCachedStripPv
w_i:__ZN6il2cpp6icalls8mscorlib6System9Threading6Thread23GetCachedCurrentCultureEP12Il2CppThread
Hbh:_Selectable_get_allSelectables_m3045831006
TFa:__ZNK6Camera22GetWorldToCameraMatrixEv
U5i:__ZN6il2cpp2vm12GenericClass11IsValueTypeEP18Il2CppGenericClass
qAb:__ZN13MonoBehaviour7SetNameEPKc
e8e:_ContentInfo__ctor_m3579805263
cEi:__ZN15dense_hashtableINSt3__24pairIK10KeyWrapperIPKcEP11Il2CppClassEES5_N6il2cpp5utils11StringUtils12StringHasherIS4_EEN14dense_hash_mapIS5_S8_SE_NS5_14EqualsComparerINSB_13VmStringUtils21CaseSensitiveComparerEEENS0_9allocatorIS9_EEE9SelectKeyESJ_SL_E15set_deleted_keyERKS9_
Pah:_ScrollRect_get_verticalNormalizedPosition_m1701804869
eX:__GLOBAL__sub_I_runtime_shaders_shaderimpl_0_cpp
M7a:__ZN18AwakeFromLoadQueue5ClearEv
Ijh:_Enumerator_get_Current_m2986380627_AdjustorThunk
EQb:__ZNSt3__27__sort5IR15ReflProbeSorterPP15ReflectionProbeEEjT0_S6_S6_S6_S6_T_
j6:__ZN8Playable10DisconnectEPS_i
Fwh:_InternalEnumerator_1_get_Current_m1526874475_AdjustorThunk
ok:_glGenTransformFeedbacks
Jya:__ZN13LoadOperationD2Ev
_be:_KeyPairPersistence__ctor_m1817312194
syi:_Canvas_set_scaleFactor_m3986864146
LTd:_Array_InternalArray__ICollection_Contains_TisMark_t2724874473_m1640201705_gshared
hEb:__Z21PlayerStartFirstSceneb
nTf:_TypeBuilder_get_AssemblyQualifiedName_m2097258567
gSa:__ZNSt3__27__sort5IRPFbRKNS_4pairIN9ShaderLab16FastPropertyNameEN18UnityPropertySheet11UnityTexEnvEEES8_EPS6_EEjT0_SD_SD_SD_SD_T_
Sfa:__ZNK7ApiGLES18GetExtensionStringEv
dra:__ZN31TransformFeedbackSkinPoseBufferD0Ev
Puj:_emscripten_glVertexAttrib1f__wrapper
ngf:_SslStreamBase_get_MightNeedHandshake_m3432170694
Sph:_DefaultComparer_Equals_m1281232537_gshared
To:FUNCTION_TABLE_iiiiiiiii
end:_InputField_set_asteriskChar_m619206227
$Bf:_DES_IsSemiWeakKey_m3967392585
Nke:_Int16_System_IConvertible_ToUInt32_m883204517_AdjustorThunk
N_f:_MonoProperty_get_PropertyType_m1921201152
Sfd:_FloatTween_TweenValue_m3881535116_AdjustorThunk
Wcj:_GC_allochblk
$7a:__Z15UnloadGameScenev
szj:_glCheckFramebufferStatus__wrapper
H6a:__ZNSt3__26vectorIN30RuntimeInitializeOnLoadManager15ClassMethodInfoE13stl_allocatorIS2_L18MemLabelIdentifier13ELi16EEE7reserveEj
Egj:__ZN6il2cpp2vm6Atomic9IncrementEPVi
p4e:_BigInteger_get_Rng_m2525288368
Yzd:_CaseInsensitiveHashCodeProvider__ctor_m3775398833
vcc:__Z36Renderer_Get_Custom_PropSortingOrderP12Il2CppObject
Efi:_GUIContent__cctor_m976962423
GRi:__ZNK15dense_hashtableINSt3__24pairIK10KeyWrapperIPK10Il2CppTypeEjEES6_N6il2cpp8metadata14Il2CppTypeHashEN14dense_hash_mapIS6_jSB_NS6_14EqualsComparerINSA_26Il2CppTypeEqualityComparerEEENS0_9allocatorIS8_EEE9SelectKeyESF_SH_E13find_positionERS7_
XOa:__ZN7Texture5ResetEv
Bqb:__Z18Transfer_BlittableI24GenerateTypeTreeTransferLb0E8Vector2fEvRK29SerializationCommandArgumentsR31RuntimeSerializationCommandInfo
qqb:__Z18Transfer_BlittableI24GenerateTypeTreeTransferLb1EhEvRK29SerializationCommandArgumentsR31RuntimeSerializationCommandInfo
$9b:__ZNK16TypeTreeIterator10ByteOffsetEv
Jid:_Graphic_get_rectTransform_m2697395074
s5:__ZnwjRKSt9nothrow_t
pC:__ZN8Animator11ClearObjectEv
Bmf:_X500DistinguishedName_Decode_m3070515374
PQa:__ZN14SafeBinaryRead19TransferSTLStyleMapINSt3__23mapI39DeprecatedFastPropertyNameSerializationN18UnityPropertySheet11UnityTexEnvENS1_4lessIS3_EENS1_9allocatorINS1_4pairIKS3_S5_EEEEEEEEvRT_17TransferMetaFlags
skf:_IPv6Address_set_ScopeId_m1442934355
ezf:_ObjectManager_RaiseOnDeserializedEvent_m512850179
W9b:__Z35UnregisterSerializationCacheBuilderPFv17ScriptingClassPtrR23CachedSerializationDataRbE
JGa:__Z30GetBuiltinVectorParamArraySize24BuiltinShaderVectorParam
W6d:_CodePointIndexer__ctor_m797342079
LWa:__ZN18StreamedBinaryReadILb0EE21TransferSTLStyleArrayI13dynamic_arrayI7Hash128Lj8EEEEvRT_17TransferMetaFlags
AXa:__ZN21RendererUpdateManager11AddRendererER8Renderer
A_b:__Z13RegisterClassI15ResourceManagerEvv
ilb:__Z35Transfer_Blittable_FixedBufferFieldI14SafeBinaryReadsEvRK29SerializationCommandArgumentsR31RuntimeSerializationCommandInfo
W0a:__ZN14SafeBinaryRead21TransferSTLStyleArrayI13dynamic_arrayIfLj4EEEEvRT_17TransferMetaFlags
oaj:__ZN6il2cpp5utils11StringUtils11Utf16ToUtf8EPKDs
k6a:__ZN18StreamedBinaryReadILb0EE21TransferSTLStyleArrayINSt3__26vectorIN15ResourceManager10DependencyE13stl_allocatorIS5_L18MemLabelIdentifier52ELi16EEEEEEvRT_17TransferMetaFlags
wPc:__ZN11UnityEngine15PlatformWrapper20IsRootedOrJailbrokenEv
kHb:__ZZ23InitPlayerLoopCallbacksvEN52PreLateUpdateScriptRunBehaviourLateUpdateRegistrator7ForwardEv
bnf:_X509Certificate2_GetNameInfo_m402390219
XRb:__Z33IntersectAABBPlaneBoundsOptimizedRK4AABBPKN4math7_float4Ei
wsd:_Swapper_BeginInvoke_m2652511022
_7h:_RectOffset_t3387826427_marshal_pinvoke_back
cba:__ZN9GfxDevice19EndGeometryJobFrameEv
kqb:__ZN27Converter_SimpleNativeClassI17AnimationCurveTplIfEE17ScriptingToNativeER18ScriptingObjectPtrPS1_
Eij:__ZN6il2cpp8metadata24Il2CppGenericInstCompare7CompareERK10KeyWrapperIPK17Il2CppGenericInstES8_
MEi:__ZNK15dense_hashtableINSt3__24pairIK10KeyWrapperIPK19Il2CppGenericMethodEPK26Il2CppGenericMethodIndicesEES6_N6il2cpp8metadata23Il2CppGenericMethodHashEN14dense_hash_mapIS6_SA_SE_NS6_14EqualsComparerINSD_26Il2CppGenericMethodCompareEEENS0_9allocatorISB_EEE9SelectKeyESI_SK_E5beginEv
_id:_Graphic_get_materialForRendering_m2600868951
Ls:__ZN27AnimationLayerMixerPlayable21UpdateLayerParametersEv
hTe:_Collection_1_System_Collections_IList_Contains_m3210868188_gshared
Z$b:__ZNK17AnimationCurveTplIfE8EvaluateEfPNS0_5CacheE
oGb:__Z31ManagerContextInitializeClassesv
j5f:__ZL53SortedList_t3004938869_CustomAttributesCacheGeneratorP21CustomAttributesCache
Qvc:_UNITY_FT_List_Finalize
JLb:__Z20LightAttenuateApproxRKfS0_
Pva:__ZN9Scripting30SetCachedPtrOnScriptingWrapperE18ScriptingObjectPtrP6Object
Itb:__Z18Transfer_BlittableI19StreamedBinaryWriteILb0EELb0EdEvRK29SerializationCommandArgumentsR31RuntimeSerializationCommandInfo
a6c:_ASCIIEncoding_GetBytes_m3649277167
HKa:__ZN18BlockRangeInternal16PopLastNodeIndexEP10BlockRangeji
ROf:_Version__ctor_m2972638031
nae:_Kernel_MultiplyByDword_m155008287
q0a:__ZN4MeshD0Ev
eOg:__Z121RuntimeInvoker_Void_t1841601450_Int64_t909078037_RuntimeObject_RuntimeObject_Int64_t909078037_RuntimeObject_RuntimeObjectPFvvEPK10MethodInfoPvPS4_
NUc:__ZL42RequestRecreateEyeTexturesBeforeNextUpdatev
Uea:__ZNK6Camera20IsCurrentlyRenderingEv
Au:__ZN21AnimationClipPlayable23ProcessRootMotionNoClipEPK35AnimationPlayableEvaluationConstantPK32AnimationPlayableEvaluationInputP33AnimationPlayableEvaluationOutput
qMc:__Z36CanvasRenderer_CUSTOM_SetPopMaterialP12Il2CppObjectS0_i
oOi:_UpdatedEventHandler_Invoke_m4240581743
znc:__Z18Transfer_BlittableI9JSONWriteLb0EdEvRK29SerializationCommandArgumentsR31RuntimeSerializationCommandInfo
AIa:__ZN6Camera8TransferI19StreamedBinaryWriteILb0EEEEvRT_
a_e:_ReadOnlyCollection_1_System_Collections_IList_Insert_m3679749778_gshared
Veh:_Toggle_OnDidApplyAnimationProperties_m325835214
Wkj:_wctomb
cbc:__Z27Camera_CUSTOM_GetAllCamerasP11Il2CppArray
YDd:_Convert_InternalFromBase64String_m3682756716
Vc:___cxa_rethrow
cpc:__Z18Transfer_BlittableI8JSONReadLb1EhEvRK29SerializationCommandArgumentsR31RuntimeSerializationCommandInfo
Vuj:_glBindRenderbuffer__wrapper
nJf:_TimeSpan_Add_m3228293154
Vph:_DefaultComparer_Equals_m4098991076_gshared
RUb:__ZN13MonoBehaviour8SetClassE17ScriptingClassPtr18ScriptingObjectPtr
L7e:_RC4__cctor_m523650203
vNh:_CrossContextDelegate_Invoke_m2908136830
vib:__ZN20LocalFileSystemPosix4ReadER13FileEntryDatayyPvPy
jPb:__ZNSt3__211__sift_downIRN23ForwardShaderRenderLoop18RenderObjectSorterILb0EEEP21ForwardRenderPassDataEEvT0_S7_T_NS_15iterator_traitsIS7_E15difference_typeES7_
Hve:_UnmanagedMemoryStream_get_Position_m4093669769
GAb:__ZN13MonoBehaviour5DoGUIENS_13GUILayoutTypeEii
hTf:_DerivedType_IsDefined_m555719351
sOh:_Mark_get_IsDefined_m3332701456
yxa:__ZNK12TLSAllocatorI14StackAllocatorE8ContainsEPKv
O3a:__ZN11TimeManager8TransferI18StreamedBinaryReadILb0EEEEvRT_
hgb:__ZN15SerializeTraitsINSt3__23mapI4PPtrI6ShaderEN4core12basic_stringIcNS5_20StringStorageDefaultIcEEEENS0_4lessIS4_EENS0_9allocatorINS0_4pairIKS4_S9_EEEEEEE8TransferI24GenerateTypeTreeTransferEEvRSH_RT_
bVc:_DESTransform__cctor_m1179482644
D0a:__ZN14BlendShapeData8TransferI14SafeBinaryReadEEvRT_
NPd:_Enum_Format_m2294492821
LTa:__ZN7Texture25ReloadFromStorageIfNeededEPvb
tmc:__Z35Transfer_Blittable_FixedBufferFieldI9JSONWritehEvRK29SerializationCommandArgumentsR31RuntimeSerializationCommandInfo
pPf:_OverflowException__ctor_m2564269836
Ehh:_ShimEnumerator_get_Entry_m2332479818_gshared
JKd:_DateTime_CheckDateTimeKind_m329345155_AdjustorThunk
cGc:_Update_Max
KZi:__ZN6il2cpp6icalls8mscorlib6SystemL15ThrowNoWideningEv
f0b:__ZNK23TransformChangeDispatch24GetChangeMaskForInterestENS_12InterestTypeE
qgc:__Z45Transform_CUSTOM_INTERNAL_CALL_TransformPointP12Il2CppObjectRK8Vector3fRS1_
RSe:__ZN23InterfaceActionInvoker2Ii18Color32_t874517518E6InvokeEjP11Il2CppClassP12Il2CppObjectiS0_
PYb:__ZL10KeyHandleriPK23EmscriptenKeyboardEventPv
fRa:__ZNSt3__26__treeINS_12__value_typeI39DeprecatedFastPropertyNameSerializationfEENS_19__map_value_compareIS2_S3_NS_4lessIS2_EELb1EEENS_9allocatorIS3_EEE7destroyEPNS_11__tree_nodeIS3_PvEE
Nzc:_tt_cmap4_char_index
OJf:_TimeSpan_op_Addition_m3421801803
Rhb:__ZNK12HandlerChain8IsHiddenERK13FileEntryData
nBg:__ZL50Graphic_t2426225576_CustomAttributesCacheGeneratorP21CustomAttributesCache
Apb:__ZL26Transfer_SimpleNativeClassI17RemapPPtrTransfer10RectOffsetLb0EEvRK29SerializationCommandArgumentsR31RuntimeSerializationCommandInfo
rwc:__Z14ValidateFormatR13dynamic_arrayIN20TextRenderingPrivate16TextFormatChangeELj4EE
FJd:_DateTime_System_IConvertible_ToInt32_m2789391054_AdjustorThunk
UUg:__Z73RuntimeInvoker_Single_t2076509932_Vector3_t2243707580_Vector3_t2243707580PFvvEPK10MethodInfoPvPS4_
Xae:_ASN1Convert_FromInt32_m1541043489
Oad:_PointerInputModule_ProcessMove_m3200120346
FEd:_Convert_ToByte_m1008221737
M6e:_MD2Managed_MD2Transform_m3825201358
VCg:__ZL69Scrollbar_t3248359358_CustomAttributesCacheGenerator_m_OnValueChangedP21CustomAttributesCache
ucb:__ZNSt3__26vectorIN9ShaderLab20SerializedSubProgram13BufferBindingENS_9allocatorIS3_EEEC2ERKS6_
bhd:_Dropdown_AddOptions_m835420907
Mui:_Display_Start_m3446268861
FGa:__ZNK9ShaderLab20ShaderBlendStateDesc15ToGfxBlendStateEPK19ShaderPropertySheetS3_R13GfxBlendState
ned:_CanvasUpdateRegistry_IsRebuildingLayout_m1677873278
xy:__ZN11UnityEngine9AnimationL22GenericBindingCallbackEPvS1_i
OFc:_Compute_Point_Displacement
Qfb:__ZN9ShaderLab9IntShaderC2Ev
rLi:__ZN6il2cpp6icalls8mscorlib6SystemL9IsPrivateEPK9EventInfo
ghj:__ZN6il2cpp6icalls8mscorlib6System10Reflection4Emit11TypeBuilder20setup_internal_classEP27Il2CppReflectionTypeBuilderS7_
I6b:__Z18TransformPoints3x4RK10Matrix4x4fPK8Vector3fjPS2_ji
Tuh:_ArrayReadOnlyList_1_IndexOf_m1809425308_gshared
dNi:_il2cpp_gc_disable
Dlc:__ZN5Unity9rapidjson6WriterI16TempBufferWriterNS0_4UTF8IcEES4_13JSONAllocatorE11WriteUint64Ey
Nnf:_X509Chain_GetSubjectKeyIdentifier_m4232927227
NBd:_Hashtable_Clone_m165405752
cBi:__ZN13Il2CppHashMapIPK22Il2CppGenericParameterP11Il2CppClassN6il2cpp5utils11PointerHashIS1_EENSt3__28equal_toIS2_EENS9_9allocatorINS9_4pairIK10KeyWrapperIS2_ES4_EEEEEC2EjRKS8_RKSB_
uqc:__ZN8JSONRead21TransferSTLStyleArrayI31ArrayOfManagedObjectsTransfererEEvRT_17TransferMetaFlags
GCa:__Z15CreateDirectoryRKN4core12basic_stringIcNS_20StringStorageDefaultIcEEEE
kOa:__Z21CalculateGlobalMatrix23TransformAccessReadOnly
W3f:__ZL70InternalsVisibleToAttribute_t1037732567_CustomAttributesCacheGeneratorP21CustomAttributesCache
T3a:__ZNK13BuildSettings22GetTypeVirtualInternalEv
oqe:_MonoIO_GetCurrentDirectory_m1509324201
CFf:_UTF32Encoding_GetHashCode_m4205784236
y_b:__Z13RegisterClassI14RenderSettingsEvv
yTb:__ZNK25CameraStackRenderingState25CalculateCameraTargetTypeEv
Ffj:_GC_set_on_event
P4g:__Z80RuntimeInvoker_Boolean_t3825574718_Navigation_t1571958496_Navigation_t1571958496PFvvEPK10MethodInfoPvPS4_
fQe:_Collection_1_ConvertItem_m3563206219_gshared
LJf:_TimeSpan_Subtract_m3597791685_AdjustorThunk
Pw:__ZN7mecanim12statemachine24CreateStateMachineOutputEPKNS0_20StateMachineConstantEjRNS_6memory9AllocatorE
S5i:__ZN6il2cpp2vm12GenericClass8GetClassEP18Il2CppGenericClass
Dba:__ZNK9GfxDevice27GetActiveRenderSurfaceWidthEv
hPc:__ZN11UnityEngine15PlatformWrapper28GetCleanGraphicsFixedVersionEv
w:tempBigIntP
EPi:__ZN6il2cpp2vm4Type7GetTypeEPK10Il2CppType
Bsd:_AssemblyLoadEventHandler_Invoke_m108373765
Nad:_PointerInputModule_ShouldStartDrag_m4163638715
lla:__ZN6prcoreL17RemapGenericFloatI18TexFormatRGBAFloat17TexFormatRGBAHalfEEvPKNS_9InnerInfoE
NHb:__Z16FindCameraStacksRKNSt3__24listI4PPtrI6CameraENS_9allocatorIS3_EEEERNS_6vectorI11CameraStackNS4_ISA_EEEE
jWa:__ZN10GISettings8TransferI14SafeBinaryReadEEvRT_
qn:FUNCTION_TABLE_vifff
b0e:_ReadOnlyCollection_1_System_Collections_Generic_ICollectionU3CTU3E_Remove_m2957273994_gshared
JVb:__ZN19CustomRenderTexture12ClearGPUDataEv
D7c:_BaseInputModule_ShouldActivateModule_m2899747874
_3g:__Z86RuntimeInvoker_Int32_t2071877448_DateTimeOffset_t1362988906_DateTimeOffset_t1362988906PFvvEPK10MethodInfoPvPS4_
ePa:__ZN13RenderTexture13ApplySettingsEv
nsj:_glVertexAttrib4f__wrapper
Se:_JS_Sound_SetListenerPosition
hn:FUNCTION_TABLE_fiffi
yWf:_ModuleBuilderTokenGenerator_GetToken_m3427457873
gMc:__Z55Register_UnityEngine_CanvasGroup_get_ignoreParentGroupsv
Wbh:_Selectable_get_isPointerInside_m3162215687
KXd:_Array_FindIndex_TisRuntimeObject_m4149904176_gshared
dEe:_List_1_System_Collections_IList_Contains_m149594880_gshared
wOf:_UnauthorizedAccessException__ctor_m3480402128
kae:_BigInteger_op_Modulus_m3788401748
XNh:_ArgInfo_GetInOutArgs_m3184132151
W9a:__ZNK8Material16MarkDependenciesER27GarbageCollectorThreadState
z6h:_Random_Range_m3327624272
Cnc:__ZL17Transfer_GUIStyleI9JSONWriteLb0EEvRK29SerializationCommandArgumentsR31RuntimeSerializationCommandInfo
BMb:__Z28GetHaloVertexPositionsStereoP8Vector3fRKS_S2_f
ama:__ZN6prcoreL27StretchGenericFloatBilinearI15TexFormatRGHalfEEvPKNS_9InnerInfoE
hBe:_Enumerator_MoveNext_m598197344_AdjustorThunk
$W:__GLOBAL__sub_I_runtime_misc_0_cpp
u5c:_String_JoinUnchecked_m1880555587
LGa:__ZNK9ShaderLab7Program21GetMatchingSubProgramEPK6ShaderPKNS_4PassERK16ShaderKeywordSetjPS7_R19ShaderSnippetResult
J$d:_Array_InternalArray__Insert_TisKeyValuePair_2_t1174980068_m2464431954_gshared
Sec:__Z49Register_UnityEngine_Resources_GetBuiltinResourcev
Zzc:_tt_cmap10_char_index
Zgd:_Dropdown_Awake_m335654827
Aoh:_Dictionary_2_U3CCopyToU3Em__0_m1479035402_gshared
Fzd:_BitArray_set_Item_m3801461194
GBi:__ZN15dense_hashtableINSt3__24pairIK10KeyWrapperIPK22Il2CppGenericParameterEP11Il2CppClassEES6_N6il2cpp5utils11PointerHashIS4_EEN14dense_hash_mapIS6_S9_SE_NS6_14EqualsComparerINS0_8equal_toIS5_EEEENS0_9allocatorISA_EEE9SelectKeyESJ_SL_E3endEv
Z4c:_String_Remove_m3580114465
Xgi:_GUIUtility_EndGUIFromException_m3100752188
jP:__ZN11AudioSource24ClearExtensionPropertiesE12PropertyName
heb:__ZN9ShaderLab22SerializedBindChannels8TransferI19StreamedBinaryWriteILb0EEEEvRT_
Lnb:__ZN15SerializeTraitsI5RectTIiEE8TransferI14SafeBinaryReadEEvRS1_RT_
aRg:__Z82RuntimeInvoker_Int32_t2071877448_RuntimeObject_Int32_t2071877448_Int16_t4041245914PFvvEPK10MethodInfoPvPS4_
clf:_WebHeaderCollection_AddWithoutValidate_m1479880592
Wvc:_UNITY_FT_Stream_ReadUShort
rnd:_InputField_OnEnable_m3797157569
cdc:__Z51Register_UnityEngine_GUILayer_INTERNAL_CALL_HitTestv
OQa:__ZNSt3__26__treeINS_12__value_typeIN4core12basic_stringIcNS2_20StringStorageDefaultIcEEEES6_EENS_19__map_value_compareIS6_S7_NS_4lessIS6_EELb1EEE13stl_allocatorIS7_L18MemLabelIdentifier1ELi16EEE7destroyEPNS_11__tree_nodeIS7_PvEE
Nvi:_Nullable_1__ctor_m796575255_gshared
ubj:__ZN6il2cpp2vm8Profiler7GCEventE13Il2CppGCEvent
PJd:_DateTimeUtils_ToString_m3878360633
wYi:__ZN15dense_hashtableINSt3__24pairIK10KeyWrapperIP11Il2CppClassES4_EES5_N6il2cpp8metadata16SZArrayClassHashEN14dense_hash_mapIS5_S4_SA_NS5_14EqualsComparerINS9_19SZArrayClassCompareEEENS0_9allocatorIS7_EEE9SelectKeyESE_SG_E4findERS6_
JZi:__ZN6il2cpp6icalls8mscorlib6SystemL16ThrowInvalidCastEPK11Il2CppClassS5_
hha:__Z13IsDepthFormat14GraphicsFormat
b5a:__ZN12AspectRatios8TransferI24GenerateTypeTreeTransferEEvRT_
BVh:_Bounds_GetHashCode_m458298790
Esc:__Z12FormatBufferPciPKcz
dcd:_TouchInputModule_Process_m1373751353
RVf:_MethodBuilder_Invoke_m1874904900
SBi:__ZN6il2cpp2vm5Class13GetArrayClassEP11Il2CppClassj
nEb:__ZN19RuntimeSceneManager18LoadSceneAsyncIntoER10UnitySceneRKN4core12basic_stringIcNS2_20StringStorageDefaultIcEEEENS_11LoadingModeEb
USf:_DerivedType_InvokeMember_m4149586013
shf:_TlsStream_SetLength_m1460039587
rjc:__ZN11IMGUIModule12AddGUIScriptER8ListNodeI13MonoBehaviourE
nb:invoke_difi
V4:__ZL50StaticRegisterSceneLoadedCallback_LightmapSettingsPv
hNg:__Z119RuntimeInvoker_Void_t1841601450_RuntimeObject_RuntimeObject_RuntimeObject_RuntimeObject_Int32_t2071877448_RuntimeObjectPFvvEPK10MethodInfoPvPS4_
Im:FUNCTION_TABLE_iiffi
akd:_GridLayoutGroup_get_cellSize_m1061731753
Hga:__ZN21GLESGpuProgramApplier11ApplyVectorERKN20GpuProgramParameters14ValueParameterEPK8Vector4ft
hOc:__ZN22BaseUnityConnectClient17SaveSessionValuesEv
WSh:_Parser_IsIgnoreCase_m4155598997
ffi:_GUILayoutUtility_LayoutSingleGroup_m3024581181
iCc:_cff_size_done
SRb:__ZN29ExtractProjectionPlanesHelperILb1EE5ApplyERK10Matrix4x4fP5Plane
tIb:__ZN22RenderingCommandBuffer13GetAndCheckRTE24BuiltinRenderTextureTypeRKN9ShaderLab16FastPropertyNameEPKcPP13RenderTexture
ZVb:__ZN6Camera34UpdatePreviousViewProjectionMatrixEv
lQa:__ZN9ShaderLab11ShaderState25RemoveUnsupportedProgramsEPK6Shader
bfb:__ZL23AddGpuProgramParametersR20GpuProgramParametersRKNSt3__26vectorIN9ShaderLab20SerializedSubProgram15MatrixParameterENS1_9allocatorIS5_EEEERKNS2_INS4_15VectorParameterENS6_ISB_EEEEiP16PropertyNamesSet
Ygc:__Z44Register_UnityEngine_Object_DestroyImmediatev
x9f:__ZL62_ConstructorBuilder_t1236878896_CustomAttributesCacheGeneratorP21CustomAttributesCache
Nne:_Int64_System_IConvertible_ToInt16_m2022633688_AdjustorThunk
yze:_OrdinalComparer__ctor_m2952942058
_Qc:__ZNSt3__26__treeINS_12__value_typeIN4core12basic_stringIcNS2_20StringStorageDefaultIcEEEEN11UnityEngine7Connect19RemoteSettingsValueEEENS_19__map_value_compareIS6_SA_NS_4lessIS6_EELb1EEE13stl_allocatorISA_L18MemLabelIdentifier6ELi16EEE16__construct_nodeERKNS_4pairIKS6_S9_EE
Cbi:_Transform_INTERNAL_get_localPosition_m130325652
VP:__Z71Register_UnityEngine_AudioSource_INTERNAL_CALL_ClearExtensionPropertiesv
Rjj:__ZN6il2cpp8metadata25Il2CppGenericClassCompare7CompareEPK18Il2CppGenericClassS4_
$B:__ZNK8Animator20IsInMatchTargetStateEv
aH:__ZN13AudioListener23VirtualRedirectTransferER24GenerateTypeTreeTransfer
T5f:__ZL51TextInfo_t3620182823_CustomAttributesCacheGeneratorP21CustomAttributesCache
Yjc:__Z36Register_UnityEngine_GUI_set_changedv
ifd:_ColorTween_get_startColor_m278546349_AdjustorThunk
DDf:_Encoding_get_Unicode_m1382741113
wVh:_Behaviour_set_enabled_m602406666
iMh:_LifetimeServices_set_SponsorshipTimeout_m1403222216
Ywd:_Char_ToString_m1401375624_AdjustorThunk
sZd:_Array_InternalArray__ICollection_Add_TisTableRange_t2011406615_m147373358_gshared
YFd:_Convert_ToDateTime_m1251728572
uZd:_Array_InternalArray__ICollection_Add_TisBoolean_t3825574718_m1009318882_gshared
Y0e:_ReadOnlyCollection_1_System_Collections_IList_set_Item_m1149349508_gshared
kw:__ZN27AnimationLayerMixerPlayable18SetInputConnectionEP8Playablei
Vv:__ZN7mecanim28TransformValueArrayBlendNodeEiiiRKNS_10ValueArrayERKNS_14ValueArrayMaskERS0_RS3_RNS_16ValueArrayWeightEf
Gyf:_ObjectReader_ReadObjectContent_m3949770110
J0h:_Mesh_get_colors32_m1054093013
rDi:__ZN6il2cpp2vm5Class40GetInterfaceInvokeDataFromVTableSlowPathEPK12Il2CppObjectPK11Il2CppClassj
yLa:__ZN20TierGraphicsSettings8TransferI18StreamedBinaryReadILb0EEEEvRT_
Mdh:_Text_get_font_m3115501113
QYi:__GLOBAL__sub_I_Thread_cpp
WQa:__ZN14SafeBinaryRead8TransferINSt3__24pairIN9ShaderLab16FastPropertyNameE10ColorRGBAfEEEEvRT_PKc17TransferMetaFlags
Qzi:__ZL9rshift128PyS_
Ayf:_ObjectReader_RecordFixup_m1893348030
W4d:_LayoutGroup_SetProperty_TisRuntimeObject_m1703476175_gshared
OTf:_EnumBuilder_GetElementType_m1228393631
EWi:__ZN14dense_hash_mapI10KeyWrapperINSt3__24pairIPK12PropertyInfoP11Il2CppClassEEEj17ReflectionMapHashIS8_ENS9_14EqualsComparerINS1_8equal_toIS8_EEEENS1_9allocatorINS2_IKS9_jEEEEE13set_empty_keyERSH_
Kg:_glRenderbufferStorage
f2i:__ZNK15dense_hashtableINSt3__24pairIK10KeyWrapperINS1_IPKcS4_EEEiEES6_24NamespaceAndNamePairHashN14dense_hash_mapIS6_iS9_NS6_14EqualsComparerI26NamespaceAndNamePairEqualsEENS0_9allocatorIS8_EEE9SelectKeyESD_SF_E13find_positionERS7_
Idc:__Z45Register_UnityEngine_Input_get_touchSupportedv
lPc:__ZN11UnityEngine15PlatformWrapper28GetTextureFormatSupportFlagsEv
Oxc:_UNITY_FT_Create_Class_pshinter_module_class
B4c:_String_CompareOrdinalCaseInsensitiveUnchecked_m2002640463
qud:_Boolean_GetHashCode_m1894638460
MCc:_cf2_setError
SFf:_UTF7Encoding_InternalGetChars_m4157428055
F8a:__Z33InterpolateLightProbeCoefficientsRK17LightProbeContextRK29LightProbeSamplingCoordinatesR20SphericalHarmonicsL2
khh:_Enumerator_Reset_m3129803197_AdjustorThunk
MGb:__ZZ23InitPlayerLoopCallbacksvEN35PreUpdateSendMouseEventsRegistrator7ForwardEv
wce:_SmallXmlParser_HandleBufferedContent_m3397096753
Xea:__ZNK6Camera25GetNormalizedViewportRectEP13RenderTextureb
Xg:_glDisable
zod:_InputField_OnDeselect_m3963675647
zPa:__ZN13RenderTexture8TransferI24GenerateTypeTreeTransferEEvRT_
Jaj:__ZN6il2cpp5utils11StringUtils15StringDuplicateEPKDsj
Ppf:_BaseMachine_Scan_m122450399
Tu:__ZN17AnimationPlayable17ProcessRootMotionEP35AnimationPlayableEvaluationConstantP32AnimationPlayableEvaluationInputP33AnimationPlayableEvaluationOutput
Jxd:_ArrayList_CopyTo_m2353632788
e_h:_GameObject_get_activeSelf_m2643917226
M4:__ZNSt3__26vectorINS_4pairIyP17VertexDeclarationEENS_9allocatorIS4_EEE6assignIPS4_EENS_9enable_ifIXaasr21__is_forward_iteratorIT_EE5valuesr16is_constructibleIS4_NS_15iterator_traitsISB_E9referenceEEE5valueEvE4typeESB_SB_
fAj:b119
JHb:__ZNK8Material12GetPassCountEv
kDd:_Enumerator__cctor_m3784927209
Yzj:b110
Zzj:b111
_zj:b112
bpj:_bitshift64Ashr
aAj:b114
bAj:b115
cAj:b116
dAj:b117
zia:__ZN4crnd12crn_unpacker22decode_alpha_endpointsEv
wSb:__Z23CullDynamicObjectsUmbraPK4AABBPKN5Umbra15OcclusionBufferER9IndexList
Jx:__ZThn148_NK26AnimatorControllerPlayable41GetStateMachineBehaviourVectorDescriptionEv
Ozc:_tt_cmap4_char_next
Q$h:_Mathf_Approximately_m1944881077
QWg:__Z444RuntimeInvoker_Boolean_t3825574718_RuntimeObject_RuntimeObject_RuntimeObject_ColorU26_t3402129837_Int32_t2071877448_Single_t2076509932_Single_t2076509932_Int32_t2071877448_SByte_t454417549_SByte_t454417549_Int32_t2071877448_Int32_t2071877448_Int32_t2071877448_Int32_t2071877448_SByte_t454417549_Int32_t2071877448_Single_t2076509932_Single_t2076509932_Single_t2076509932_Single_t2076509932_SByte_t454417549_SByte_t454417549_UInt32U26_t2197289955PFvvEPK10MethodInfoPvPS4_
f2h:_GeneralNames_ToString_m800435094
bdd:_BaseMeshEffect_OnDidApplyAnimationProperties_m2484799839
h6c:_ASCIIEncoding_GetString_m3931709239
Gdi:_Vector4_Equals_m2166390052
$8h:_RectTransform_SetInsetAndSizeFromParentEdge_m2595554673
yW:__GLOBAL__sub_I_runtime_assetbundles_1_cpp
qI:__ZN4FMOD7Channel11setPositionEjj
Ph:_glBindSampler
l2e:_ReadOnlyCollection_1_System_Collections_Generic_ICollectionU3CTU3E_Clear_m964488020_gshared
Th:_glGetVertexAttribiv
D4c:_String_IndexOfAny_m2027595557
wZd:_Array_InternalArray__ICollection_Add_TisChar_t3454481338_m422084244_gshared
YIc:__ZN2UI11CanvasGroup23VirtualRedirectTransferER18StreamedBinaryReadILb0EE
Hai:_Texture__ctor_m1220114221
Hqc:__ZN8JSONRead8TransferIbEEvRT_PKc17TransferMetaFlagsb
Wlf:_X509KeyUsageExtension_Decode_m3292847033
QXg:__Z52RuntimeInvoker_RaycastResult_t21186376_RuntimeObjectPFvvEPK10MethodInfoPvPS4_
UYf:_Module_filter_by_type_name_ignore_case_m3574895736
OVa:__ZN26CustomRenderTextureManager19PreAllocateMaterialEP19CustomRenderTexture
gyf:_ObjectReader_ReadObject_m397855326
Ecj:_GC_promote_black_lists
bld:_Image_get_fillAmount_m3354146540
vrc:__Z29Transfer_Blittable_ArrayFieldI8JSONRead8Vector4fEvRT_R9ArrayInfoRK23StaticTransferFieldInfo
On:FUNCTION_TABLE_vf
mo:FUNCTION_TABLE_vd
XKf:_Type_GetMethod_m1930231379
oo:FUNCTION_TABLE_vi
fY:__ZN13RuntimeStaticI37UnityShaderCompilerExtPluginConfigureLb0EE16StaticInitializeEPv
LQc:__ZN11UnityEngine7Connect17DeviceStatusEvent20SetDeviceAspectRatioEf
M7d:_SimpleCollator_GetContraction_m1391584430
tud:_CultureInfo_get_InvariantCulture_m398972276
Vtd:_Boolean_System_IConvertible_ToInt64_m4142756949_AdjustorThunk
FE:__ZNK8Animator17HasBoundPlayablesEv
Wkc:__ZN5Unity9rapidjson13GenericReaderINS0_4UTF8IcEES3_13JSONAllocatorE10ParseFalseILj0ENS0_19GenericStringStreamIS3_EENS0_15GenericDocumentIS3_S4_S4_EEEEvRT0_RT1_
A6e:_HMAC_initializePad_m3828610671
qZc:_RSAParameters_t1462703416_marshal_pinvoke_cleanup
JLi:__ZN6il2cpp2vm7Runtime9SetConfigEPKc
zlc:__ZN5Unity9rapidjson12PrettyWriterI16TempBufferWriterNS0_4UTF8IcEES4_13JSONAllocatorE10StartArrayEv
ta:invoke_iiifiii
l$i:__ZN6il2cpp2vm9Exception11FromNameMsgEPK11Il2CppImagePKcS6_S6_
JKf:_Type_internal_from_name_m1506974323
_m:FUNCTION_TABLE_fiiifii
$D:__ZN10HumanTrait15InitializeClassEv
V6:__Z14GetTimeManagerv
WTc:__ZN19TransportJavaScript7CleanupEv
FCa:__Z12GUIDToStringRK9UnityGUIDPc
EL:__ZN11AudioSource22UnmuteActiveVideoSinksEv
Gaj:__ZN4utf88internal20is_overlong_sequenceIiEEbjT_
Ni:_glReadBuffer
tEa:__Z9SetLocalR15TransformAccessRKN4math7_float4Ey
Zyd:_SynchronizedArrayListWrapper_get_Count_m4104930530
oOb:__Z30SetupBakedOcclusionForGeometrybRK26SharedLightmapSettingsDataRK15LightmapIndicesR17ShaderPassContext
r0c:_SecurityPermission_IsSubsetOf_m1087302418
Gbc:__Z41Register_UnityEngine_Cursor_get_lockStatev
tei:_Event_Internal_GetMousePosition_m2992465246
MNb:__Z14SetupLightmapsRK8Vector4fS1_R17ShaderPassContext
cVi:__ZN14dense_hash_mapI10KeyWrapperIPK14Il2CppAssemblyEPK22Il2CppMonoAssemblyNameN6il2cpp5utils11PointerHashIS2_EENS4_14EqualsComparerINSt3__28equal_toIS3_EEEENSD_9allocatorINSD_4pairIKS4_S7_EEEEE13set_empty_keyERSJ_
Brf:_Interval_get_Empty_m3170923997
vOa:__ZL20InitializeGUIShadersv
Y$b:__Z20DestroyObjectDelayedP6Objectf
LV:__ZN20DynamicHeapAllocatorI17LowLevelAllocatorED0Ev
Ond:_InputField_OnDrag_m726194348
U8d:_PreviousInfo__ctor_m1442166472_AdjustorThunk
hLb:__ZN9DepthPassD2Ev
Qxi:_TextGenerator_get_rectExtents_m954923136
jH:__ZN11AudioFilter6GetDSPEv
Q_:__ZN19RuntimeSceneManager14CanUnloadSceneEP10UnityScene
iQg:__Z50RuntimeInvoker_Single_t2076509932_Int64_t909078037PFvvEPK10MethodInfoPvPS4_
jLb:__Z22ExtractRenderNodeQueueRK11CullResults15ExtractionFlagsR15RenderNodeQueue
A1d:_Array_InternalArray__set_Item_TisContentType_t1028629049_m703420360_gshared
pOe:_List_1_set_Item_m1431784996_gshared
qG:__ZN24AudioScriptBufferManagerC2Ev
Quc:__ZNSt3__26vectorIh13stl_allocatorIhL18MemLabelIdentifier1ELi16EEE8__appendEj
YJg:__Z95RuntimeInvoker_Void_t1841601450_RuntimeObject_Int32_t2071877448_Int32_t2071877448_RuntimeObjectPFvvEPK10MethodInfoPvPS4_
Nkc:__ZN8JSONRead32GetValueForKeyWithNameConversionEPKN5Unity9rapidjson12GenericValueINS1_4UTF8IcEE13JSONAllocatorEEPKc
Tuc:__ZN20TextRenderingPrivate8FontImpl16ResetPackingDataEv
iYd:_Array_InternalArray__IndexOf_TisLink_t865133271_m3612939760_gshared
B_h:_Input_get_mousePresent_m1100327283
umc:__Z18Transfer_BlittableI9JSONWriteLb0EfEvRK29SerializationCommandArgumentsR31RuntimeSerializationCommandInfo
Rha:__Z21GetAsyncUploadManagerv
Ej:_emscripten_glDetachShader
T6d:_SafeHandleZeroOrMinusOneIsInvalid_get_IsInvalid_m2033528032
Kwd:_Char_IsUpper_m4083577610
Fha:__ZN17GenericDynamicVBO20ReleaseChunkInternalERK21DynamicVBOChunkHandlejj
CHc:__ZL27CleanupModule_TextRenderingv
S6d:_SafeHandleZeroOrMinusOneIsInvalid__ctor_m3340306667
wlj:_fmodl
Gzf:_SerializationInfo_AddValue_m902275108
Klj:_fmodf
Gva:__ZN12CachedWriter11Align4WriteEv
nMb:__Z20DoDeferredRenderLoopR17RenderLoopContextR13dynamic_arrayI16RenderObjectDataLj4EES4_RK11CullResultsRP13RenderTextureSA_Pb
rEb:__ZN19RuntimeSceneManager11CreateSceneEv
Oci:_Vector2_op_Implicit_m385881926
_Bc:_ps_get_standard_strings
nOb:__Z27SetupBakedOcclusionForLightbRK15SharedLightDataR17ShaderPassContext
dij:__ZN6il2cpp2os5Mutex6UnlockEv
_ah:_ScrollRect_OnScroll_m3346515304
UBe:_Enumerator_System_Collections_IEnumerator_get_Current_m3461301268_gshared
unh:_Dictionary_2_CopyToCheck_m1638253305_gshared
jIb:__Z18RenderImageFiltersR10RenderLoopb
dW:__Z19free_alloc_internalPv18MemLabelIdentifier
mMc:__Z43CanvasRenderer_Get_Custom_PropMaterialCountP12Il2CppObject
yOb:__ZNSt3__227__insertion_sort_incompleteIR23CompareReflectionProbesP31RuntimeReflectionProbeBlendInfoEEbT0_S5_T_
UZe:_ReadOnlyCollection_1_System_Collections_Generic_IListU3CTU3E_set_Item_m25653560_gshared
Qrc:__ZN8JSONRead21TransferSTLStyleArrayI13dynamic_arrayI11QuaternionfLj4EEEEvRT_17TransferMetaFlags
yDg:__ZL68Selectable_t1490392188_CustomAttributesCacheGenerator_m_InteractableP21CustomAttributesCache
A8e:_CertificateSelectionCallback_Invoke_m2902629105
m4:__ZN10InputEventD2Ev
aFd:_DateTimeFormatInfo_GetAllDateTimePatternsInternal_m1587126173
gme:_NumberFormatter_Append_m3268121457
Dga:__ZN15dense_hashtableINSt3__24pairIK9TextureIDiEES2_N12TextureIdMap20TextureIDHashFunctorEN14dense_hash_mapIS2_iS6_NS0_8equal_toIS2_EE13stl_allocatorIS4_L18MemLabelIdentifier67ELi16EEE9SelectKeyES9_SC_E12resize_deltaEjj
gUc:__ZN22UnityWebRequestManagerD2Ev
$Yc:_RSA_ToXmlString_m4145056574
bPd:_Double_System_IConvertible_ToUInt64_m1318285078_AdjustorThunk
blj:_isalpha
G9g:_Selectable_FindSelectable_m2739582497
Okd:_LayoutGroup_GetAlignmentOnAxis_m1783063916
RJd:_DateTimeUtils_ZeroPad_m86470512
cMg:__Z94RuntimeInvoker_Void_t1841601450_RuntimeObject_Int32_t2071877448_RuntimeObject_SByte_t454417549PFvvEPK10MethodInfoPvPS4_
FJi:__ZN6il2cpp2vmL17IsSocketAsyncCallEP14Il2CppDelegate
xki:_U3CStartU3Ec__Iterator0_MoveNext_m42377021_gshared
eaj:__ZN6il2cpp2vm6String6NewLenEPKcj
sCb:__ZN17PersistentManager9AddStreamEv
Uk:_time
F0h:_Mesh_get_uv_m1990385212
O5h:_PlayableOutput_Equals_m2167434642_AdjustorThunk
Cjd:_Graphic_UnregisterDirtyLayoutCallback_m1724443555
BEa:__ZN14BatchAllocator6CommitE18MemLabelIdentifier
sDc:_cf2_stack_free
h9c:_ExecuteEvents_get_pointerClickHandler_m713983310
Hu:__ZN7mecanim9animation19EvaluateFloatValuesEPKNS0_18ClipMuscleConstantEPKNS_18ValueArrayConstantEPKNS0_12ClipBindingsEPKNS0_10ClipOutputEPNS0_18AnimationNodeStateEfbb
GC:__ZN8Animator31ClearInternalControllerPlayableEv
oPf:_WeakReference_Finalize_m3318354542
RDa:__ZN10GameObject8TransferI24GenerateTypeTreeTransferEEvRT_
xCe:_Enumerator_VerifyState_m3913376581_gshared
WQi:__ZN15dense_hashtableINSt3__24pairIK10KeyWrapperINS1_IPK9FieldInfoP11Il2CppClassEEEjEES9_17ReflectionMapHashIS8_EN14dense_hash_mapIS9_jSD_NS9_14EqualsComparerINS0_8equal_toIS8_EEEENS0_9allocatorISB_EEE9SelectKeyESI_SK_E4findERSA_
Pyj:_glDeleteSync__wrapper
vGd:_Decimal_op_Implicit_m623319612
hkh:_ValueCollection_System_Collections_Generic_ICollectionU3CTValueU3E_Remove_m98888100_gshared
v8c:_EventTrigger_OnPointerExit_m2119176877
_Hf:_ThreadAbortException__ctor_m1623816114
G0b:__ZN13ProduceHelperI30RuntimeInitializeOnLoadManagerLb0EE7ProduceE18MemLabelIdentifier18ObjectCreationMode
_Tb:__ZN13RenderTexture19SetAutoGenerateMipsEb
hja:__Z20GetTextureFormatInfo13TextureFormat
vMg:__Z119RuntimeInvoker_RuntimeObject_RuntimeObject_RuntimeObject_Int32_t2071877448_Int32_t2071877448_MonoIOErrorU26_t1029615899PFvvEPK10MethodInfoPvPS4_
ux:__ZN26AnimatorControllerPlayable8GetFloatEiRf
B7g:_Shadow__ctor_m924057531
jad:_PointerEventData_set_worldPosition_m192283671
zgj:__ZN6il2cpp5utils10MemoryPool6MallocEj
KF:__ZN11SoundHandle8InstanceD2Ev
v7:__ZN31CanvasBatchIntermediateRenderer13StaticDestroyEPv
h5h:_X509Store_BuildCrlsCollection_m52567568
t0:__ZNSt3__23mapIiP15MonoScriptCacheNS_4lessIiEE13stl_allocatorINS_4pairIKiS2_EEL18MemLabelIdentifier78ELi16EEEixERS7_
b6d:_Array_InternalArray__get_Item_TisUICharInfo_t3056636800_m3872982785_gshared
L0h:_Mesh_SetNormals_m2780518036
MPd:_Enum_ToString_m662345249
lVg:__Z150RuntimeInvoker_Single_t2076509932_Single_t2076509932_Single_t2076509932_SingleU26_t4173844468_Single_t2076509932_Single_t2076509932_Single_t2076509932PFvvEPK10MethodInfoPvPS4_
Dbc:__Z41Register_UnityEngine_CullingGroup_Disposev
zUa:__ZN7Cubemap23VirtualRedirectTransferER19StreamedBinaryWriteILb0EE
eBa:__ZN25MultiBlocksMemoryFileData5WriteEyyPKv
LJe:_List_1_System_Collections_IList_Add_m4271264217_gshared
_Vi:__ZN14dense_hash_mapI10KeyWrapperIPK10Il2CppTypeEjN6il2cpp8metadata14Il2CppTypeHashENS4_14EqualsComparerINS6_26Il2CppTypeEqualityComparerEEENSt3__29allocatorINSB_4pairIKS4_jEEEEE13set_empty_keyERSE_
Tma:__ZL17ProgramUniform2fvPK7ApiGLESjiihPKv
Kwj:b83
Luc:__ZN20TextRenderingPrivate8FontImpl21HasCharacterInTextureEjijfPj
xmj:_htonl
rea:__Z20GetBufferManagerGLESv
Oyb:__ZN18StreamedBinaryReadILb0EE21TransferSTLStyleArrayI31ArrayOfManagedObjectsTransfererEEvRT_17TransferMetaFlags
bGf:_UTF7Decoder_GetChars_m2790530452
Fpc:__Z18Transfer_BlittableI8JSONReadLb0EtEvRK29SerializationCommandArgumentsR31RuntimeSerializationCommandInfo
ceh:_Text_set_fontSize_m2101304336
Cxc:_pshinter_module_class_pic_free
ICg:__ZL68Navigation_t1571958496_CustomAttributesCacheGenerator_m_SelectOnLeftP21CustomAttributesCache
dy:__ZN34AnimationStateMachineMixerPlayable13EndTransitionEv
zaj:__ZNSt3__212basic_stringIDsNS_11char_traitsIDsEENS_9allocatorIDsEEE9__grow_byEjjjjjj
TH:__ZN12AudioManager21FixMasterGroupRoutingEv
__c:_SymmetricAlgorithm_set_Key_m2973350820
$Ag:__ZL58FontData_t2614388407_CustomAttributesCacheGenerator_m_FontP21CustomAttributesCache
elf:_WebHeaderCollection_IsHeaderValue_m1723393133
Vtc:__ZN20TextRenderingPrivate8FontImpl13CharacterInfo8TransferI24GenerateTypeTreeTransferEEvRT_
AKg:__Z69RuntimeInvoker_Boolean_t3825574718_Int32_t2071877448_SByte_t454417549PFvvEPK10MethodInfoPvPS4_
g7i:__ZN6il2cpp2os10ThreadImpl33UnregisterCurrentThreadForCleanupEv
nw:__ZN27AnimationLayerMixerPlayable22PrepareAnimationEventsEfR13dynamic_arrayI22AnimationClipEventInfoLj4EE
dlb:__Z18Transfer_BlittableI14SafeBinaryReadLb1E4AABBEvRK29SerializationCommandArgumentsR31RuntimeSerializationCommandInfo
p6i:__ZN6il2cpp6icalls8mscorlib6System4Enum12get_hashcodeEP12Il2CppObject
Cfj:_GC_set_no_dls
Vjj:__ZN6il2cpp8metadata26Il2CppGenericMethodCompare6EqualsEPK19Il2CppGenericMethodS4_
M5:__Z22CreateMutexLockedQueue18MemLabelIdentifier
yG:__ZN9AudioClip7WWWOpenEPKciPjPPvS4_
Wkb:__Z18Transfer_BlittableI14SafeBinaryReadLb0E8Vector2fEvRK29SerializationCommandArgumentsR31RuntimeSerializationCommandInfo
w1d:_Array_InternalArray__set_Item_TisPlayableBinding_t2498078091_m2071396616_gshared
Due:_SynchronizedReader_Peek_m282642073
$bb:__ZN15SerializeTraitsIN9ShaderLab20SerializedSubProgram16TextureParameterEE8TransferI14SafeBinaryReadEEvRS2_RT_
Wud:_Byte_System_IConvertible_ToInt16_m1575115635_AdjustorThunk
_ci:_Vector3_set_Item_m2026854946_AdjustorThunk
LMh:_Context_get_HasGlobalDynamicSinks_m3205328884
j8d:_SimpleCollator_CompareQuick_m619038530
Pgf:_SslStreamBase_EndRead_m1072850679
ed:_SDL_GetTicks
dge:_X509CertificateEnumerator_System_Collections_IEnumerator_get_Current_m1643583406
aoa:__ZN18GfxFramebufferGLES20CleanupFBOMapForRBIDERKj
PSi:__ZN15dense_hashtableINSt3__24pairIK10KeyWrapperINS1_IPK11Il2CppImageP11Il2CppClassEEEjEES9_17ReflectionMapHashIS8_EN14dense_hash_mapIS9_jSD_NS9_14EqualsComparerINS0_8equal_toIS8_EEEENS0_9allocatorISB_EEE9SelectKeyESI_SK_E6insertERKSB_
bSb:__Z21CreateShadowCullerJobP30CreateUmbraShadowCullerJobData
Lma:__ZL18ProgramUniform2uivPK7ApiGLESjiihPKv
iqi:_AudioConfigurationChangeHandler_BeginInvoke_m1585211075
$Ob:__Z33GenerateShadowCasterPartsSortDataRK16ShadowCasterDatajRK15RenderNodeQueueRKNSt3__26vectorI20ShadowCasterPartData13stl_allocatorIS7_L18MemLabelIdentifier2ELi16EEEERK10Matrix4x4fRjP20ShadowCasterSortData
q_h:_GUILayer_INTERNAL_CALL_HitTest_m381183969
Kii:_UnityAction_2_Invoke_m319876726_gshared
_nb:__Z29Transfer_Blittable_ArrayFieldI14SafeBinaryRead9BoundsIntEvRT_R9ArrayInfoRK23StaticTransferFieldInfo
kph:_Dictionary_2_ToTKey_m4209561517_gshared
GCc:_cf2_computeDarkening
_cj:_GC_expand_hp_inner
O3i:__ZNK15dense_hashtableI10KeyWrapperIP18Il2CppGenericClassES3_N6il2cpp8metadata22Il2CppGenericClassHashEN14dense_hash_setIS3_S6_NS3_14EqualsComparerINS5_25Il2CppGenericClassCompareEEENSt3__29allocatorIS3_EEE8IdentityESA_SD_E12test_deletedEj
ycc:__Z25Screen_Get_Custom_PropDpiv
ckd:_GridLayoutGroup_get_spacing_m1909275195
vaj:__ZN4utf812find_invalidIPKcEET_S3_S3_
tpf:_X509ExtensionCollection_System_Collections_ICollection_CopyTo_m3421329346
scj:_GC_err_printf
zUf:_FieldBuilder_SetValue_m3109503557
Nid:_Graphic_OnBeforeTransformParentChanged_m1866292273
knf:_X509Certificate2_Verify_m1574874641
NS:__ZN11UnityEngine15CloudWebService20WebRequestRestClient7PrepareEv
Zzg:__ZL58PhysicsRaycaster_t249603239_CustomAttributesCacheGeneratorP21CustomAttributesCache
zuc:__ZN20TextRenderingPrivate19NativeTextGenerator23FixLineHorizontalOffsetEiii
cDd:_SortedList_GetEnumerator_m1318483481
efi:_GUILayoutUtility_LayoutFreeGroup_m2224160855
nz:__ZN7mecanim9animation19DestroyAnimationSetEPNS0_12AnimationSetERNS_6memory9AllocatorE
ysj:_emscripten_glDepthRange__wrapper
u1:__ZN14SerializedFile7ReleaseEv
Jxi:_TextGenerator__ctor_m1469954680
jjb:__ZN16MemoryFileSystem4OpenER13FileEntryData14FilePermission16FileAutoBehavior
i7:__ZN13RuntimeStaticI13RendererSceneLb0EE13StaticDestroyEPv
hrb:__Z18Transfer_BlittableI24GenerateTypeTreeTransferLb1E12PropertyNameEvRK29SerializationCommandArgumentsR31RuntimeSerializationCommandInfo
$3a:__ZN14SafeBinaryRead21TransferSTLStyleArrayI10vector_mapIPKN5Unity4TypeE7Hash128NSt3__24lessIS5_EENS7_9allocatorINS7_4pairIS5_S6_EEEEEEEvRT_17TransferMetaFlags
xG:__ZN9AudioClip18GetQueuedAudioDataEPPvj
qHc:__ZN20TextRenderingPrivate21TextMeshGeneratorImpl14GarbageCollectEv
l6b:__ZNK9Texture2D17CheckHasPixelDataEv
Wsb:__Z18Transfer_BlittableI19StreamedBinaryWriteILb0EELb0E9BoundsIntEvRK29SerializationCommandArgumentsR31RuntimeSerializationCommandInfo
SKb:__Z18SetShadowsKeywordsR17ShaderPassContext9LightType10ShadowType16ShadowProjectionbb
DWi:__ZN14dense_hash_mapI10KeyWrapperINSt3__24pairIPK12PropertyInfoP11Il2CppClassEEEj17ReflectionMapHashIS8_ENS9_14EqualsComparerINS1_8equal_toIS8_EEEENS1_9allocatorINS2_IKS9_jEEEEEC2EjRKSB_RKSF_
L2b:__ZN17CollisionMeshDataC2Ev
HOh:_Regex_get_RightToLeft_m529734879
Bah:_ScrollRect_SetDirty_m93243192
aWa:__ZN16LightmapSettings23VirtualRedirectTransferER19StreamedBinaryWriteILb0EE
bHb:__ZZ23InitPlayerLoopCallbacksvEN47PostLateUpdateMemoryFrameMaintenanceRegistrator7ForwardEv
ro:FUNCTION_TABLE_viiififii
Ldj:_GC_push_next_marked
S8a:__ZN18IDCollectorFunctor18GenerateInstanceIDEi17TransferMetaFlags
rme:_NumberFormatter_ToDecHex_m1474793296
aYg:__Z74RuntimeInvoker_Int32_t2071877448_RaycastHit_t87180320_RaycastHit_t87180320PFvvEPK10MethodInfoPvPS4_
fxa:__ZN14StackAllocatorD0Ev
mZi:__ZN6il2cpp2vm6Thread8SetStateEP12Il2CppThreadNS0_11ThreadStateE
wze:_OperatingSystem_Clone_m1943707477
mid:_FontData_set_richText_m29558601
pIf:_Scheduler_Change_m4063588742
y2d:_Array_Resize_TisVector2_t2243707579_m1117258774_gshared
S2:__ZNSt3__27__sort4IRNS_6__lessI14ObjectLoadDataS2_EEPS2_EEjT0_S6_S6_S6_T_
yJb:__ZNK25CameraStackRenderingState16GetCurrentCameraEv
I8b:__Z22PlayableValidityChecksRK9HPlayableb
B5a:__ZN15ResourceManagerD2Ev
tIe:_List_1_Insert_m2532850849_gshared
sbc:__Z41Register_UnityEngine_Camera_GetAllCamerasv
Z6g:_MaskableGraphic_OnCanvasHierarchyChanged_m2012659245
tia:__ZN4crnd12crn_unpacker10unpack_dxnEPPhjjjjjj
vRc:__ZN28PerformanceReportingSettings8TransferI14SafeBinaryReadEEvRT_
QGd:_Double_Parse_m2344589511
qPg:__Z78RuntimeInvoker_Boolean_t3825574718_IntPtr_t_Int32_t2071877448_SByte_t454417549PFvvEPK10MethodInfoPvPS4_
Npc:__Z18Transfer_BlittableI8JSONReadLb1E5RectTIiEEvRK29SerializationCommandArgumentsR31RuntimeSerializationCommandInfo
k_i:__ZN6il2cpp2vm22EmbeddedResourceRecordC2ERKS1_
uUa:__ZN9Texture2D13AwakeFromLoadE17AwakeFromLoadMode
C7d:_MSCompatUnicodeTableUtil__cctor_m1479836795
USh:_PositionAssertion__ctor_m3703837499
Bpd:_LayoutGroup_get_minWidth_m4111745491
eue:_StreamWriter_Initialize_m1707678624
J5i:__ZN6il2cpp2vm3RCW14QueryInterfaceILb0EEEP14Il2CppIUnknownP15Il2CppComObjectRK10Il2CppGuid
uah:_ScrollRect_set_verticalScrollbar_m2903688658
Pka:__ZN6prcoreL17RemapGenericFloatI15TexFormatRFloat18TexFormatARGBFloatEEvPKNS_9InnerInfoE
P9f:__ZL50_Thread_t1894135853_CustomAttributesCacheGeneratorP21CustomAttributesCache
U$h:_Mathf__cctor_m2286160987
yzh:_InternalEnumerator_1_get_Current_m1047712960_gshared
uSc:__ZN11UnityEngine15PlatformWrapper20GetPlayerPrefsUInt64ERKN4core12basic_stringIcNS1_20StringStorageDefaultIcEEEEy
BOb:__ZN20ReflectionProbeCacheC2ER13BatchRendererR15RenderLoopStats
Y7:__ZN18AssetBundleManagerC2Ev
hib:__ZNK12HandlerChain6ExistsERK13FileEntryData
Xkg:__ZL61ExtensionAttribute_t1840441203_CustomAttributesCacheGeneratorP21CustomAttributesCache
mHd:_Convert_ToInt32_m2734833291
qPb:__Z30FindDirectAttenuationFromProbeP18ForwardLightsBlockbiRK10RenderNodeRK23FindForwardLightsParamsf
e3a:__ZN12InputManager23VirtualRedirectTransferER24GenerateTypeTreeTransfer
mhb:__ZN9Transform23VirtualRedirectTransferER24GenerateTypeTreeTransfer
rfb:__ZNSt3__26vectorIN9ShaderLab20SerializedSubProgram12UAVParameterENS_9allocatorIS3_EEE21__push_back_slow_pathIKS3_EEvRT_
pLh:_CrossAppDomainChannel_RegisterCrossAppDomainChannel_m43456045
cpf:_X509ChainElement_Count_m228862214
ZJf:_TimeZone_IsDaylightSavingTime_m1840774423
hFc:_UNITY_tt_size_ready_bytecode
cZh:_InvokableCallList_ClearPersistent_m2011323876
ltc:__ZN13TextRendering4FontD2Ev
yGg:__Z47RuntimeInvoker_Single_t2076509932_RuntimeObjectPFvvEPK10MethodInfoPvPS4_
dwc:_UNITY_FT_Stream_Open
jsb:__Z29Transfer_Blittable_ArrayFieldI24GenerateTypeTreeTransfer9BoundsIntEvRT_R9ArrayInfoRK23StaticTransferFieldInfo
JBa:__ZN10MemoryFile4ReadEyyPvPy
kgb:__ZN8keywords18KeywordSetToStringERK16ShaderKeywordSetRN4core12basic_stringIcNS3_20StringStorageDefaultIcEEEE
kaa:__ZN13GfxDeviceGLES26UpdateViewProjectionMatrixEv
UVh:_Bounds_op_Inequality_m1440807554
ZE:__ZN4FMOD3DSP12setParameterEif
PCb:__ZN13MemoryManager16StaticInitializeEv
v5f:__ZL53StackFrame_t2050294881_CustomAttributesCacheGeneratorP21CustomAttributesCache
jf:___cxa_free_exception
m1e:_ReadOnlyCollection_1_System_Collections_ICollection_CopyTo_m4126742951_gshared
_I:__ZN4FMOD22FakeModChannelCallbackEPv
pf:_emscripten_glValidateProgram
RLa:__ZN4Mesh10CreateMeshEv
XTi:__ZN6il2cpp2gc19AppendOnlyGCHashMapINSt3__24pairIPK9EventInfoP11Il2CppClassEEP21Il2CppReflectionEvent17ReflectionMapHashIS9_ENS2_8equal_toIS9_EEE3AddERKS9_SB_
QF:__ZN4FMOD7SystemI11createSoundEPKcjP22FMOD_CREATESOUNDEXINFOPPNS_5SoundE
txf:_ArrayFixupRecord_FixupImpl_m2377725358
T2h:_PKCS12_get_Certificates_m2320062949
bDc:_cf2_stack_clear
DOd:_Double_System_IConvertible_ToBoolean_m4251806534_AdjustorThunk
Ihh:_ShimEnumerator_Reset_m2247049027_gshared
X$i:__ZN6il2cpp6icalls8mscorlib6System4Type27get_IsGenericTypeDefinitionEP20Il2CppReflectionType
$Tb:__ZN7Texture13SetAnisoLevelEi
$Q:__ZNSt3__26__treeINS_12__value_typeIN4core12basic_stringIcNS2_20StringStorageDefaultIcEEEEjEENS_19__map_value_compareIS6_S7_NS_4lessIS6_EELb1EEE13stl_allocatorIS7_L18MemLabelIdentifier88ELi16EEE7destroyEPNS_11__tree_nodeIS7_PvEE
vnf:_X509Chain_Process_m2508784250
iNe:_List_1_RemoveAt_m2929488689_gshared
TGc:_raccess_guess_vfat
tNc:__Z44Canvas_CUSTOM_GetETC1SupportedCanvasMaterialv
SKa:__ZN11HaloManager10UpdateHaloEiR9Transform11ColorRGBA32fjP6Object
FY:__ZN33InstancedMeshIntermediateRenderer13StaticDestroyEPv
$ke:_Int16_Parse_m3012618547
P0i:__ZN14dense_hash_mapI10KeyWrapperIP14Il2CppIUnknownEjN6il2cpp5utils11PointerHashIS1_EENS3_14EqualsComparerINSt3__28equal_toIS2_EEEENS9_9allocatorINS9_4pairIKS3_jEEEEE13set_empty_keyERSF_
RMg:__Z50RuntimeInvoker_Void_t1841601450_OpCode_t2247480392PFvvEPK10MethodInfoPvPS4_
LJa:__Z21DestroyShadowMapCacheP14ShadowMapCache
Ow:__ZN7mecanim9animation25CreateControllerWorkspaceEPKNS0_18ControllerConstantERNS_6memory9AllocatorE
aBe:_Enumerator_VerifyState_m739025304_gshared
tgd:_Graphic_RegisterDirtyVerticesCallback_m4169445219
bWi:__ZN15dense_hashtableINSt3__24pairIK10KeyWrapperIPK10Il2CppTypeEjEES6_N6il2cpp8metadata14Il2CppTypeHashEN14dense_hash_mapIS6_jSB_NS6_14EqualsComparerINSA_26Il2CppTypeEqualityComparerEEENS0_9allocatorIS8_EEE9SelectKeyESF_SH_E14squash_deletedEv
l0i:__ZN6il2cpp2vm13LivenessState5ResetEv
YZg:__Z138RuntimeInvoker_Void_t1841601450_RuntimeObject_Color32_t874517518_Int32_t2071877448_Int32_t2071877448_Single_t2076509932_Single_t2076509932PFvvEPK10MethodInfoPvPS4_
Xlc:__ZN9JSONWrite8TransferI11KeyframeTplIfEEEvRT_PKc17TransferMetaFlags
Jdh:_Text_get_cachedTextGenerator_m224335893
u1i:__ZN6il2cpp2vm3RCW23GetOrCreateFromIUnknownEP14Il2CppIUnknownP11Il2CppClass
GFb:__ZN24BuiltinShaderParamValuesC2Ev
kmc:__ZL41CreateJSONTransferFunctionScriptingTraitsv
ire:_FileStream_get_CanWrite_m775322953
QAb:__Z23GetLateBehaviourManagerv
d9c:_ExecuteEvents_Execute_m2863348178
o1:__ZN10MemoryPool10DeallocateEPv
ric:__ZN8GUIState8SetEventERK10InputEvent
Vhe:_NumberFormatInfo__ctor_m2752806684
$gf:_SslStreamBase_get_CanRead_m3061866682
Vna:__ZN14GfxDeviceStats10ResetFrameEv
EPh:_PatternCompiler_EmitFastRepeat_m1175707353
o5d:_Array_InternalArray__get_Item_TisKeyValuePair_2_t3716250094_m3120861630_gshared
Fxc:_cff_driver_class_pic_free
sMf:_UInt32_TryParse_m3987111861
Gqj:dynCall_vif
Hqj:dynCall_vid
cHe:_List_1_System_Collections_IList_get_Item_m3989815218_gshared
Iqj:dynCall_vii
Dyb:__Z18Transfer_BlittableI18StreamedBinaryReadILb0EELb0EdEvRK29SerializationCommandArgumentsR31RuntimeSerializationCommandInfo
VOh:_Enumerator_System_Collections_IEnumerator_MoveNext_m3313126804
WKb:__ZNK17InstancedPropInfo14IsInstanceableERK19ShaderPropertySheet
Eua:__ZN5Unity9Component16CheckConsistencyEv
Qcd:_LayoutRebuilder_ValidController_m2595049322
Dna:__ZN7ApiGLES11CheckShaderERjb
AHa:__ZN19ShaderPropertySheet37CreateTextureAuxPropertyUninitializedEN9ShaderLab16FastPropertyNameES1_PKc
ytb:__ZL26Transfer_SimpleNativeClassI19StreamedBinaryWriteILb0EE10RectOffsetLb1EEvRK29SerializationCommandArgumentsR31RuntimeSerializationCommandInfo
n5d:_Array_InternalArray__get_Item_TisKeyValuePair_2_t1174980068_m964958642_gshared
CQc:__ZN11UnityEngine7Connect17DeviceStatusEventD2Ev
BRi:__ZN15dense_hashtableINSt3__24pairIK10KeyWrapperIPK10Il2CppTypeEjEES6_N6il2cpp8metadata14Il2CppTypeHashEN14dense_hash_mapIS6_jSB_NS6_14EqualsComparerINSA_26Il2CppTypeEqualityComparerEEENS0_9allocatorIS8_EEE9SelectKeyESF_SH_E3endEv
sPb:__Z28GetNonInterpolatedLightProbeRK17LightProbeContextjR20SphericalHarmonicsL2
HZd:_Array_InternalArray__ICollection_Add_TisDateTime_t693205669_m3559987213_gshared
bda:__ZN13GfxDeviceGLES17SetGpuProgramNameEP10GpuProgramPKc
_S:__ZNK11UnityEngine15CloudWebService25WebRequestDownloadHandler11GetProgressEv
Vyi:_CanvasGroup_IsRaycastLocationValid_m2290612432
MIi:__ZN6il2cpp2vm13MetadataCache28GetMethodDefinitionFromIndexEi
x8i:__ZN6il2cpp2os20FileErrnoToErrorCodeEi
RQa:__ZN14SafeBinaryRead19TransferSTLStyleMapINSt3__23mapI39DeprecatedFastPropertyNameSerialization10ColorRGBAfNS1_4lessIS3_EENS1_9allocatorINS1_4pairIKS3_S4_EEEEEEEEvRT_17TransferMetaFlags
rZf:_MonoEventInfo_GetEventInfo_m2331957186
aXh:_Component_get_transform_m3374354972
Zg:_atexit
Rzd:_BitArrayEnumerator_Reset_m3218489242
hvd:_Byte_System_IConvertible_ToUInt16_m2275325191
t8h:_RectTransform_INTERNAL_get_anchorMin_m3722367822
EUi:__ZN6il2cpp2vmL31GetObjectForMissingDefaultValueEj
yOc:__ZN11UnityEngine15PlatformWrapper30GetVRPlayAreaBoundaryDimensionEv
rGi:__ZNK15dense_hashtableINSt3__24pairIK10KeyWrapperIN6il2cpp5utils13dynamic_arrayIPK10Il2CppTypeLj4EEEEPFvvEEESA_NS3_8metadata19Il2CppSignatureHashEN14dense_hash_mapISA_SD_SG_NSA_14EqualsComparerINSF_22Il2CppSignatureCompareEEENS0_9allocatorISE_EEE9SelectKeyESK_SM_E10test_emptyEj
Kcb:__ZN9ShaderLab14SerializedPassC2ERKS0_
nxh:_InternalEnumerator_1_System_Collections_IEnumerator_get_Current_m3088751576_AdjustorThunk
Eba:__ZNK9GfxDevice28GetActiveRenderSurfaceHeightEv
l:STACKTOP
HEc:_cff_get_name_index
ewe:_Math_Cos_m43596019
rWa:__ZN21EnlightenSceneMapping16BuildRemapTablesEv
r5b:__ZN17TransformInternal27UpdateDeepChildCountUpwardsER18TransformHierarchyii
XDh:_InternalEnumerator_1_System_Collections_IEnumerator_get_Current_m1533037706_AdjustorThunk
moj:__ZNK10__cxxabiv117__class_type_info16search_above_dstEPNS_19__dynamic_cast_infoEPKvS4_ib
A:tempBigIntD
o3c:_Single_Equals_m3359827399_AdjustorThunk
A8c:_EventTrigger_OnPointerClick_m413999043
z:tempBigIntI
H5e:_PrimalityTests_RabinMillerTest_m2029846965
y:tempBigIntR
x:tempBigIntS
pai:_Sprite_INTERNAL_get_border_m3953160722
nn:FUNCTION_TABLE_viffi
Cvc:_open_face_PS_from_sfnt_stream
Vwf:_ServerIdentity_CreateObjRef_m1056204803
W2:__ZN6Object18RegisterInstanceIDEPS_
Oqb:__Z18Transfer_BlittableI24GenerateTypeTreeTransferLb1EsEvRK29SerializationCommandArgumentsR31RuntimeSerializationCommandInfo
W4i:__ZN15dense_hashtableINSt3__24pairIK10KeyWrapperIP12Il2CppObjectEN6il2cpp2gc9CachedCCWEEES5_NS7_5utils11PointerHashIS3_EEN14dense_hash_mapIS5_S9_SD_NS5_14EqualsComparerINS0_8equal_toIS4_EEEENS0_9allocatorISA_EEE9SelectKeyESI_SK_E11set_deletedER30dense_hashtable_const_iteratorISA_S5_SD_SM_SI_SK_E
uaa:__ZNK9GfxDevice18GetWorldViewMatrixEv
nHe:_List_1_Contains_m3819542652_gshared
Iaf:_TlsServerKeyExchange__ctor_m247733406
A_e:_ReadOnlyCollection_1_System_Collections_IList_Add_m3065652010_gshared
sbj:__ZN6il2cpp6icalls8mscorlib6System7Convert17Base64ToByteArrayEPDsib
eki:_IndexedSet_1_Clear_m2776064367_gshared
M4g:__Z82RuntimeInvoker_Boolean_t3825574718_RaycastResult_t21186376_RaycastResult_t21186376PFvvEPK10MethodInfoPvPS4_
YFi:__ZNSt3__218__insertion_sort_3IRN6il2cpp5utils11collections13ArrayValueMapIPK10Il2CppType17Il2CppInteropData26InteropDataToTypeConverterNS1_8metadata14Il2CppTypeLessENSA_26Il2CppTypeEqualityComparerEE12SortComparerEPS8_EEvT0_SH_T_
yaa:__ZNK9GfxDevice25GetDeviceProjectionMatrixEv
Ljf:_HttpWebRequest__ctor_m1248252412
ma:invoke_iidiii
Uqb:__Z18Transfer_BlittableI24GenerateTypeTreeTransferLb1EtEvRK29SerializationCommandArgumentsR31RuntimeSerializationCommandInfo
zPf:_RankException__ctor_m2119191472
bP:__ZN12AudioManager33GetCurrentAmbisonicDefinitionNameE31UnityAudioEffectDefinitionFlags
M7b:__ZN10systeminfo24GetRuntimePlatformStringEv
Koc:__ZN9JSONWrite8TransferI13dynamic_arrayI4AABBLj4EEEEvRT_PKc17TransferMetaFlags
SMg:__Z64RuntimeInvoker_Void_t1841601450_OpCode_t2247480392_RuntimeObjectPFvvEPK10MethodInfoPvPS4_
T7h:_Rect_GetHashCode_m2708838453
ywa:__ZN10SpookyHash5ShortEPKvjPyS2_
dqi:_AudioSettings_InvokeOnAudioManagerUpdate_m667489537
Zkf:_SPKey_Equals_m1112627532
vte:_Stream_Close_m1499612649
WNh:_ArgInfo__ctor_m3787931268
y4h:_X509Chain_Build_m175470596
yWh:_Camera_INTERNAL_CALL_RaycastTry2D_m268676834
CHa:__ZN9ShaderLab6TexEnvC2ERKNS_25SerializedTexturePropertyE
qEa:__ZN9Transform32SetLocalScaleWithoutNotificationERKN4math7_float3Ey
ebf:_TlsServerCertificate__ctor_m3697944709
pJi:__ZN6il2cpp2vm19SocketPollingThread14DequeueRequestEv
n8i:__ZL10RevealLinkPv
m1d:_Array_InternalArray__set_Item_TisSingle_t2076509932_m4273663642_gshared
Ci:___cxa_end_catch
aWf:_MethodBuilder_MakeGenericMethod_m303913412
pQf:_AssemblyName_InternalGetPublicKeyToken_m3706025887
Pqj:dynCall_viffffii
N8c:_ExecuteEvents_Execute_m4235029535
_Wh:_Color32_ToString_m685380321_AdjustorThunk
BNc:__Z43Register_UnityEngine_Canvas_set_scaleFactorv
UGc:_raccess_guess_linux_cap
wP:__Z36AudioSource_Get_Custom_PropIsPlayingP12Il2CppObject
Qef:_ReceiveRecordAsyncResult_get_AsyncWaitHandle_m1602093076
KZg:__Z113RuntimeInvoker_Boolean_t3825574718_Ray_t2469606224_RaycastHitU26_t1969197280_Single_t2076509932_Int32_t2071877448PFvvEPK10MethodInfoPvPS4_
Pyb:__Z19TransferField_ArrayI18StreamedBinaryReadILb0EE27Converter_UnityEngineObjectEvRK23StaticTransferFieldInfoR31RuntimeSerializationCommandInfoRT0_
lRg:__Z221RuntimeInvoker_Void_t1841601450_Int32_t2071877448_Int16_t4041245914_Int16_t4041245914_SByte_t454417549_SByte_t454417549_SByte_t454417549_SByte_t454417549_SByte_t454417549_SByte_t454417549_SByte_t454417549_SByte_t454417549PFvvEPK10MethodInfoPvPS4_
slc:__ZNK5Unity9rapidjson12GenericValueINS0_4UTF8IcEE13JSONAllocatorE6AcceptINS0_12PrettyWriterI16TempBufferWriterS3_S3_S4_EEEEbRT_
yZ:__Z33InitializeBuiltinShaderParamNamesv
dva:__ZNK16TypeTreeIterator4TypeEv
idi:_Vector3_get_sqrMagnitude_m1445517847
UNh:_LeaseManager__ctor_m2166901364
aGb:__ZN10FileSystem25MountDataFolderFileSystemERKN4core12basic_stringIcNS0_20StringStorageDefaultIcEEEES6_
wDg:__ZL67Selectable_t1490392188_CustomAttributesCacheGenerator_m_SpriteStateP21CustomAttributesCache
kj:_glGetUniformLocation
Mba:__ZN13GfxDeviceGLES32CreateColorRenderSurfacePlatformEP17RenderSurfaceBase19RenderTextureFormat
eG:__ZN12AudioManager24CreateFMODSoundFromMovieEP9AudioClip
zai:_StackTraceUtility_ExtractStackTrace_m2375126700
LHi:__ZN6il2cpp2vm13MetadataCache24GetGenericInstanceMethodEPK10MethodInfoPK20Il2CppGenericContext
_$a:__ZNK9Texture3D12GetDimensionEv
E7d:_SimpleCollator_SetCJKTable_m1356471502
bne:_Int32_System_IConvertible_ToUInt64_m2888588559_AdjustorThunk
k2:__Z24ConvertSeparatorsToUnityPc
s3a:__ZNSt3__213__vector_baseI9InputAxisNS_9allocatorIS1_EEED2Ev
WYi:__ZN6il2cpp2vm6Thread20FreeThreadStaticDataEP12Il2CppThread
iGg:__Z28RuntimeInvoker_RuntimeObjectPFvvEPK10MethodInfoPvPS4_
PQd:_Exception_get_ClassName_m2189012117
Vpe:_IOException__ctor_m613517077
kKh:_MarshalDirectiveException__ctor_m3894820706
qDc:_cf2_glyphpath_finalize
uDd:_Stack__ctor_m521896492
PJb:__Z20LookRotationToMatrixRK8Vector3fS1_P10Matrix3x3f
drj:dynCall_viififi
yzc:_UNITY_FT_Stream_Free
tKf:_Type_GetTypeFromHandle_m432505302
JYi:__ZN15dense_hashtableINSt3__24pairIK10KeyWrapperINS1_IP11Il2CppClassjEEES4_EES6_N6il2cpp8metadata14ArrayClassHashEN14dense_hash_mapIS6_S4_SB_NS6_14EqualsComparerINSA_17ArrayClassCompareEEENS0_9allocatorIS8_EEE9SelectKeyESF_SH_E12maybe_shrinkEv
Eje:_GuidParser_ParseHex_m3163482281
XJh:_GCHandle_FreeHandle_m2466807271
Qid:_GraphicRegistry_get_instance_m2112667631
hR:__ZN11UnityEngine15CloudWebService14DataDispatcher25OnDataBlockConsumedStaticEPv
S8c:_ExecuteEvents_Execute_m2476343313
I9f:__ZL54_MethodInfo_t3642518830_CustomAttributesCacheGeneratorP21CustomAttributesCache
Zdd:_CanvasUpdateRegistry_CleanInvalidItems_m1402635291
bxb:__Z29Transfer_Blittable_ArrayFieldI18StreamedBinaryReadILb1EE11QuaternionfEvRT_R9ArrayInfoRK23StaticTransferFieldInfo
_Zd:_Array_InternalArray__ICollection_Add_TisSByte_t454417549_m46595441_gshared
l9c:_ExecuteEvents_get_endDragHandler_m56074740
aod:_InputField_IsValidChar_m3929866302
Abb:__Z14resize_trimmedINSt3__26vectorIN9ShaderLab20SerializedSubProgram16SamplerParameterENS0_9allocatorIS4_EEEEEvRT_j
lxd:_ArrayList__cctor_m2090802806
Wnj:__ZNSt3__212basic_stringIcNS_11char_traitsIcEENS_9allocatorIcEEE6insertEjPKcj
mmc:__Z44InitializeTransferFunctionScriptingTraitsForI8JSONReadEvR31TransferFunctionScriptingTraits
YEb:__ZNSt3__27__sort4IRNS_4lessIN22BuiltinResourceManager8ResourceEEEPS3_EEjT0_S7_S7_S7_T_
W8c:_ExecuteEvents_Execute_m171612015
ria:__ZN4crnd12crn_unpacker11unpack_dxt5EPPhjjjjjj
bNf:_UInt32_System_IConvertible_ToUInt64_m4083788326_AdjustorThunk
_Fc:_UNITY_tt_face_get_location
dVc:_DESTransform_Permutation_m4174035780
bqe:_Path_IsDsc_m1314465747
dre:_MonoIO_Seek_m3461199288
PUb:__ZN10GameObject34AddFirstTransformComponentInternalEP9Transform
Fbc:__Z31Cursor_Get_Custom_PropLockStatev
NX:__ZNSt3__26__treeINS_12__value_typeINS_4pairIPcS3_EENS_3setIS3_15compare_tstringIPKcENS_9allocatorIS3_EEEEEENS_19__map_value_compareIS4_SD_20smaller_tstring_pairIS8_ELb1EEENSA_ISD_EEE7destroyEPNS_11__tree_nodeISD_PvEE
qM:__ZN12AudioManager29GetCurrentAmbisonicDefinitionE31UnityAudioEffectDefinitionFlags
KBi:__ZN15dense_hashtableINSt3__24pairIK10KeyWrapperIPK22Il2CppGenericParameterEP11Il2CppClassEES6_N6il2cpp5utils11PointerHashIS4_EEN14dense_hash_mapIS6_S9_SE_NS6_14EqualsComparerINS0_8equal_toIS5_EEEENS0_9allocatorISA_EEE9SelectKeyESJ_SL_E15insert_noresizeERKSA_
ecc:__Z52Register_UnityEngine_GameObject_GetComponentInParentv
k4a:__ZN15SerializeTraitsINSt3__24pairIPKN5Unity4TypeE7Hash128EEE8TransferI14SafeBinaryReadEEvRS7_RT_
aSb:__Z37GenerateCombinedDynamicVisibleListJobP11CullResults
vZa:__ZNK13ScreenManager21GetCursorInsideWindowEv
J7i:__ZN6il2cpp2vmL22RaiseOverflowExceptionEv
Dne:_Int64_System_IConvertible_ToByte_m3027162116_AdjustorThunk
DOh:_Match_get_Empty_m3581361913
_Ob:__Z20IntersectAABBFrustumRK4AABBPK5Planej
r5c:_String_Concat_m626692867
v_h:_Input_GetMouseButtonDown_m2313448302
r3b:__ZN13RenderManager15InitializeClassEv
Cnb:__ZN15SerializeTraitsI12PropertyNameE8TransferI14SafeBinaryReadEEvRS0_RT_
sVd:_PlayableHandle_IsPlayableOfType_TisAnimationOffsetPlayable_t1019600543_m3217464196_AdjustorThunk
Qei:_GUIUtility_GetDefaultSkin_m3585053327
AW:__GLOBAL__sub_I_runtime_baseclasses_2_cpp
toc:__ZN9JSONWrite8TransferI11ColorRGBA32EEvRT_PKc17TransferMetaFlags
$qc:__Z22TransferField_NonArrayI8JSONRead27Converter_SimpleNativeClassI8GradientEEvRK23StaticTransferFieldInfoR31RuntimeSerializationCommandInfoRT0_
o0e:_ReadOnlyCollection_1_System_Collections_IList_RemoveAt_m2372993063_gshared
jna:__ZNSt3__26vectorI15ComputeShaderCBNS_9allocatorIS1_EEE21__push_back_slow_pathIKS1_EEvRT_
TBb:__ZN10MonoScript13AwakeFromLoadE17AwakeFromLoadMode
h$b:__ZN13ProduceHelperI11MonoManagerLb0EE7ProduceE18MemLabelIdentifier18ObjectCreationMode
cqa:__ZNK18GfxFramebufferGLES15DiscardContentsER12ObjectHandleI17RenderSurface_TagP17RenderSurfaceBaseE
hce:_KeyPairPersistence_IsUserProtected_m37342608
Anc:__Z18Transfer_BlittableI9JSONWriteLb1EdEvRK29SerializationCommandArgumentsR31RuntimeSerializationCommandInfo
evj:_glGetIntegerv__wrapper
sle:_NumberFormatter_ResetCharBuf_m3823516989
H:Math_pow
Rva:__ZN10GameObject28FinalizeAddComponentInternalEPN5Unity9ComponentE
ryd:_ArrayListWrapper_CopyTo_m735618473
vVa:__ZN9Texture2DD2Ev
$La:__ZNK17InstancedPropInfo15RenderInstancesERK15RenderNodeQueuePK17BatchInstanceDataj17ShaderChannelMaskPFbPvS6_iR11MeshBuffersR16DrawBuffersRangeRiSC_E
Gxd:_ArrayList_Remove_m3941780739
BQg:__Z69RuntimeInvoker_Void_t1841601450_SByte_t454417549_TimeSpan_t3430258949PFvvEPK10MethodInfoPvPS4_
Uei:_GUIUtility_Internal_GetDefaultSkin_m2938938210
$Rf:_ConstructorBuilder_not_created_m2150488017
Pii:_UnityAction_2_BeginInvoke_m2906232794_gshared
OE:__ZNSt3__26vectorIiNS_9allocatorIiEEE6insertENS_11__wrap_iterIPKiEERS5_
iUh:_Uri_AppendQueryAndFragment_m2358658590
Gq:__ZN13dynamic_arrayIhLj1EE18resize_initializedEjRKh12ResizePolicy
x5:__ZN27IntermediateRendererManagerD2Ev
$8a:__ZN17PersistentManager27GetLoadErrorMessageFromPathERKN4core12basic_stringIcNS0_20StringStorageDefaultIcEEEE
uCf:_DecoderReplacementFallbackBuffer_Fallback_m1790184670
Yl:_glGenRenderbuffers
O_i:__ZN6il2cpp6icalls8mscorlib6System2IO6MonoIO19GetCurrentDirectoryEPi
OPb:__Z21IntersectSegmentPlaneRK8Vector3fS1_RK5PlanePS_
y5c:_String_GetHashCode_m931956593
L4a:__ZN14PlayerSettings23VirtualRedirectTransferER17RemapPPtrTransfer
uvj:_emscripten_glGetIntegerv__wrapper
gM:__ZN12AudioManager31GetCurrentSpatializerDefinitionEv
e2a:__ZN12MeshRenderer16UpdateCachedMeshEv
inb:__Z19TransferField_ArrayI14SafeBinaryRead27Converter_SimpleNativeClassI8GradientEEvRK23StaticTransferFieldInfoR31RuntimeSerializationCommandInfoRT0_
NZb:__ZN15dense_hashtableINSt3__24pairIKN4core12basic_stringIcNS2_20StringStorageDefaultIcEEEE10vector_setI4PPtrI11SpriteAtlasENS0_4lessISB_EE13stl_allocatorISB_L18MemLabelIdentifier81ELi16EEEEES6_20StringHash32FunctionIS6_EN14dense_hash_mapIS6_SH_SK_NS0_8equal_toIS6_EESE_ISI_LSF_81ELi16EEE9SelectKeyESN_SO_E15insert_noresizeERKSI_
V1i:__ZN6il2cpp2vm5Image9GetCorlibEv
ky:__ZNK27StateMachineBehaviourPlayer25FireStateMachineBehaviourEiiN7mecanim12statemachine19StateMachineMessageE
Y9g:_ScrollRectEvent__ctor_m2283981448
gQg:__Z52RuntimeInvoker_Single_t2076509932_Single_t2076509932PFvvEPK10MethodInfoPvPS4_
JZg:__Z109RuntimeInvoker_Single_t2076509932_RuntimeObject_RuntimeObject_Single_t2076509932_ILayoutElementU26_t440254879PFvvEPK10MethodInfoPvPS4_
CCe:_Enumerator_VerifyState_m3913376581_AdjustorThunk
zif:_NameObjectCollectionBase_System_Collections_ICollection_CopyTo_m810189168
l9h:_Renderer_get_sortingOrder_m2559463128
uUb:__ZN6Camera15SetOrthographicEb
$yc:_UNITY_FT_Stream_GetUShort
Faa:__ZN13GfxDeviceGLES14DisableScissorEv
P8f:__ZL71ReliabilityContractAttribute_t1625655220_CustomAttributesCacheGeneratorP21CustomAttributesCache
pId:_Decimal_op_Explicit_m1986696267
Qoh:_Dictionary_2_System_Collections_ICollection_CopyTo_m3578539931_gshared
Rle:_NumberFormatter_AppendDecimalString_m3532330813
Bc:_glVertexAttrib4f
sSf:_ILGenerator__ctor_m3365621387
zQd:_Environment_GetFolderPath_m1849163024
Lae:_ASN1_Add_m2540239672
wUd:_Array_InternalArray__ICollection_Remove_TisInt16_t4041245914_m3380378727_gshared
Vtf:_MethodDictionary_CopyTo_m1721788774
Ltc:__ZNSt3__26vectorINS_4pairINS1_IttEEfEENS_9allocatorIS3_EEE8__appendEj
CLh:_SinkProviderData__ctor_m1828480392
lbd:_RaycastResult_ToString_m2233441736_AdjustorThunk
hej:_GC_set_hdr_marks
fMa:__Z17SetupObjectMatrixRK10Matrix4x4fi
t2c:_SecurityFrame_ToString_m1282306399
A8d:_SimpleCollator_MatchesBackwardCore_m1884994267
BJf:_TimeSpan_From_m1249538749
_Mc:__Z84Register_UnityEngine_RectTransformUtility_INTERNAL_CALL_RectangleContainsScreenPointv
W7d:_SimpleCollator_GetSortKey_m1317491197
QX:__ZN13RuntimeStaticINSt3__23mapINS0_4pairIPcS3_EEPFbPvR14SafeBinaryReadE20smaller_tstring_pairIPKcENS0_9allocatorINS2_IKS4_S9_EEEEEELb0EE13StaticDestroyES5_
zZf:_MonoEvent_GetCustomAttributes_m3899596098
PHd:_Convert_ToSByte_m3295168715
xt:__ZN7mecanim9animation16CreateClipMemoryEPKNS0_4ClipEiRNS_6memory9AllocatorE
zvc:_open_face
_1b:__ZZL31RegisterOtherRendererPropertiesR22GenericPropertyBindingEN30Wrapper_RendererReceiveShadows13SetFloatValueEPvf
VLc:__Z17RegisterModule_UIv
Nve:_UnmanagedMemoryStream_Flush_m3305300000
wEb:__ZL11LoadManagerRKN4core12basic_stringIcNS_20StringStorageDefaultIcEEEEi
sba:__ZN9GfxDevice24CreateRenderDepthSurfaceE9TextureIDiiii16TextureDimension17DepthBufferFormat18SurfaceCreateFlags
Yyf:_ObjectManager_DoFixups_m835924385
wwf:_RemotingServices_CreateWellKnownServerIdentity_m3390048085
YF:__ZN4FMOD5Sound11setUserDataEPv
Jab:__ZN14SafeBinaryRead21TransferSTLStyleArrayINSt3__26vectorIN9ShaderLab19SerializedSubShaderENS1_9allocatorIS4_EEEEEEvRT_17TransferMetaFlags
fw:__ZN27AnimationLayerMixerPlayable13SetInputCountEi
k6e:_ARC4Managed_KeySetup_m73384687
_Ba:__ZNK25SingleBlockMemoryFileData4SizeEv
HKd:_DateTime_Equals_m2562884703
JA:__ZN9BlobWrite8TransferIN7mecanim12statemachine18StateMachineMemoryEEEvRT_PKc17TransferMetaFlags
TJ:__ZL50UnityAudioEffect_InternalSetFloatParameterCallbackP14FMOD_DSP_STATEif
t4i:__ZNK15dense_hashtableINSt3__24pairIK10KeyWrapperIP12Il2CppObjectEN6il2cpp2gc9CachedCCWEEES5_NS7_5utils11PointerHashIS3_EEN14dense_hash_mapIS5_S9_SD_NS5_14EqualsComparerINS0_8equal_toIS4_EEEENS0_9allocatorISA_EEE9SelectKeyESI_SK_E3endEv
vV:__ZN17LowLevelAllocator4FreeEPvj
lCd:_KeyMarker__cctor_m2057880225
nBi:__ZN15dense_hashtableINSt3__24pairIK10KeyWrapperIPK22Il2CppGenericParameterEP11Il2CppClassEES6_N6il2cpp5utils11PointerHashIS4_EEN14dense_hash_mapIS6_S9_SE_NS6_14EqualsComparerINS0_8equal_toIS5_EEEENS0_9allocatorISA_EEE9SelectKeyESJ_SL_E9copy_fromERKSO_j
jje:_TextInfo_get_ListSeparator_m3426465394
Mre:_FileStream_BeginWrite_m3895959548
lcf:_Context_set_RecordProtocol_m1968834768
O3:__ZL19StaticCleanupPlayerPv
lof:_X509Certificate2Enumerator_MoveNext_m1861665712
E4b:__ZN13PlayableGraph4StopEv
xJg:__Z87RuntimeInvoker_RuntimeObject_RuntimeObject_RuntimeObject_RuntimeObject_SByte_t454417549PFvvEPK10MethodInfoPvPS4_
W7:__ZN15dense_hashtableINSt3__24pairIKN4core12basic_stringIcNS2_20StringStorageDefaultIcEEEEP11AssetBundleEES6_20StringHash32FunctionIS6_EN14dense_hash_mapIS6_S9_SC_NS0_8equal_toIS6_EENS0_9allocatorISA_EEE9SelectKeyESF_SH_ED2Ev
IHb:__Z24HandleRoundedCornerPropsP19ShaderPropertySheetRK5RectTIfERK8Vector4ff
v6c:_DecoderExceptionFallbackBuffer_Fallback_m3457210607
Ydi:_WaitForSecondsRealtime__ctor_m3561981695
JK:__ZN12AudioManager37RebindAudioSourcesAndSubMixersToMixerEP10AudioMixer
Jua:__ZN9Behaviour10DeactivateE19DeactivateOperation
xVe:_Collection_1_System_Collections_IList_get_Item_m2836259259_gshared
VTa:__ZN13StreamingInfo8TransferI14SafeBinaryReadEEvRT_
gbb:__ZN15dense_hashtableINSt3__24pairIKiN4core17string_with_labelILi1EEEEEi18SInt32HashFunctionN14dense_hash_mapIiS5_S7_NS0_8equal_toIiEE13stl_allocatorIS6_L18MemLabelIdentifier1ELi16EEE9SelectKeyESA_SD_E15insert_noresizeERKS6_
Jp:__Z23CalculateGlobalRotation23TransformAccessReadOnly
sQa:__ZNK9ShaderLab7Program11IsSupportedEPK6Shader
pof:_X509Store_Close_m2412711366
X1b:__Z43InitializeRendererAnimationBindingInterfacev
h3:__ZL26DestroyGameObjectRecursiveR10GameObjectR11BatchDelete
D6g:_CullStateChangedEvent__ctor_m4025397477
yej:_GC_allochblk_nth
nHf:_Mutex_ReleaseMutex_m2143813124
UMf:_UInt32_System_IConvertible_ToSByte_m604037412_AdjustorThunk
TKc:__ZZN2UI6Canvas15InitializeClassEvEN33FunctorImpl_1523kTransformChanged4CallEPviR11MessageData
j1b:__Z7HaloTexP9Texture2DPhiiii
Orj:dynCall_i
D_d:_Array_InternalArray__ICollection_CopyTo_TisKeyValuePair_2_t3749587448_m2750720485_gshared
z3h:_X509Certificate__cctor_m2984068893
x4d:_Component_GetComponents_TisRuntimeObject_m1186222966_gshared
brj:dynCall_f
trb:__Z35Transfer_Blittable_FixedBufferFieldI24GenerateTypeTreeTransferjEvRK29SerializationCommandArgumentsR31RuntimeSerializationCommandInfo
ASa:__ZN8Playable13SetInputCountEi
vqj:dynCall_v
nte:_Path__cctor_m3685888661
BMd:_Decimal_System_IConvertible_ToDateTime_m4247760250_AdjustorThunk
fbe:_BitConverterLE_ULongFromBytes_m2583105400
Loa:__ZN7ApiGLES14TextureSamplerEjjRK24GfxTextureSamplingParams17TextureColorSpace
Inh:_Dictionary_2_ToTKey_m965425080_gshared
gIa:__ZN6Camera23VirtualRedirectTransferER14SafeBinaryRead
XGe:_List_1_System_Collections_IList_Insert_m2838947798_gshared
Mij:__ZNSt3__26vectorINS_12basic_stringIDsNS_11char_traitsIDsEENS_9allocatorIDsEEEENS4_IS6_EEE8__appendEj
AJf:_TimeSpan_FromDays_m2859053398
ZPc:__ZN11UnityEngine7Connect13ConnectConfig11ConfigValueD2Ev
dfa:__ZNSt3__26__treeINS_12__value_typeIjP14DataBufferGLESEENS_19__map_value_compareIjS4_NS_4lessIjEELb1EEENS_9allocatorIS4_EEE7destroyEPNS_11__tree_nodeIS4_PvEE
J4b:__ZN13PlayableGraph15SetPrepareStageE13DirectorStage
xb:invoke_viiiiiiii
kqi:_AudioSource_set_clip_m4189170370
rwe:_MissingMemberException__ctor_m2869542203
lpa:__ZN18GfxFramebufferGLES24UpdateDefaultFramebufferEP17RenderSurfaceBaseS1_N2gl6HandleILNS2_10ObjectTypeE9EEE
Cpi:_AudioSource_AddAmbisonicExtension_m312887346
ZMe:_List_1_Find_m160737912_gshared
ITh:_Uri_EnsureAbsoluteUri_m1892758054
_Va:__ZN16LightmapSettings5ResetEv
nza:__ZN12FileAccessor4ReadEyPvPy
Sjc:__Z42Register_UnityEngine_Event_get_commandNamev
jxd:_ArrayList_ThrowNewArgumentOutOfRangeException_m3795973535
tlc:__ZN5Unity9rapidjson12PrettyWriterI16TempBufferWriterNS0_4UTF8IcEES4_13JSONAllocatorE12PrettyPrefixENS0_4TypeE
cQh:_Regex_Init_m1873144192
jbe:_BitConverterLE_ToDouble_m516016818
R2:__ZNK15FileSystemEntry6ExistsEv
F2a:__ZNK9Transform21GetLocalToWorldMatrixER10Matrix4x4f
_xi:_TextGenerator_ValidatedSettings_m647349856
x7e:_EncryptedPrivateKeyInfo__ctor_m3398795484
Tbi:_Transform_SetParent_m3603514159
ZG:__ZN13AudioListener23VirtualRedirectTransferER19StreamedBinaryWriteILb0EE
hca:__ZN13GfxDeviceGLES11CopyTextureE9TextureIDS0_
puj:_emscripten_glViewport__wrapper
pXg:__Z47RuntimeInvoker_RuntimeObject_Single_t2076509932PFvvEPK10MethodInfoPvPS4_
rMh:_Context__cctor_m3895126354
bFc:_tt_size_select
zR:__ZN11UnityEngine15CloudWebService17SessionEventQueue15RestoreFromFileER12FileAccessorPvy
C4a:__ZN14PlayerSettingsD2Ev
kre:_FileStream_get_Length_m2265080501
OKf:_Type_type_is_assignable_from_m1620694099
mdj:_GC_reclaim_all
_5:__ZN13PlayableGraph14DestroyOutputsEv
qNh:_ContextAttribute_GetPropertiesForNewContext_m4007241045
hf:___syscall122
Aci:_Vector2_set_Item_m985527261_AdjustorThunk
$4e:_Kernel_Subtract_m2224959291
TIh:_ResourceSet__ctor_m2566914412
d6e:_ASN1Convert_ToDateTime_m2305963290
S_c:_SymmetricAlgorithm_Finalize_m1665128997
j4e:_BigInteger__ctor_m2991182310
jDi:__ZN6il2cpp2vm5Class6IsEnumEPK11Il2CppClass
tbc:__Z52Register_UnityEngine_Camera_INTERNAL_CALL_RaycastTryv
Gmj:_mkdir
IEd:_Convert_ToByte_m791636053
pFh:_InternalEnumerator_1_get_Current_m2986222582_AdjustorThunk
a9h:_Vector2_set_Item_m985527261
trj:dynCall_iifi
D9b:__ZN18ScriptingArguments13CopyFromOtherERKS_
sBc:_ps_hints_close
F3b:__Z16CreateRenderLoopR6Camera
fW:_tlsf_create
rGh:_DefaultComparer_Compare_m4039941311_gshared
Rjh:_Enumerator_MoveNext_m2534596951_AdjustorThunk
M5a:__ZN14SafeBinaryRead21TransferSTLStyleArrayINSt3__26vectorIN15ResourceManager10DependencyE13stl_allocatorIS4_L18MemLabelIdentifier52ELi16EEEEEEvRT_17TransferMetaFlags
tAb:__ZN13MonoBehaviour23VirtualRedirectTransferER18StreamedBinaryReadILb0EE
rcb:__ZN9ShaderLab20SerializedSubProgramC2ERKS0_
c_c:_SHA256Managed_ProcessBlock_m1064908669
Poj:__ZNK10__cxxabiv121__vmi_class_type_info27has_unambiguous_public_baseEPNS_19__dynamic_cast_infoEPvi
PId:_Convert_ToUInt64_m2215781574
U3h:_X509Certificate_VerifySignature_m4020723406
YRd:_CompareInfo_LastIndexOf_m2978196696
Fbe:_DSAManaged_Generate_m3166917081
qgh:_Enumerator_VerifyCurrent_m3330382363_AdjustorThunk
Zah:_ScrollRect_StopMovement_m1824352159
wYa:__ZN15QualitySettings23VirtualRedirectTransferER19StreamedBinaryWriteILb0EE
ZMb:__Z20RenderFullScreenQuadR9GfxDeviceRK6Camera17ShaderChannelMaskRK5RectTIfEf21MonoOrStereoscopicEye
qYe:_ReadOnlyCollection_1_System_Collections_IList_Contains_m2320811592_gshared
Lea:__ZN16RenderTextureMap5QueryEPK17RenderSurfaceBase
zve:_UnexceptionalStreamWriter_Write_m186237617
Mah:_ScrollRect_UpdateScrollbars_m3921404746
Vxj:_emscripten_glUniform4iv__wrapper
nud:_Boolean_CompareTo_m1086129598_AdjustorThunk
i2b:__ZN8Material8GetFloatEN9ShaderLab16FastPropertyNameE
Dxc:_psnames_module_class_pic_free
aic:__Z11GetGUIStatev
ig:_pthread_key_create
yxd:_ArrayList_Clear_m3834604134
pg:_emscripten_glGetObjectParameterivARB
sIa:__ZN15SerializeTraitsI10ColorRGBAfE8TransferI14SafeBinaryReadEEvRS0_RT_
GIi:__ZN6il2cpp2vm13MetadataCache27GetEventDefinitionFromIndexEi
U3:__ZN22BuiltinResourceManager13StaticDestroyEPv
m2d:_Array_Resize_TisCustomAttributeTypedArgument_t1498197914_m3055365808_gshared
_2:__ZN10GameObject17GetComponentIndexEPN5Unity9ComponentE
_Za:__ZN14SafeBinaryRead21TransferSTLStyleArrayI13dynamic_arrayI7SubMeshLj4EEEEvRT_17TransferMetaFlags
g3c:_Single_IsNegativeInfinity_m2615809279
zne:_Int32_GetTypeCode_m3811463295_AdjustorThunk
faf:_CipherSuiteFactory_GetSsl3SupportedCiphers_m2476597368
ekf:_IPv6Address_Fill_m1824197512
Dwc:__ZNK13TextRendering4Font11GetMaterialEv
FJ:__ZN29AudioEffectInternalDefinition9CreateDSPEPN4FMOD6SystemEPvPfP23UnityAudioAmbisonicDataPP25UnityAudioSpatializerData
BGc:_UNITY_tt_face_vary_cvt
rhc:__GLOBAL__sub_I_Grid_cpp
vKi:__ZNK6il2cpp5utils10functional6FilterINSt3__212basic_stringIcNS3_11char_traitsIcEENS3_9allocatorIcEEEENS0_13VmStringUtils21CaseSensitiveComparerEEclIPKcEEbRKT_
mic:__Z28DidLoadAllAssembliesCallbackv
pWb:__ZN35RegisterRuntimeInitializeAndCleanup22ExecuteInitializationsEv
$xa:__ZN23PreloadManagerOperation14SetFinalTimingEffff
i:DYNAMICTOP_PTR
Lci:_Vector2_op_Division_m1216397880
hhd:_Dropdown_SetupTemplate_m1416189897
BIb:__Z11CopyTextureP7TextureiiS0_ii
m4a:__ZN13BuildSettings8TransferI18StreamedBinaryReadILb0EEEEvRT_
J7g:_PositionAsUV1__ctor_m412270210
w3b:__ZN10GameObject15InitializeClassEv
Izf:_SerializationInfo_GetInt16_m3549836657
ucc:__Z38Renderer_Get_Custom_PropSortingLayerIDP12Il2CppObject
WDg:__ZL90StencilMaterial_t1630303189_CustomAttributesCacheGenerator_StencilMaterial_Add_m1745413071P21CustomAttributesCache
aUd:_Array_InternalArray__ICollection_Contains_TisWorkRequest_t1154022482_m865286315_gshared
iPd:_Double_Equals_m920556135_AdjustorThunk
Iya:__ZN14AsyncOperationD0Ev
a9e:_CipherSuite_get_ExpandedKeyMaterialSize_m296573450
IDd:_Stack_Push_m284336154
T8b:__Z25scripting_raise_exception21ScriptingExceptionPtr
xmd:_InputField_set_caretBlinkRate_m3521089516
sKd:_DateTime_Add_m4237489122
V5a:__ZN15ResourceManager10Dependency8TransferI14SafeBinaryReadEEvRT_
Qcj:_GC_extend_size_map
sHh:_Comparer_1_System_Collections_IComparer_Compare_m637596782_gshared
hK:__ZN4FMOD6System9setDriverEi
S3i:__ZN6il2cpp8metadataL24RecursiveGenericDepthForEPK17Il2CppGenericInst
WFa:__ZNK9Transform11GetRotationEv
cnf:_X509Certificate2_Find_m833446211
RO:__ZN12AudioManager15DidReloadDomainEv
OBc:_pshinter_get_globals_funcs
urb:__Z18Transfer_BlittableI24GenerateTypeTreeTransferLb0EyEvRK29SerializationCommandArgumentsR31RuntimeSerializationCommandInfo
vQa:__ZN8Material14CreateMaterialER6ShaderN6Object9HideFlagsEb
qce:_KeyPairPersistence_FromXml_m2310151202
fMd:_DBNull_System_IConvertible_ToUInt64_m2919804476
Qmj:_fread
DAc:_tt_cmap12_char_map_binary
PPg:__Z51RuntimeInvoker_Double_t4078015681_Int16_t4041245914PFvvEPK10MethodInfoPvPS4_
hxc:_ft_outline_glyph_transform
gqa:__Z25GetBuiltinResourceManagerv
dCh:_InternalEnumerator_1_System_Collections_IEnumerator_get_Current_m439366097_AdjustorThunk
b4i:__ZN6il2cpp2gc8GCHandle15GetTargetHandleEP12Il2CppObjectii
Gh:_llvm_trap
DZ:__ZNSt3__27__sort5IRNS_6__lessIN12_GLOBAL__N_114ParamNameIndexES3_EEPS3_EEjT0_S7_S7_S7_S7_T_
Npe:_Directory_CreateDirectory_m3561886598
tZc:_RSAPKCS1KeyExchangeFormatter_CreateKeyExchange_m1122286094
ldj:_get_index
ZIa:__Z26scripting_method_get_class18ScriptingMethodPtr
rbf:_ClientSessionInfo_get_Valid_m3589823308
pde:_PKCS1_Sign_v15_m2137018891
vVd:_SetPropertyUtility_SetClass_TisRuntimeObject_m3524554928_gshared
KMa:__ZN17CollisionMeshData20VertexDataHasChangedEv
BJi:__ZN6il2cpp2vm21ThreadPoolCompartment12DetachThreadEP12Il2CppThread
Iba:__ZN13GfxDeviceGLES30SetBackBufferColorDepthSurfaceEP17RenderSurfaceBaseS1_
fEf:_Latin1Encoding_GetBytes_m1067304501
Gkc:__Z52Register_UnityEngine_GUIUtility_get_systemCopyBufferv
_4b:__ZN16StreamedResource8TransferI18StreamedBinaryReadILb0EEEEvRT_
Jdc:__Z49Register_UnityEngine_Input_get_imeCompositionModev
fbb:__ZN15dense_hashtableINSt3__24pairIKiN4core17string_with_labelILi1EEEEEi18SInt32HashFunctionN14dense_hash_mapIiS5_S7_NS0_8equal_toIiEE13stl_allocatorIS6_L18MemLabelIdentifier1ELi16EEE9SelectKeyESA_SD_E12resize_deltaEjj
pTb:__ZNK20OcclusionCullingData22GetStaticRendererCountEv
Oyc:_UNITY_tt_face_free_ps_names
lsc:__GLOBAL__sub_I_runtime_particlesystem_modules_5_cpp
aNb:__ZNK6Camera17GetSkyboxMaterialEv
bzj:_emscripten_glDisableVertexAttribArray__wrapper
xyh:_InternalEnumerator_1_get_Current_m3259181373_AdjustorThunk
OAh:_InternalEnumerator_1_get_Current_m789289033_gshared
c6d:_Array_InternalArray__get_Item_TisUILineInfo_t3621277874_m1432166059_gshared
g2a:__ZN12MeshRenderer18CalculateLocalAABBER4AABBRKS_RK4Mesh
SQg:__Z242RuntimeInvoker_Boolean_t3825574718_RuntimeObject_RuntimeObject_RuntimeObject_SByte_t454417549_DateTimeU26_t3448131235_DateTimeOffsetU26_t3212986406_RuntimeObject_Int32_t2071877448_SByte_t454417549_BooleanU26_t3168250738_BooleanU26_t3168250738PFvvEPK10MethodInfoPvPS4_
cke:_Guid_ToString_m3927110175
_U:__ZN21UnityDefaultAllocatorI17LowLevelAllocatorE8AllocateEji
Bkf:_IPv6Address_AsIPv4Int_m3565745471
JJc:__ZL28InitializeUIScriptingClassesv
rYh:_Display_RecreateDisplayList_m1746695619
vrj:dynCall_iiifi
iEb:__ZN10UnityScene10ClearRootsEv
cib:__ZN12HandlerChain10AtomicMoveER13FileEntryDataS1_
wVd:_SetPropertyUtility_SetStruct_TisBoolean_t3825574718_m752301298_gshared
A6:__ZZN15DirectorManager15InitializeClassEvEN48PreLateUpdateDirectorDeferredEvaluateRegistrator7ForwardEv
htc:__ZN20SpeedTreeWindManager6UpdateEf
KSh:_Literal_GetWidth_m1285678191
kGd:_Decimal_ThrowAtPos_m3318712794
Mgi:_GUITargetAttribute_GetGUITargetAttrValue_m3706077059
MHg:__Z63RuntimeInvoker_Char_t3454481338_Int16_t4041245914_RuntimeObjectPFvvEPK10MethodInfoPvPS4_
Rde:_RSAManaged_GetPaddedValue_m4394397
tC:__ZN7mecanim9animation20CreateAvatarConstantEPNS_8skeleton8SkeletonEPNS1_13SkeletonPoseTIN4math4trsXEEES8_PNS_5human5HumanES3_iRKS6_RNS_6memory9AllocatorE
xve:_UnexceptionalStreamWriter__ctor_m2209699189
jJe:_List_1_Find_m970100220_gshared
fVd:_Array_InternalArray__ICollection_Remove_TisVector2_t2243707579_m3881494282_gshared
D1a:__ZN14CompressedMesh8TransferI19StreamedBinaryWriteILb0EEEEvRT_
iQf:_AssemblyFileVersionAttribute__ctor_m2026149866
u$d:_Array_InternalArray__ICollection_CopyTo_TisUILineInfo_t3621277874_m2142954044_gshared
oWf:_TypeBuilder_SetParent_m387557893
Qci:_Vector2_get_up_m1721661564
S9e:_CipherSuiteCollection_cultureAwareCompare_m1825407448
WJd:_DateTimeFormatInfo_GetEraName_m1437894363
_$d:_Array_InternalArray__Insert_TisLabelFixup_t4090909514_m3927736182_gshared
Bpf:_X509KeyUsageExtension_Encode_m3100824560
qLa:__ZN24GenerateTypeTreeTransfer8TransferI21PlatformShaderDefinesEEvRT_PKc17TransferMetaFlags
D5a:__ZNK15ResourceManager22GetTypeVirtualInternalEv
Oph:_DefaultComparer_GetHashCode_m1728348656_gshared
Pnd:_InputField_MouseDragOutsideRect_m3758282095
I1h:_Object__cctor_m3758199678
C7g:_Outline_ModifyMesh_m3796381413
ttc:__ZN13TextRendering4Font23VirtualRedirectTransferER24GenerateTypeTreeTransfer
Hqf:_Interpreter_PopulateGroup_m4098755954
J7e:_PrivateKeyInfo_DecodeRSA_m919734506
Rdc:__ZNSt3__27__sort4IRNS_6__lessI11KeyframeTplIfES3_EEPS3_EEjT0_S7_S7_S7_T_
xje:_GuidParser_Reset_m3389485794
EO:__ZN11AudioSource15InitializeClassEv
hPe:_Enumerator_System_Collections_IEnumerator_get_Current_m1270503615_gshared
Pxh:_InternalEnumerator_1_System_Collections_IEnumerator_get_Current_m3315293493_gshared
chi:_TextEditor__ctor_m1435332308
zMb:__ZN11HaloManager17RenderGeometryJobEP25DynamicVBOGeometryJobDataj
XAh:_InternalEnumerator_1_System_Collections_IEnumerator_get_Current_m4023948615_gshared
sE:__ZNSt3__227__insertion_sort_incompleteIRPFbN7mecanim9animation13MuscleIndexIdES3_EPS3_EEbT0_S8_T_
_6c:_BaseInput_get_mousePresent_m3571192771
nzj:_emscripten_glBlendEquation__wrapper
cYi:__ZN15dense_hashtableINSt3__24pairIK10KeyWrapperIP11Il2CppClassES4_EES5_N6il2cpp8metadata16SZArrayClassHashEN14dense_hash_mapIS5_S4_SA_NS5_14EqualsComparerINS9_19SZArrayClassCompareEEENS0_9allocatorIS7_EEE9SelectKeyESE_SG_E13set_empty_keyERKS7_
Cnj:__ZNSt3__212basic_stringIcNS_11char_traitsIcEENS_9allocatorIcEEE6__initEPKcj
Lj:_emscripten_set_fullscreenchange_callback
ade:_KeyPairPersistence__IsUserProtected_m3417764903
cqf:_CategoryUtils_CategoryFromName_m226887453
ENd:_Decimal_op_Division_m1099836590
kU:__ZN11UnityEngine15CloudWebService14DataDispatcher22ResetNetworkRetryIndexEv
Qj:_emscripten_glDrawArrays
zGb:__ZZ23InitPlayerLoopCallbacksvEN43EarlyUpdateExecuteMainThreadJobsRegistrator7ForwardEv
NT:__ZN11UnityEngine15CloudWebService19SessionEventManagerC2Ev
Gqe:_File_Open_m1543461971
SBd:_Hashtable_KeyEquals_m1433874944
Sdi:_Vector4__cctor_m1770725722
ZPh:_QuickSearch_GetShiftDistance_m2364008966
GUc:__ZN13RuntimeStaticI14dynamic_bitsetLb0EE16StaticInitializeEPv
P8:__ZNSt3__222__merge_move_constructIRNS_4lessIN4core12basic_stringIcNS2_20StringStorageDefaultIcEEEEEENS_11__wrap_iterIPS6_EESB_EEvT0_SC_T1_SD_PNS_15iterator_traitsISC_E10value_typeET_
jbc:__Z41Register_UnityEngine_Camera_get_eventMaskv
WO:__ZL19CleanupModule_Audiov
nni:_GenericComparer_1_Compare_m2516380588_gshared
_Ni:__ZN6il2cpp2os4File10DeleteFileERKNSt3__212basic_stringIcNS2_11char_traitsIcEENS2_9allocatorIcEEEEPi
Ope:_File_Exists_m1685968367
ryi:_Canvas_get_scaleFactor_m1899077319
yob:__Z29Transfer_Blittable_ArrayFieldI14SafeBinaryReadiEvRT_R9ArrayInfoRK23StaticTransferFieldInfo
rKi:__ZN6il2cpp6icalls8mscorlib6System8MonoType8GetFieldEP20Il2CppReflectionTypeP12Il2CppStringi
AGi:__ZN15dense_hashtableINSt3__24pairIK10KeyWrapperIN6il2cpp5utils13dynamic_arrayIPK10Il2CppTypeLj4EEEEPFvvEEESA_NS3_8metadata19Il2CppSignatureHashEN14dense_hash_mapISA_SD_SG_NSA_14EqualsComparerINSF_22Il2CppSignatureCompareEEENS0_9allocatorISE_EEE9SelectKeyESK_SM_E5clearEv
Jvj:_emscripten_glVertexAttrib3fv__wrapper
$2e:_Comparison_1_BeginInvoke_m1549337842_gshared
T4h:_X509Crl_VerifySignature_m25189948
q1a:__ZN18StreamedBinaryReadILb0EE21TransferSTLStyleArrayI13dynamic_arrayI10Matrix4x4fLj16EEEEvRT_17TransferMetaFlags
r$b:__ZNK28MonoBehaviourPropertyBinding13GetFloatValueERKN11UnityEngine9Animation10BoundCurveE
_zf:_RuntimeFieldHandle_Equals_m1202966418_AdjustorThunk
bfj:_GC_generic_malloc
qjh:_Enumerator_System_Collections_IEnumerator_get_Current_m2160496972_AdjustorThunk
Nba:__ZN13GfxDeviceGLES32CreateDepthRenderSurfacePlatformEP17RenderSurfaceBase17DepthBufferFormat
lWh:_Camera_INTERNAL_CALL_ScreenToViewportPoint_m2554844623
q_a:__ZN24GenerateTypeTreeTransfer8TransferINSt3__26vectorI13dynamic_arrayI8Vector2fLj4EENS1_9allocatorIS5_EEEEEEvRT_PKc17TransferMetaFlags
Jfh:_Enumerator_System_Collections_IDictionaryEnumerator_get_Value_m120250090_gshared
MOh:_MatchCollection_TryToGet_m2938913145
Fzj:_emscripten_glIsTexture__wrapper
p1h:_MessageTypeSubscribers_get_MessageTypeId_m184006475
pWc:_KeyedHashAlgorithm_get_Key_m3672929432
kba:__ZN9GfxDevice25ReleaseAsyncCommandHeaderEPN21GfxDeviceAsyncCommand3ArgE
B0h:_Mesh_SetSizedArrayForChannel_m3453069292
L6e:_MD2Managed_HashCore_m248147901
uAb:__ZN13MonoBehaviour23VirtualRedirectTransferER17RemapPPtrTransfer
Vqa:__ZN21UniformBufferTFMethod20IsBoneCountSupportedEi
F9g:_Selectable_FindSelectableOnLeft_m3706572906
sse:_MemoryStream__ctor_m4073175573
O$h:_Mathf_Clamp_m966229550
nQa:__ZN6Shader27MarkShaderStateNotSupportedEPKS_
r3d:_Array_Sort_TisVector4_t2243707581_TisVector4_t2243707581_m917148421_gshared
FLf:_UInt16_System_IConvertible_ToBoolean_m887616848_AdjustorThunk
kAg:__ZL81AnimationTriggers_t3244928895_CustomAttributesCacheGenerator_m_HighlightedTriggerP21CustomAttributesCache
uqa:__ZN25TransformFeedbackSkinning8SkinMeshERK18VertexStreamSourceP9GfxBufferP17GPUSkinPoseBufferS4_ii17ShaderChannelMaskb
l1i:__ZN15dense_hashtableINSt3__24pairIK10KeyWrapperIP14Il2CppIUnknownEjEES5_N6il2cpp5utils11PointerHashIS3_EEN14dense_hash_mapIS5_jSB_NS5_14EqualsComparerINS0_8equal_toIS4_EEEENS0_9allocatorIS7_EEE9SelectKeyESG_SI_E12resize_deltaEjj
fFf:_UnicodeEncoding_GetCharCount_m3719064538
jud:_Boolean_CompareTo_m3691698947
Pph:_DefaultComparer_Equals_m3262686272_gshared
Ztb:__Z22TransferField_NonArrayI19StreamedBinaryWriteILb0EE27Converter_SimpleNativeClassI8GUIStyleEEvRK23StaticTransferFieldInfoR31RuntimeSerializationCommandInfoRT0_
Xte:_StreamReader_ReadToEnd_m3871366821
Vbh:_Selectable_set_interactable_m63718297
Hrc:__ZN8JSONRead8TransferIN4math12int3_storageEEEvRT_PKc17TransferMetaFlagsb
uHb:__ZN27IntermediateRendererManager29ClearAllIntermediateRenderersEv
t$d:_Array_InternalArray__ICollection_CopyTo_TisUICharInfo_t3056636800_m2132994790_gshared
Kp:__Z17CalculateGlobalSM23TransformAccessReadOnlyRKN4math7_float4E
MQ:__ZN23CloudWebServicesManager23VirtualRedirectTransferER18StreamedBinaryReadILb0EE
Pl:_emscripten_glLoadIdentity
DWb:__ZNSt3__26vectorINS_4pairIN4core12basic_stringIcNS2_20StringStorageDefaultIcEEEEPK17MessageIdentifierEENS_9allocatorISA_EEE26__swap_out_circular_bufferERNS_14__split_bufferISA_RSC_EEPSA_
rEd:_Decimal_op_GreaterThan_m1625379433
MRb:__Z29CullShadowCastersWithoutUmbraR9IndexListRK17CullingParametersPK4AABBjj
Tfb:__ZN6Shader16GetDefaultOrNullEv
lp:__ZN4AABB8TransferI14SafeBinaryReadEEvRT_
qRg:__Z79RuntimeInvoker_RuntimeObject_SByte_t454417549_SByte_t454417549_SByte_t454417549PFvvEPK10MethodInfoPvPS4_
vke:_Int16_System_IConvertible_ToDecimal_m2010889121_AdjustorThunk
YUd:_Array_InternalArray__ICollection_Remove_TisPlayableBinding_t2498078091_m2632165671_gshared
HWa:__ZN18StreamedBinaryReadILb0EE21TransferSTLStyleArrayI13dynamic_arrayI12LightmapDataLj4EEEEvRT_17TransferMetaFlags
tYb:__Z11MD5ToStringPh
DBe:_Enumerator_MoveNext_m2625246500_AdjustorThunk
udc:__Z38Input_Get_Custom_PropCompositionStringv
yGf:_UTF8Encoding_GetPreamble_m4179999478
bDi:__ZN6il2cpp2vm5Class19GetArrayElementSizeEPK11Il2CppClass
QBd:_SyncHashtable__ctor_m3750218498
VR:__ZN9JSONWrite8TransferIN4core12basic_stringIcNS1_20StringStorageDefaultIcEEEEEEvRT_PKc17TransferMetaFlags
e2h:_GeneralNames_get_IPAddresses_m1712556836
NFf:_UTF7Encoding_GetByteCount_m253528135
Gad:_PointerInputModule_CopyFromTo_m2185451090
b0d:_Array_InternalArray__Insert_TisRefEmitPermissionSet_t2708608433_m4154753514_gshared
Nnj:__ZNSt3__212basic_stringIcNS_11char_traitsIcEENS_9allocatorIcEEE6resizeEjc
EYd:_Array_InternalArray__IndexOf_TisMonoResource_t3127387157_m1933788179_gshared
F4a:__ZN14PlayerSettings16CheckConsistencyEv
GN:__ZN11AudioModule30GetOrCreateDSPFromCustomFilterEP17AudioCustomFilter
CJa:__ZN19AtomicPageAllocatorD2Ev
tn:FUNCTION_TABLE_viiiiiiiiiiiiii
N1i:__ZN6il2cpp6icalls8mscorlib6System13GlobalizationL20culture_lcid_locatorEPKvS5_
ISe:_Collection_1_Add_m3182287887_gshared
T9c:_PointerEventData_set_useDragThreshold_m2778439880
JTa:__ZNK12CubemapArray16ExtractImageImplEP14ImageReferenceNS0_8BlitModeEbi
mec:__Z63Register_UnityEngine_MonoBehaviour_StartCoroutine_Auto_Internalv
S7b:__ZN10systeminfo24GetSystemLanguageCultureEi
LEf:_StringBuilder_Append_m3618697540
jbh:_ScrollRect_get_normalizedPosition_m1640825682
y0c:_SecurityElement_IsValidAttributeName_m2201790420
R4a:__ZN10VRSettings8TransferI14SafeBinaryReadEEvRT_
NLf:_UInt16_System_IConvertible_ToDecimal_m984067306_AdjustorThunk
$Sb:__Z18AddGroupToWorkloadR26BlockRangeBalancedWorkloadjR13dynamic_arrayI10BlockRangeLj4EERS1_IjLj4EE
kxc:_UNITY_FT_Outline_Get_CBox
d_d:_Array_InternalArray__ICollection_Add_TisUInt16_t986882611_m2791161149_gshared
jX:__GLOBAL__sub_I_runtime_gfxdevice_0_cpp
$fh:_Enumerator_Reset_m3115320746_gshared
Ble:_NumberFormatter_FormatDecimal_m1435371940
O7d:_SimpleCollator_GetTailContraction_m1037943844
LXc:_RC2CryptoServiceProvider_CreateEncryptor_m252199767
rki:_U3CStartU3Ec__Iterator0_MoveNext_m2339115502_gshared
lTc:__ZN20UnityWebRequestProtoI24UnityWebRequestTransport16AtomicRefCounter14RedirectHelper14ResponseHelper15DownloadHandler13UploadHandler12HeaderHelper14AsyncOperationE8FinalizeEv
jXg:__Z165RuntimeInvoker_Void_t1841601450_RuntimeObject_Int32_t2071877448_Int32_t2071877448_RuntimeObject_Int32_t2071877448_Single_t2076509932_Single_t2076509932_RuntimeObjectPFvvEPK10MethodInfoPvPS4_
vGa:__ZN22PerThreadPageAllocator14AcquireNewPageEj
SO:__ZN24AudioScriptBufferManager15DidReloadDomainEv
Mqb:__Z18Transfer_BlittableI24GenerateTypeTreeTransferLb1E9BoundsIntEvRK29SerializationCommandArgumentsR31RuntimeSerializationCommandInfo
NNb:__ZN6Camera13ClearNoSkyboxEb
Rne:_Int64_System_IConvertible_ToInt64_m989981560_AdjustorThunk
sIe:_List_1_CheckIndex_m2576265846_gshared
XXg:__Z110RuntimeInvoker_Boolean_t3825574718_Vector2_t2243707579_Vector2_t2243707579_Single_t2076509932_SByte_t454417549PFvvEPK10MethodInfoPvPS4_
Cei:_Event_get_mousePosition_m1191943012
$rd:_Array_combsort_m2486643569
O0h:_Mesh_SetUVs_m3637760384
n5:__ZNSt3__27__sort5IR17CompareInstanceIDPP6ObjectEEjT0_S6_S6_S6_S6_T_
wWb:__ZN13sorted_vectorINSt3__24pairIN4core12basic_stringIcNS2_20StringStorageDefaultIcEEEEPK17MessageIdentifierEEN10vector_mapIS6_S9_NS0_4lessIS6_EENS0_9allocatorISA_EEE13value_compareESF_E4findIS6_EENS0_11__wrap_iterIPSA_EERKT_
$ph:_DefaultComparer_Equals_m145577182_gshared
yea:__ZN18GfxFramebufferGLES10InvalidateEv
wge:_SmallXmlParser_SkipWhitespaces_m2923234398
OMd:_Decimal_System_IConvertible_ToSingle_m1736019752_AdjustorThunk
oia:__ZN4crnd11crnd_deleteINS_13prefix_coding14decoder_tablesEEEvPT_
IY:__ZN10MemoryPoolD2Ev
QJh:_GCHandle__ctor_m2952050298_AdjustorThunk
_ic:__ZNSt3__26__treeINS_12__value_typeIN4core12basic_stringIcNS2_20StringStorageDefaultIcEEEEN5IMGUI12NamedControlEEENS_19__map_value_compareIS6_S9_NS_4lessIS6_EELb1EEENS_9allocatorIS9_EEE7destroyEPNS_11__tree_nodeIS9_PvEE
zff:_SslClientStream_get_SelectedClientCertificate_m1580018944
qFd:_DateTime_FromTicks_m75527956
Ibe:_KeyGeneratedEventHandler_Invoke_m4220935979
HGf:_CompressedStack_Capture_m179370023
Sna:__ZN14GfxDeviceStats19EndClientFrameStatsEv
cOd:_DebuggerTypeProxyAttribute__ctor_m3082078467
gVd:_Array_InternalArray__ICollection_Remove_TisVector3_t2243707580_m3881497481_gshared
smj:___mmap
J8b:__ZN9Scripting26RaiseArgumentNullExceptionEPKc
gAj:b120
sW:__ZL18InternalLogConsolePKcz
mlj:_lseek
aIe:_List_1_System_Collections_IList_set_Item_m2267202349_gshared
WCe:_Enumerator_System_Collections_IEnumerator_get_Current_m3866069145_AdjustorThunk
_Se:_Collection_1_ConvertItem_m2972284337_gshared
xhf:_AuthorityKeyIdentifierExtension_Decode_m1941074339
jM:__ZN11AudioSource16UpdatePauseStateEv
W4:__ZL52StaticUnregisterSceneLoadedCallback_LightmapSettingsPv
Bw:__ZN7mecanim5human25HumanPoseAddAdditiveLayerERNS0_9HumanPoseERKS1_fRKNS_6bitsetILj70EEE
p8:__ZN13RuntimeStaticI18SpriteAtlasManagerLb0EE16StaticInitializeEPv
Hkd:_HorizontalOrVerticalLayoutGroup_set_childForceExpandWidth_m1140293254
Yij:__ZN6il2cpp5utils25NativeDelegateMethodCache17AddNativeDelegateEPFvvEPK10MethodInfo
Gif:_NameObjectCollectionBase_BaseAdd_m964300824
jTd:_Array_InternalArray__ICollection_Contains_TisKeyValuePair_2_t1174980068_m650645929_gshared
YMb:__ZN27DeviceViewProjMatricesStateD2Ev
QYc:_RNGCryptoServiceProvider_RngOpen_m2238023214
fRf:_CustomAttributeData_GetCustomAttributes_m4124612360
xqb:__Z18Transfer_BlittableI24GenerateTypeTreeTransferLb0E8Vector3fEvRK29SerializationCommandArgumentsR31RuntimeSerializationCommandInfo
I2i:__ZN15dense_hashtableINSt3__24pairIK10KeyWrapperINS1_IPKcS4_EEEiEES6_24NamespaceAndNamePairHashN14dense_hash_mapIS6_iS9_NS6_14EqualsComparerI26NamespaceAndNamePairEqualsEENS0_9allocatorIS8_EEE9SelectKeyESD_SF_E14squash_deletedEv
ptc:__ZNK13TextRendering4Font22GetTypeVirtualInternalEv
cZi:__ZN6il2cpp2vm6Thread16RequestInterruptEP12Il2CppThread
m6a:__ZN19StreamedBinaryWriteILb0EE21TransferSTLStyleArrayINSt3__26vectorIN15ResourceManager10DependencyE13stl_allocatorIS5_L18MemLabelIdentifier52ELi16EEEEEEvRT_17TransferMetaFlags
ohf:_TlsStream_get_Position_m3551173234
lMh:_LeaseManager_SetPollTime_m3137304074
bBd:_Hashtable_CalcPrime_m1835281409
f:HEAPU32
ija:__ZN6prcoreL10inner_flipILj2EEEvPhS1_j
qWf:_TypeBuilder_has_ctor_method_m3449702467
D$a:__ZNK14Texture2DArray16ExtractImageImplEP14ImageReferenceNS0_8BlitModeEbi
Wnc:__ZN9JSONWrite8TransferIbEEvRT_PKc17TransferMetaFlags
vrd:_Array_CreateInstance_m679102425
wxa:__ZN12TLSAllocatorI14StackAllocatorED0Ev
TJh:_GCHandle_GetTarget_m2056570211
E3a:__ZN11TimeManager16CheckConsistencyEv
rKb:__ZN21GfxDeviceAsyncCommand10ArgScratch15ThreadedCleanupEv
XRh:_CapturingGroup_get_IsNamed_m561983186
y7d:_MSCompatUnicodeTable_IsJapaneseSmallLetter_m2541532635
r4e:_BigInteger_GenerateRandom_m1878468830
Ypb:__ZN12NativeBufferI27Converter_UnityEngineObjectE15SetupForWritingER9ArrayInfo
ijd:_Graphic_UpdateGeometry_m2431537946
tze:_ObsoleteAttribute__ctor_m834417715
ne:_glTexImage3D
TO:__Z20RegisterModule_Audiov
$9e:_TlsCipherSuite__ctor_m2983563913
MQa:__ZNSt3__26vectorINS_4pairI11ShaderTagIDS2_EENS_9allocatorIS3_EEE6insertENS_11__wrap_iterIPKS3_EERS8_
we:_JS_SystemInfo_GetCurrentCanvasWidth
f9b:__ZL34GetComponentsImplementationRecurseILb1ELi0ELi1EEbR10GameObjectbRK17CompareParametersRK39GetComponentsImplementation_ReturnValue
R$i:__ZN6il2cpp2vm14PlatformInvoke30MarshalCSharpStringToCppStringEP12Il2CppString
u5i:__ZN6il2cpp2vm5Field10IsInstanceEP9FieldInfo
l5a:__ZN10VRSettings8TransferI18StreamedBinaryReadILb0EEEEvRT_
Ev:__ZN22AnimationMixerPlayable12MixerProcessEP35AnimationPlayableEvaluationConstantP32AnimationPlayableEvaluationInputP33AnimationPlayableEvaluationOutputM17AnimationPlayableFvS1_S3_S5_EPFvS1_S3_S5_ESA_PFvS5_S1_S3_S5_PN7mecanim16ValueArrayWeightEfEPFvS1_S3_S5_SD_fE
pzh:_InternalEnumerator_1_System_Collections_IEnumerator_get_Current_m1322273508_AdjustorThunk
mib:__ZN22LocalFileSystemHandler4NameEv
qoe:_Int64_TryParse_m3093198325
ySg:__Z145RuntimeInvoker_Void_t1841601450_RuntimeObject_RuntimeObject_RuntimeObject_Int32_t2071877448_Int32_t2071877448_Int32_t2071877448_Int32_t2071877448PFvvEPK10MethodInfoPvPS4_
XJi:__ZN6il2cpp2vm10ThreadPool5QueueEP14Il2CppDelegatePPvS3_P12Il2CppObject
dub:__Z19TransferField_ArrayI19StreamedBinaryWriteILb0EE27Converter_SimpleNativeClassI8GradientEEvRK23StaticTransferFieldInfoR31RuntimeSerializationCommandInfoRT0_
Wqe:_FileLoadException_ToString_m319701103
jte:_NullStream_Seek_m1809916110
Upc:__Z18Transfer_BlittableI8JSONReadLb0E12PropertyNameEvRK29SerializationCommandArgumentsR31RuntimeSerializationCommandInfo
JNd:_Delegate_SetMulticastInvoke_m361277268
a7c:_BaseInput_GetMouseButtonUp_m32571233
XCf:_EncoderReplacementFallbackBuffer_get_Remaining_m2777488845
A_a:__ZN7SubMesh8TransferI18StreamedBinaryReadILb0EEEEvRT_
qGf:_UTF8Encoding_GetCharCount_m3557355060
Vyh:_InternalEnumerator_1_System_Collections_IEnumerator_get_Current_m127456009_gshared
uhc:__ZNK19RectangleCellLayout9CellRoundERKN4Grid9GridStateERKN4math7_float3E
af:_emscripten_glIsEnabled
fwb:__ZN18StreamedBinaryReadILb1EE21TransferSTLStyleArrayI13dynamic_arrayIdLj8EEEEvRT_17TransferMetaFlags
gcc:__Z45Register_UnityEngine_GameObject_get_transformv
U$:__Z29scripting_class_instance_size17ScriptingClassPtr
prc:__Z29Transfer_Blittable_ArrayFieldI8JSONRead5RectTIiEEvRT_R9ArrayInfoRK23StaticTransferFieldInfo
Q3e:_Func_2_Invoke_m2929712329_gshared
$ff:_SslHandshakeHash_initializePad_m4132246594
OMh:_Context_get_HasExitSinks_m1233814330
nU:__ZN11UnityEngine15CloudWebService19SessionEventManager26ProcessEventQueueJobStaticEPv
zRh:_AnchorInfo_get_IsUnknownWidth_m3747592836
q_g:__Z99RuntimeInvoker_Void_t1841601450_Int32_t2071877448_Int32_t2071877448_Int32_t2071877448_RuntimeObjectPFvvEPK10MethodInfoPvPS4_
HU:__ZN11UnityEngine15CloudWebService19SessionEventManager37OnTimerExpiredPerformArchiveJobStaticEPv
Omc:__Z18Transfer_BlittableI9JSONWriteLb1E9BoundsIntEvRK29SerializationCommandArgumentsR31RuntimeSerializationCommandInfo
dYh:_DebugLogHandler_Internal_LogException_m4229368478
ZNa:__ZN10builtintex15GetWhiteTextureEv
$jj:__ZN6il2cpp6icalls8mscorlib6System10Reflection4Emit11DerivedType21create_unmanaged_typeEP20Il2CppReflectionType
Lxf:_FormatterConverter_ToInt32_m1004171952
k7:__Z29GetOcclusionPortalManagerListv
Aqd:_Array_System_Collections_IList_set_Item_m4290470392
swf:_RemotingConfiguration_RegisterActivatedServiceType_m4003543022
xfc:__Z39Register_UnityEngine_Sprite_get_texturev
eMh:_ConfigHandler_GetNotNull_m2454680251
Nzi:__ZL10rescale128PyS_Piiiii
BG:__ZN9AudioClip7WWWSeekEPvjS0_
gJb:__ZN8GUILayer14RenderGUILayerE5RectTIfEjR17ShaderPassContext
_X:__ZL32StaticInitializeIUnityInterfacesPv
WJb:__Z13CameraProjectRK8Vector3fRK10Matrix4x4fS4_RK5RectTIiERS_b
f7a:__ZN30RuntimeInitializeOnLoadManager15ClassMethodInfo8TransferI19StreamedBinaryWriteILb0EEEEvRT_
g4:__Z22CreateMutexLockedStackv
MJd:_DateTime_System_IConvertible_ToType_m3821835592
Wrf:_IntervalCollection_get_Item_m1667788970
ZEb:__ZNSt3__27__sort5IRNS_4lessIN22BuiltinResourceManager8ResourceEEEPS3_EEjT0_S7_S7_S7_S7_T_
bEf:_Latin1Encoding_GetByteCount_m2812921286
Neb:__ZN9ShaderLab11ShaderStateD2Ev
wMd:_Decimal_System_IConvertible_ToByte_m3432160840
WDf:_UTF7Encoding__ctor_m1941256679
HBb:__Z23TransferScriptingObjectI24GenerateTypeTreeTransferEvRT_18ScriptingObjectPtr17ScriptingClassPtrPK15MonoScriptCache
Oxf:_BinaryCommon__cctor_m3619690968
ywc:_UNITY_FT_Set_Pixel_Sizes
A4h:_X509Chain_FindCertificateRoot_m589250107
ePf:_Version_GetHashCode_m880841176
Yz:__ZN8Animator24SortJobsBasedOnHierarchyERK13dynamic_arrayINS_11AnimatorJobELj8EERS0_IS2_Lj4EE
Ltb:__ZL17Transfer_GUIStyleI19StreamedBinaryWriteILb0EELb0EEvRK29SerializationCommandArgumentsR31RuntimeSerializationCommandInfo
$hb:__ZNK12HandlerChain6TargetERK13FileEntryDataR15FileSystemEntry
bDf:_Encoding__ctor_m3985582722
Iyf:_ObjectManager_RaiseOnDeserializingEvent_m1841526046
B5c:_String_CreateString_m560359261
syc:_UNITY_FT_Init_Class_tt_service_get_cmap_info
rVc:_DSA_ToXmlString_m1014346120
a_c:_SHA256Managed__ctor_m1410575277
M1h:_Plane_Raycast_m3246912889_AdjustorThunk
TRd:_CompareInfo_internal_index_managed_m859405335
Ftd:_Boolean_System_IConvertible_ToDateTime_m2613818037_AdjustorThunk
ZIi:__ZNSt3__211__tree_nextIPNS_16__tree_node_baseIPvEEEET_S5_
H$e:_ReadOnlyCollection_1_System_Collections_IList_Clear_m2240307498_gshared
n3i:__ZN15dense_hashtableI10KeyWrapperIP18Il2CppGenericClassES3_N6il2cpp8metadata22Il2CppGenericClassHashEN14dense_hash_setIS3_S6_NS3_14EqualsComparerINS5_25Il2CppGenericClassCompareEEENSt3__29allocatorIS3_EEE8IdentityESA_SD_E14squash_deletedEv
Y5i:__ZN6il2cpp2vm11MethodStack17GetStackFramesRawEv
Jla:__ZN6prcoreL17RemapGenericFloatI17TexFormatRGBAHalf17TexFormatRGBFloatEEvPKNS_9InnerInfoE
_xf:_BinaryFormatter_NoCheckDeserialize_m1968202401
Ajd:_Graphic_CrossFadeAlpha_m4067047552
vYg:__Z92RuntimeInvoker_Void_t1841601450_RuntimeObject_RuntimeObject_Color32_t874517518_RuntimeObjectPFvvEPK10MethodInfoPvPS4_
lfc:__Z35Sprite_Get_Custom_PropPixelsPerUnitP12Il2CppObject
TFi:__ZNSt3__26__sortIRN6il2cpp5utils11collections13ArrayValueMapIPK10Il2CppType17Il2CppInteropData26InteropDataToTypeConverterNS1_8metadata14Il2CppTypeLessENSA_26Il2CppTypeEqualityComparerEE12SortComparerEPS8_EEvT0_SH_T_
i9a:__ZN11PreloadDataD2Ev
eUc:__ZN15DownloadHandler14ProcessHeadersERK9HeaderMap
Gtc:__ZNSt3__26vectorINS_4pairIifEE13stl_allocatorIS2_L18MemLabelIdentifier35ELi16EEE6assignINS_11__wrap_iterIPS2_EEEENS_9enable_ifIXaasr21__is_forward_iteratorIT_EE5valuesr16is_constructibleIS2_NS_15iterator_traitsISC_E9referenceEEE5valueEvE4typeESC_SC_
Yb:invoke_iifi
X0h:_MonoBehaviour_StopCoroutineViaEnumerator_Auto_m2222980381
W4f:__ZL79Hashtable_t909839986_CustomAttributesCacheGenerator_Hashtable__ctor_m3742489710P21CustomAttributesCache
pfh:_VertexHelper_AddUIVertexStream_m3599763288
zrh:_EqualityComparer_1_System_Collections_IEqualityComparer_Equals_m1565968086_gshared
R0d:_Array_InternalArray__set_Item_TisSlot_t2022531261_m3811041838_gshared
BKa:__ZN15SharedLightData15UpdateTransformERK9Transform
fYc:_RijndaelTransform__cctor_m1393306207
Xid:_Graphic_get_defaultMaterial_m1022773737
UBc:_UNITY_FT_Init_Class_pscmaps_interface
cdh:_Slider_OnDidApplyAnimationProperties_m3202463395
fyi:_TextGenerator_PopulateAlways_m817480435
xCf:_EncoderExceptionFallback__ctor_m3203614411
tkd:_GridLayoutGroup_SetLayoutVertical_m3233681648
bdc:__Z44Register_UnityEngine_RectOffset_get_verticalv
oLf:_Type_MakeGenericType_m973683242
Bij:__ZN6il2cpp2vm9LastError31InitializeLastErrorThreadStaticEv
L0b:__ZN13ProduceHelperI13RenderTextureLb0EE7ProduceE18MemLabelIdentifier18ObjectCreationMode
zoe:_Int64_ToString_m2785525583
aK:__ZN4FMOD6System17setSoftwareFormatEi17FMOD_SOUND_FORMATii18FMOD_DSP_RESAMPLER
vUf:_FieldBuilder_GetCustomAttributes_m291168515
Hza:__ZN15dense_hashtableINSt3__24pairIKN4core12basic_stringIcNS2_20StringStorageDefaultIcEEEEP20ArchiveStorageReaderEES6_20StringHash32FunctionIS6_EN14dense_hash_mapIS6_S9_SC_NS0_8equal_toIS6_EE13stl_allocatorISA_L18MemLabelIdentifier55ELi16EEE9SelectKeyESF_SI_E12expand_arrayEjN21dense_hash_map_traits17integral_constantIbLb0EEE
XZf:_MonoGenericCMethod__ctor_m2520666358
WYh:_InvokableCall_remove_Delegate_m3232269751
ch:_JS_SystemInfo_GetCurrentCanvasHeight
zwh:_InternalEnumerator_1_System_Collections_IEnumerator_get_Current_m1313308902_gshared
Muf:_ReturnMessage_get_OutArgs_m299904174
CQa:__ZNK8Material22GetTypeVirtualInternalEv
hkc:__Z34GUIStyle_Get_Custom_PropFixedWidthP12Il2CppObject
Pde:_RSAManaged_get_PublicOnly_m2603845138
MMd:_Decimal_System_IConvertible_ToSByte_m3745141000_AdjustorThunk
m8i:__ZN6il2cpp2gc16GarbageCollector11GetWeakLinkEPPv
Ixe:_MonoType_GetMethods_m353342170
EGg:__Z108RuntimeInvoker_Boolean_t3825574718_SByte_t454417549_RuntimeObject_Int32_t2071877448_ExceptionU26_t1467204777PFvvEPK10MethodInfoPvPS4_
J6i:__GLOBAL__sub_I_Console_cpp
zla:__ZN6prcoreL17RemapGenericFloatI14TexFormatRHalf17TexFormatRGBAHalfEEvPKNS_9InnerInfoE
VLi:__ZN6il2cpp2vm7Runtime11InvokeArrayEPK10MethodInfoPvP11Il2CppArrayPP15Il2CppException
Mhe:_GregorianCalendar_get_Eras_m4010603022
UPd:_Enum_System_IConvertible_ToUInt16_m1001858842
vnh:_Dictionary_2_make_pair_m394533803_gshared
TFc:_Dual_Project
xF:__ZN9AudioClip23VirtualRedirectTransferER14SafeBinaryRead
iVh:_AsyncOperation_t3814632279_marshal_pinvoke_back
Hoa:__ZN4gles20EnsureTextureCreatedEP7ApiGLESP17RenderSurfaceGLES
nqd:_LayoutRebuilder_U3CRebuildU3Em__2_m3239837417
HKb:__ZN15ReplacementPass13PrepareSubsetEjRK10RenderNodeifRK17ShaderReplaceData
NMd:_Decimal_System_IConvertible_ToSingle_m1736019752
SK:__Z32AudioMeasurement_GetTimeConstantff
h9i:__ZN6il2cpp8metadata11FieldLayout12LayoutFieldsEjjjRKNSt3__26vectorIPK10Il2CppTypeNS2_9allocatorIS6_EEEERNS1_15FieldLayoutDataE
Kqg:__ZL54ContextMenu_t2283362202_CustomAttributesCacheGeneratorP21CustomAttributesCache
oSb:__ZL27PrepareSceneNodesJobCombineP25ScheduleSceneNodesJobData
Ure:_Stream_EndWrite_m263497992
Owd:_Char_Parse_m2121403806
G9:__ZN13GfxDeviceGLESD2Ev
G5:__ZN18AsyncUploadManager13StaticDestroyEPv
GTf:_EnumBuilder_GetConstructorImpl_m331611313
uab:__ZN6Shader7SetNameEPKc
$fd:_DefaultControls_SetParentAndAlign_m3048898502
LVb:__ZN19CustomRenderTexture22HandleBoundaryWrappingERKNS_14UpdateZoneInfoEj
VIi:__ZN6il2cpp2vm13MetadataCache32GenerateCustomAttributeTypeCacheEi
Pof:_X509Chain__cctor_m826131835
g1h:_PlayerConnection_CreateInstance_m2419948763
aci:_Transform_GetEnumerator_m1156558734
rz:__ZNK11UnityEngine9Animation30GenericBindingValueArrayUniqueclERKNS0_14GenericBindingES4_
ysd:_ArrayTypeMismatchException__ctor_m1923871345
SBf:_CspParameters__ctor_m3051314030
xwa:__ZNK15dense_hashtableINSt3__24pairIKNS1_I9UnityGUIDxEE15SpriteAtlasDataEES3_23SpriteRenderDataKeyHashN14dense_hash_mapIS3_S5_S7_NS0_8equal_toIS3_EE13stl_allocatorIS6_L18MemLabelIdentifier81ELi16EEE9SelectKeyESA_SD_E23find_position_with_hashERS4_j
Gfi:_GUILayoutEntry_set_style_m864176480
Mbi:_Transform_INTERNAL_set_localRotation_m1514748659
YFc:_Direct_Move_Y
WFc:_Direct_Move_X
Ynf:_X509ChainElement_Set_m2634474339
Btd:_Boolean_System_IConvertible_ToByte_m1443044213_AdjustorThunk
yi:_glClearDepthf
A0b:__ZN19SkinnedMeshRenderer7GetMeshEv
ehb:__ZN19RuntimeSceneManager14GetActiveSceneEv
_Eb:__ZNSt3__218__insertion_sort_3IRNS_4lessIN22BuiltinResourceManager8ResourceEEEPS3_EEvT0_S7_T_
sLi:__ZN6il2cpp6icalls8mscorlib6SystemL8IsStaticEPK9EventInfo
Mcc:__Z29RectOffset_Set_Custom_PropTopP12Il2CppObjecti
slf:_WebRequest__ctor_m1537196628
DQb:__ZNSt3__27__sort4IR15ReflProbeSorterPP15ReflectionProbeEEjT0_S6_S6_S6_T_
y9d:_BigInteger_op_Equality_m366854173
cKa:__ZN16GraphicsSettings10SmartResetEv
z5b:__ZN19StreamedBinaryWriteILb0EE4InitE24TransferInstructionFlags20BuildTargetSelection
J6g:_MaskableGraphic_Cull_m3130802047
Kef:_RecordProtocol_MapV2CipherCode_m4064211604
QVd:_Enumerable_Where_TisRuntimeObject_m1140705402_gshared
Z5c:_ASCIIEncoding_GetByteCount_m2696039881
xef:_ReceiveRecordAsyncResult_SetComplete_m2441107665
kNa:__ZN20SphericalHarmonicsL28TransferI19StreamedBinaryWriteILb0EEEEvRT_
led:_CanvasUpdateRegistry_InternalUnRegisterCanvasElementForLayoutRebuild_m3740187734
M$b:__ZNK28RectTransformPropertyBinding9BindValueER6ObjectRKN11UnityEngine9Animation14GenericBindingERNS3_10BoundCurveE
aTf:_DerivedType_get_AssemblyQualifiedName_m2010127631
P1a:__ZN4Mesh14UploadMeshDataEb
a0d:_Array_InternalArray__Insert_TisMonoResource_t3127387157_m2580914422_gshared
ZAh:_InternalEnumerator_1_System_Collections_IEnumerator_get_Current_m4023948615_AdjustorThunk
XQb:__ZN14qsort_internal5QSortIP16RenderObjectDatai25RenderPrePassObjectSorterEEvT_S4_T0_T1_
phe:_ArgIterator_Equals_m2415994310
rTg:__Z85RuntimeInvoker_Char_t3454481338_RuntimeObject_Int32U26_t455636984_CharU26_t1894467670PFvvEPK10MethodInfoPvPS4_
P0b:__ZN14RenderSettings12CleanupClassEv
tfc:__Z43DataUtility_CUSTOM_INTERNAL_CALL_GetPaddingP12Il2CppObjectR8Vector4f
oN:__ZN21AudioScriptingClasses26InvokeOnAudioManagerUpdateEP21ScriptingExceptionPtr
Mia:__ZN18AsyncUploadManager15DoDeCruncherJobEP26FileAssetUploadInstruction
Eca:__ZN9GfxDevice15ImmediateNormalEfff
$Cf:_EncoderReplacementFallbackBuffer_GetNextChar_m1811006007
Orb:__ZN13GUIStyleState8TransferI24GenerateTypeTreeTransferEEvRT_
W1:__ZN20dynamic_block_vectorI14FileIdentifierE22push_back_no_constructEv
V$a:__ZN9Texture3D23VirtualRedirectTransferER14SafeBinaryRead
NEf:_StringBuilder_Append_m1462406979
ccb:__ZNSt3__26vectorIN9ShaderLab20SerializedSubProgram16TextureParameterENS_9allocatorIS3_EEE8__appendEj
GVa:__ZN9Texture2D13UploadTextureEi
GDf:_Type_GetType_m773255995
w0h:_Mesh_ClearImpl_m2894829935
DEc:_cff_get_cid_from_glyph_index
api:_PCMSetPositionCallback_Invoke_m1437833149
O7g:_RawImage__ctor_m527845386
bK:__ZN4FMOD6System19setSoftwareChannelsEi
h1d:_Array_InternalArray__set_Item_TisResourceCacheItem_t333236149_m2074358118_gshared
fhh:_Enumerator_MoveNext_m3349738440_gshared
Amf:_X500DistinguishedName_DecodeRawData_m3640767187
iHf:_Monitor_Monitor_wait_m3813798368
rTd:_Array_InternalArray__ICollection_Contains_TisDouble_t4078015681_m2262383923_gshared
gud:_Boolean_System_IConvertible_ToUInt64_m3594533761
a$g:__Z85RuntimeInvoker_Boolean_t3825574718_SpriteStateU26_t1330646292_SpriteState_t1353336012PFvvEPK10MethodInfoPvPS4_
Ndc:__Z60Register_UnityEngine_Input_INTERNAL_set_compositionCursorPosv
Awg:__ZL51Collider_t3497673348_CustomAttributesCacheGeneratorP21CustomAttributesCache
c9d:_BigInteger_get_Rng_m1268152318
Eqj:dynCall_viiiii
nLg:__Z90RuntimeInvoker_Boolean_t3825574718_RuntimeObject_RuntimeObject_RuntimeObject_RuntimeObjectPFvvEPK10MethodInfoPvPS4_
Jqj:dynCall_viiiif
xZf:_MonoEvent_IsDefined_m3151861274
$Wf:_PropertyBuilder_GetCustomAttributes_m1029078269
dBc:_Cubic_To
Eaf:_TlsStream_WriteInt24_m1660453494
gbc:__Z44Register_UnityEngine_Camera_get_farClipPlanev
Cq:__Z25InverseTransformDirection23TransformAccessReadOnlyRKN4math7_float3Eb
jO:__ZNK12AudioManager15GetDSPBlockSizeEv
B4a:__ZNK17IAnimationBinding30CurveAttributeToSerializedPathERKN11UnityEngine9Animation10BoundCurveE
UVg:__Z87RuntimeInvoker_Color_t2020392075_Color_t2020392075_Color_t2020392075_Single_t2076509932PFvvEPK10MethodInfoPvPS4_
O4i:__ZN6il2cpp2gc16GarbageCollector14GetOrCreateCCWEP12Il2CppObjectRK10Il2CppGuid
Q2i:__ZN6il2cpp2vm5Image21FromTypeNameParseInfoEPK11Il2CppImageRKNS0_17TypeNameParseInfoEb
oga:__ZN17BufferManagerGLES13AcquireBufferEjN14DataBufferGLES11BufferUsageEb
PDd:_Console_OpenStandardError_m3676373108
Mve:_UnmanagedMemoryStream_SetLength_m1805321486
Ibf:_Context_get_ProtocolNegotiated_m624488778
ssd:_SimpleEnumerator_MoveNext_m1696906961
SRc:__ZN16UnityAdsSettingsD0Ev
vcf:_Context_StartSwitchingSecurityParameters_m373522596
e$f:_MonoProperty_GetRequiredCustomModifiers_m576853384
sha:__ZNK7ApiGLES10DebugLabelEN2gl10ObjectTypeEjPKc
uYd:_Array_InternalArray__IndexOf_TisInt16_t4041245914_m1619355230_gshared
nXd:__ZN21InterfaceFuncInvoker2Ii18Color32_t874517518S0_E6InvokeEjP11Il2CppClassP12Il2CppObjectS0_S0_
Ooj:__ZNK10__cxxabiv121__vmi_class_type_info16search_below_dstEPNS_19__dynamic_cast_infoEPKvib
Gne:_Int64_System_IConvertible_ToDateTime_m1002280174
Jga:__ZN19ConstantBuffersGLES13SetCBConstantEiiPKvi
JEd:_Convert_ToByte_m9159597
u4h:_X509Store_BuildCertificatesCollection_m4224672591
ufc:__Z38DataUtility_CUSTOM_Internal_GetMinSizeP12Il2CppObjectP13Vector2fIcall
z4b:__ZN8PlayableC2E17ScriptingClassPtr18DirectorPlayerType
KIh:_ResourceEnumerator_get_Key_m1012797265
Gle:_NumberFormatter_FormatPercent_m776769918
NMi:_il2cpp_class_has_attribute
yIf:_Scheduler_ShrinkIfNeeded_m2186823111
x8e:_Alert_get_IsCloseNotify_m577852330
p0:__Z27FindOrCreateMonoScriptCache17ScriptingClassPtr22InitScriptingCacheTypeP6Objecti
Exb:__Z18Transfer_BlittableI18StreamedBinaryReadILb0EELb1E8Vector3fEvRK29SerializationCommandArgumentsR31RuntimeSerializationCommandInfo
OKc:__ZN2UI14CanvasRenderer13SyncVertexPtrER8JobFenceNS0_8SyncFlagE
H0:__Z35scripting_method_get_argument_count18ScriptingMethodPtr
tya:__ZN18AssetBundleManager18SortPreloadObjectsER13dynamic_arrayIiLj4EEb
JLf:_UInt16_System_IConvertible_ToChar_m4055364664_AdjustorThunk
hdi:_Vector3_SqrMagnitude_m3835019255
pcc:__Z20Gradient_CUSTOM_InitP12Il2CppObject
Jkc:__Z48Register_UnityEngine_GUIUtility_Internal_ExitGUIv
NWi:__ZN14dense_hash_mapI10KeyWrapperINSt3__24pairIPK9FieldInfoP11Il2CppClassEEEj17ReflectionMapHashIS8_ENS9_14EqualsComparerINS1_8equal_toIS8_EEEENS1_9allocatorINS2_IKS9_jEEEEE15set_deleted_keyERSH_
K3h:_X509Certificate_get_RawData_m1262574599
Rud:_Byte_System_IConvertible_ToDouble_m4224320007
sSb:__ZL21CullDynamicObjectsJobP14CullingJobDataj
RIc:__ZN2UI15ClearCanvasDataER8JobFenceRNS_10CanvasDataE
qkf:_IPAddress_ToString_m1462985652
qYf:_MethodBase_GetMethodFromHandleNoGenericCheck_m4274264088
tkh:_ValueCollection_System_Collections_Generic_ICollectionU3CTValueU3E_Clear_m3471385195_gshared
Lgh:_Enumerator_get_CurrentKey_m1408186928_AdjustorThunk
uWb:__ZN14ManagerContext17InitializeClassesEv
d7g:_MaskUtilities_GetRectMasksForClip_m1540508301
Wxa:__ZN19StreamedBinaryWriteILb0EE21TransferSTLStyleArrayINSt3__26vectorI14ConstantStringNS2_9allocatorIS4_EEEEEEvRT_17TransferMetaFlags
St:__ZN7mecanim5human20MaskHasRightFootGoalERKNS_6bitsetILj70EEE
Vvb:__ZN18StreamedBinaryReadILb1EE21TransferSTLStyleArrayI31ArrayOfManagedObjectsTransfererEEvRT_17TransferMetaFlags
eEe:_List_1_System_Collections_IList_IndexOf_m406088260_gshared
nPf:_WeakReference_get_Target_m1672141897
J9d:_Kernel_DwordDivMod_m4066997639
GBc:_t1_hints_open
FOc:__ZN11UnityEngine15PlatformWrapper24GetVRTrackedAreaGeometryER13dynamic_arrayI8Vector3fLj4EE
XRg:__Z68RuntimeInvoker_Boolean_t3825574718_DateTime_t693205669_RuntimeObjectPFvvEPK10MethodInfoPvPS4_
L$c:_X509Certificate_GetCertHash_m2299453268
kXc:_MD5CryptoServiceProvider__ctor_m457716966
iTd:_Array_InternalArray__ICollection_Contains_TisKeyValuePair_2_t888819835_m3819112676_gshared
$Gd:_Decimal_s64_m2965457432
mrf:_IntStack_set_Count_m2324758988_AdjustorThunk
tUc:__ZN22UnityWebRequestManager21CreateUnityWebRequestEv
XI:__ZN4FMOD7Channel11getUserDataEPPv
z8h:_RectTransform_INTERNAL_set_anchorMax_m4173108796
Jyc:_UNITY_tt_face_load_gasp
pZg:__Z150RuntimeInvoker_RuntimeObject_RuntimeObject_Int32_t2071877448_Int32_t2071877448_Int32_t2071877448_Int32_t2071877448_Int32_t2071877448_Int32_t2071877448PFvvEPK10MethodInfoPvPS4_
g$e:_ReadOnlyCollection_1_System_Collections_IList_Insert_m3650067527_gshared
Kof:_X509Chain__ctor_m2243818698
fwc:_ft_ansi_stream_close
bm:_JS_Sound_SetPitch
PBg:__ZL69InputField_t1631627530_CustomAttributesCacheGenerator_m_TextComponentP21CustomAttributesCache
BNi:_il2cpp_runtime_invoke_convert_args
Wqc:__Z19TransferField_ArrayI8JSONRead27Converter_SimpleNativeClassI10RectOffsetEEvRK23StaticTransferFieldInfoR31RuntimeSerializationCommandInfoRT0_
XHh:_Enumerator_get_CurrentKey_m447338908_AdjustorThunk
Faf:_Context_get_SecurityProtocol_m1600902905
Q_i:__ZN6il2cpp6icalls8mscorlib6System2IO6MonoIO11GetFileStatEP12Il2CppStringPNS3_8FileStatEPi
nda:__ZN9GfxDevice33InsertCustomMarkerCallbackAndDataEPFviPvEiS0_j
sSc:__ZN11UnityEngine15PlatformWrapper16GenerateRandomIdEv
JKb:__ZNK9ShaderLab9IntShader6GetTagE11ShaderTagIDb
PPb:__Z25CalculateShadowCasterCullbPK5PlaneRK10Matrix4x4fRK8Vector3fff9LightTypeS7_R16ShadowCasterCullPKb
hMi:_il2cpp_get_corlib
xWc:_HMAC_HashCore_m1869699062
QPf:_Assembly_GetTypes_m1317253146
Jke:_Int16_System_IConvertible_ToType_m2901377575_AdjustorThunk
Tne:_Int64_System_IConvertible_ToSByte_m253213816_AdjustorThunk
ELc:__ZN2UI14CanvasRenderer11SetMaterialEP8Materiali
Lad:_MouseState_SetButtonState_m2329922363
Iqe:_FileStream__ctor_m3815606687
cdj:_GC_freehblk
mle:_NumberFormatter_NumberToString_m668979517
z2e:_ReadOnlyCollection_1_System_Collections_IList_Remove_m2507730234_gshared
XFb:__Z36GiveDebuggerChanceToAttachIfRequiredv
Yjh:_Enumerator_System_Collections_IEnumerator_Reset_m2482663638_gshared
n9b:__ZN9Scripting35DestroyObjectFromScriptingImmediateEP6Objectb
hTb:__ZNK6Camera48AreVRStereoViewMatricesWithinSingleCullToleranceEv
ptg:__ZL53Rigidbody2D_t502193897_CustomAttributesCacheGeneratorP21CustomAttributesCache
Nvf:_RemotingServices_GetRemoteObject_m3663391550
exj:_glGetRenderbufferParameteriv__wrapper
bPe:_Queue_1_Peek_m1224538505_gshared
eNg:__Z105RuntimeInvoker_RuntimeObject_Int32_t2071877448_RuntimeObject_RuntimeObject_RuntimeObject_SByte_t454417549PFvvEPK10MethodInfoPvPS4_
yYd:_Array_InternalArray__IndexOf_TisRuntimeObject_m2440219229_gshared
Fsi:__ZL25UnresolvedVirtualCall_122P12Il2CppObject23PropertyName_t217228410fPK10MethodInfo
pc:invoke_iiiiiiiiiiiiiii
N5e:_ASN1_Add_m1528660622
Hzj:_emscripten_glIsRenderbuffer__wrapper
LDi:__ZN15dense_hashtableINSt3__24pairIK10KeyWrapperIPK11Il2CppClassEPKcEES6_N6il2cpp5utils11PointerHashIS3_EEN14dense_hash_mapIS6_S9_SE_NS6_14EqualsComparerINS0_8equal_toIS5_EEEENS0_9allocatorISA_EEE9SelectKeyESJ_SL_E9copy_fromERKSO_j
fJc:__ZN2UI11CanvasGroup8TransferI19StreamedBinaryWriteILb0EEEEvRT_
Gwb:__Z29Transfer_Blittable_ArrayFieldI18StreamedBinaryReadILb1EE5RectTIiEEvRT_R9ArrayInfoRK23StaticTransferFieldInfo
LLa:__ZNK20IntermediateRenderer8GetLayerEv
MLi:__ZN6il2cpp5utils9PathUtils7CombineIcEENSt3__212basic_stringIT_NS3_11char_traitsIS5_EENS3_9allocatorIS5_EEEERKSA_RKNS0_10StringViewIS5_EE
BYa:__ZN15QualitySettings8TransferI14SafeBinaryReadEEvRT_
DDi:__ZN14dense_hash_mapI10KeyWrapperIPK11Il2CppClassEPKcN6il2cpp5utils11PointerHashIS1_EENS4_14EqualsComparerINSt3__28equal_toIS3_EEEENSC_9allocatorINSC_4pairIKS4_S6_EEEEE13set_empty_keyERSI_
R9h:_SendMouseEvents_SendEvents_m1854997939
Snb:__ZN14SafeBinaryRead21TransferSTLStyleArrayI13dynamic_arrayIxLj8EEEEvRT_17TransferMetaFlags
xue:_StringReader_CheckObjectDisposedException_m3099453260
Zhf:_ListDictionary_System_Collections_IEnumerable_GetEnumerator_m2244736244
$2i:__ZNSt3__26vectorIN6il2cpp2vm5Image20EmbeddedResourceDataENS_9allocatorIS4_EEE21__push_back_slow_pathIS4_EEvOT_
gX:__GLOBAL__sub_I_runtime_utilities_0_cpp
gij:__ZN6il2cpp2os9FastMutexD2Ev
ZYg:__Z97RuntimeInvoker_Void_t1841601450_SByte_t454417549_SByte_t454417549_Int32_t2071877448_RuntimeObjectPFvvEPK10MethodInfoPvPS4_
UXd:_Array_IndexOf_TisCustomAttributeTypedArgument_t1498197914_m3666284377_gshared
jae:_Kernel_AddSameSign_m2332657679
KXh:_Cursor_get_lockState_m300851107
A$:__ZN14SerializedFile10ReadObjectEx18ObjectCreationModebPPK8TypeTreePbR6Object
pQe:_Collection_1_System_Collections_IList_IndexOf_m3460849589_gshared
F6b:__ZN4Mesh12SetIndexDataEiiPKv16GfxPrimitiveTypei
bFb:__ZN14dynamic_bitset6resizeEjb
u7c:_BaseInputModule_FindCommonRoot_m2696088443
rS:__ZN11UnityEngine15CloudWebService10RestClientINS0_23WebRequestRestHeaderMapEE7SetDataEPKhj
TA:__ZN7mecanim8skeleton16SkeletonPoseCopyIN4math4trsXES3_EEvPKNS0_13SkeletonPoseTIT_EEPNS4_IT0_EE
EDi:__ZN14dense_hash_mapI10KeyWrapperIPK11Il2CppClassEPKcN6il2cpp5utils11PointerHashIS1_EENS4_14EqualsComparerINSt3__28equal_toIS3_EEEENSC_9allocatorINSC_4pairIKS4_S6_EEEEE15set_deleted_keyERSI_
$9:__ZN9GfxDevice34SetStencilRefWhenStencilWasSkippedEi
OPc:__ZN11UnityEngine7Connect13ConnectConfig20RestoreTimeoutConfigERK13dynamic_arrayIiLj4EEjRS3_
oc:invoke_fi
ehj:__ZN6il2cpp6icalls8mscorlib6System10Reflection4Emit11TypeBuilder20create_runtime_classEP27Il2CppReflectionTypeBuilderS7_
rW:__ZL21InternalAssertConsolePKcz
L5:__ZN18AsyncUploadManagerC2E18MemLabelIdentifier
mc:invoke_ff
xd:_emscripten_glVertexAttrib3f
gTi:__ZN30dense_hashtable_const_iteratorINSt3__24pairIK10KeyWrapperINS1_IPK11Il2CppImageP11Il2CppClassEEEjEES9_17ReflectionMapHashIS8_EN14dense_hash_mapIS9_jSD_NS9_14EqualsComparerINS0_8equal_toIS8_EEEENS0_9allocatorISB_EEE9SelectKeyESI_SK_EppEv
H7h:_Rect_set_yMax_m1836907767_AdjustorThunk
vwd:_Char_CompareTo_m3044885427
QIe:_List_1_System_Collections_IList_IndexOf_m2887559165_gshared
Fkh:_ValueCollection__ctor_m1825701219_gshared
ouc:__ZN20TextRenderingPrivate8TextMesh11ApplyToMeshEv
m8g:_GetRaycastNonAllocCallback_Invoke_m106496059
_sj:_emscripten_glDrawRangeElements__wrapper
hzi:_CanvasRenderer_set_popMaterialCount_m3475132987
_Ia:__Z28scripting_class_is_valuetype17ScriptingClassPtr
LYb:__ZNSt3__25dequeI10InputEventNS_9allocatorIS1_EEE19__add_back_capacityEv
IBe:_Enumerator_System_Collections_IEnumerator_Reset_m336811426_AdjustorThunk
iqa:__ZN13ComputeShader13SetValueParamERKN9ShaderLab16FastPropertyNameEiPKv
U1a:__ZN14BlendShapeDataD2Ev
QIi:__ZN6il2cpp2vm13MetadataCache25GetIndexForTypeDefinitionEPK11Il2CppClass
Mma:__ZL18ProgramUniform3uivPK7ApiGLESjiihPKv
Qsd:_Attribute_IsDefined_m1350918959
lMc:__Z47CanvasRenderer_Set_Custom_PropHasPopInstructionP12Il2CppObjecth
P_f:_MonoProperty_get_DeclaringType_m4236036432
uma:__ZN5Image8SetImageEii13TextureFormatb
Z0:__ZN17MessageIdentifier21GetRegisteredMessagesEv
Uth:_U3CGetEnumeratorU3Ec__Iterator0_System_Collections_IEnumerator_get_Current_m480171694_gshared
YTd:_Array_InternalArray__ICollection_Contains_TisContentType_t1028629049_m2321684690_gshared
RU:__Z13RegisterClassI23CloudWebServicesManagerEvv
S1i:__GLOBAL__sub_I_Image_cpp
dwe:_Math_Sin_m2320256962
K1e:_ReadOnlyCollection_1_System_Collections_Generic_IListU3CTU3E_Insert_m2409570138_gshared
bIe:_List_1_Add_m2123823603_gshared
$Ra:__ZNSt3__27__sort5IRPFbRKNS_4pairIN9ShaderLab16FastPropertyNameEfEES6_EPS4_EEjT0_SB_SB_SB_SB_T_
Vcd:_CanvasUpdateRegistry__ctor_m4037208045
Bei:_Event_Finalize_m270300156
r9i:__ZN14dense_hash_mapI10KeyWrapperIPK19Il2CppGenericMethodEP10MethodInfoN6il2cpp8metadata23Il2CppGenericMethodHashENS4_14EqualsComparerINS8_26Il2CppGenericMethodCompareEEENSt3__29allocatorINSD_4pairIKS4_S6_EEEEE15set_deleted_keyERSG_
cob:__Z29Transfer_Blittable_ArrayFieldI14SafeBinaryRead4AABBEvRT_R9ArrayInfoRK23StaticTransferFieldInfo
i$e:_ReadOnlyCollection_1_System_Collections_IList_RemoveAt_m2396335261_gshared
iih:_Transform_1_Invoke_m2675095773_gshared
Ogd:_Dropdown_set_captionImage_m1952025570
Vxg:__ZL56g_UnityEngine_UI_Assembly_CustomAttributesCacheGeneratorP21CustomAttributesCache
Kde:_RSAManaged_remove_KeyGenerated_m452989252
adc:__Z46Register_UnityEngine_RectOffset_get_horizontalv
lTa:__ZN18DelayedCallManager8ClearAllEv
PWb:__ZN17PersistentManagerC2E18MemLabelIdentifierii
_dc:__Z22Mesh_CUSTOM_HasChannelP12Il2CppObject30InternalScriptingShaderChannel
l_i:__ZN6il2cpp2os8AutoLockD2Ev
hRb:__ZNK25RenderPrePassObjectSorterclERK16RenderObjectDataS2_
ewb:__Z22TransferField_NonArrayI18StreamedBinaryReadILb1EE27Converter_SimpleNativeClassI8GUIStyleEEvRK23StaticTransferFieldInfoR31RuntimeSerializationCommandInfoRT0_
ke:_Mix_LoadWAV_RW
egi:_GUIStyle_set_stretchWidth_m281327581
xP:__Z45AudioSource_Get_Custom_PropSpatializeInternalP12Il2CppObject
Toa:__Z13IsFloatFormat14GraphicsFormat
$q:__ZNSt3__27__sort4IRNS_6__lessIN11UnityEngine9Animation13CachedBindingES4_EEPS4_EEjT0_S8_S8_S8_T_
Y3i:__ZN6il2cpp2gcL12alloc_handleEPNS0_10HandleDataEP12Il2CppObjectb
Twj:_emscripten_glGetAttribLocation__wrapper
Xdd:_CanvasScaler_HandleConstantPhysicalSize_m687057631
wNi:_il2cpp_object_get_virtual_method
wRb:__Z13InitIndexListR9IndexListj
Efe:_PKCS12_Encrypt_m1401341763
Z1:__ZL16ReadTypeTreeImplILb1EEbR8TypeTreeRK16TypeTreeIteratorRPKhS6_i
Ce:_glBlendEquationSeparate
i_c:_SHA384_Create_m1970724783
lm:_emscripten_glDeleteVertexArrays
Hda:__ZN13GfxDeviceGLES17SetComputeUniformE12ObjectHandleI18ComputeProgram_TagPvER18ComputeShaderParamjPKv
pyj:b95
Vyj:_emscripten_glValidateProgram__wrapper
O6b:__ZN13MeshScripting27PrintErrorCantAccessChannelEPK4Mesh30InternalScriptingShaderChannel
Ice:_SmallXmlParser_ReadComment_m1117342068
Je:_emscripten_glUniform3fv
rQa:__ZN9ShaderLab7Program14RemoveVariantsERK13dynamic_arrayI16ShaderKeywordSetLj4EE
x$i:__ZN6il2cpp2vm9Exception20GetArgumentExceptionEPKcS3_
hsc:__Z29Transfer_Blittable_ArrayFieldI8JSONReadiEvRT_R9ArrayInfoRK23StaticTransferFieldInfo
dxj:_glDrawArrays__wrapper
WN:__ZN9AudioClip27IsFormatSupportedByPlatformERKN4core12basic_stringIcNS0_20StringStorageDefaultIcEEEE
$Ta:__ZN29SerializeTraitsForStringTypesIN4core12basic_stringIcNS0_20StringStorageDefaultIcEEEEE8TransferI24GenerateTypeTreeTransferEEvRS4_RT_
jdb:__ZN9ShaderLab26SerializedShaderDependency8TransferI24GenerateTypeTreeTransferEEvRT_
qIg:__Z92RuntimeInvoker_RuntimeObject_RuntimeObject_Int32_t2071877448_Int32_t2071877448_RuntimeObjectPFvvEPK10MethodInfoPvPS4_
bzc:_UNITY_FT_Match_Size
Med:_ColorBlock_Equals_m738243050
kv:__ZN7mecanim20CreateValueArrayMaskEPKNS_18ValueArrayConstantERNS_6memory9AllocatorE
gnj:_free
Cif:_NameObjectCollectionBase_GetEnumerator_m646294968
MVh:_Bounds_set_size_m4260584766_AdjustorThunk
GOc:__ZN11UnityEngine7Connect14AppUpdateEventC2Ev
JIa:__ZN12ImageFilters17RemoveImageFilterERK11ImageFilter
bqi:_AudioSettings_InvokeOnAudioConfigurationChanged_m4035594278
oda:__ZN9GfxDevice31InsertCustomBlitCallbackAndDataEPFviPvER33UnityRenderingExtCustomBlitParams
_Fb:__Z32AddPathRemapsForBuiltinResourcesRKN4core12basic_stringIcNS_20StringStorageDefaultIcEEEE
Z9h:_HitInfo_SendMessage_m3395411273_AdjustorThunk
Dbe:_DSAManaged_remove_KeyGenerated_m61544860
wpb:__ZL26Transfer_SimpleNativeClassI17RemapPPtrTransfer17AnimationCurveTplIfELb0EEvRK29SerializationCommandArgumentsR31RuntimeSerializationCommandInfo
h2h:_KeyUsageExtension_Decode_m4115739726
nm:_glDeleteTransformFeedbacks
of:_JS_WebRequest_Send
icj:__ZN6il2cpp2os4Time31GetTicks100NanosecondsMonotonicEv
C7i:__ZNSt3__26__treeINS_12basic_stringIcNS_11char_traitsIcEENS_9allocatorIcEEEENS_4lessIS6_EENS4_IS6_EEE16__construct_nodeIJRKS6_EEENS_10unique_ptrINS_11__tree_nodeIS6_PvEENS_22__tree_node_destructorINS4_ISH_EEEEEEDpOT_
BDd:_Stack_Clear_m771767447
Yne:_Int64_System_IConvertible_ToUInt16_m2638682734
X9f:__ZL102ChannelServices_t2007814595_CustomAttributesCacheGenerator_ChannelServices_RegisterChannel_m3832858065P21CustomAttributesCache
zQc:__ZN18UnityConnectClient32OnVrControllerStateChangedStaticEPS_13dynamic_arrayIN4core12basic_stringIcNS2_20StringStorageDefaultIcEEEELj4EE
poj:__ZNK10__cxxabiv117__class_type_info24process_found_base_classEPNS_19__dynamic_cast_infoEPvi
Xvi:_Nullable_1_Equals_m1889119397_AdjustorThunk
Xyi:_CanvasRenderer_INTERNAL_CALL_SetColor_m1064368306
XIi:__ZN6il2cpp2vm13MetadataCache21GetFieldInfoFromIndexEj
z8g:_Raycast2DCallback_BeginInvoke_m4219004388
aaj:__GLOBAL__sub_I_String_cpp
cif:_ListDictionary_FindEntry_m432748847
hq:__ZNSt3__26vectorIN4core12basic_stringIcNS1_20StringStorageDefaultIcEEEENS_9allocatorIS5_EEE6assignINS_11__wrap_iterIPS5_EEEENS_9enable_ifIXaasr21__is_forward_iteratorIT_EE5valuesr16is_constructibleIS5_NS_15iterator_traitsISE_E9referenceEEE5valueEvE4typeESE_SE_
cMi:_il2cpp_init
y$h:_Mathf_Cos_m3039455602
vIc:__ZNSt3__26__treeIPN2UI14CanvasRendererENS_4lessIS3_EENS_9allocatorIS3_EEE7destroyEPNS_11__tree_nodeIS3_PvEE
YKg:__Z176RuntimeInvoker_Boolean_t3825574718_RuntimeObject_Int32U26_t455636984_Int32_t2071877448_Int32_t2071877448_Int32_t2071877448_RuntimeObject_SByte_t454417549_ContextU26_t3131521781PFvvEPK10MethodInfoPvPS4_
aca:__ZN13GfxDeviceGLES22UploadTextureSubData2DE9TextureIDPKhiiiiii14GraphicsFormat
ofi:_GUILayoutEntry__ctor_m3585399294
Ecc:__Z35Register_UnityEngine_Screen_get_dpiv
pVi:__ZNK15dense_hashtableINSt3__24pairIK10KeyWrapperIPK14Il2CppAssemblyEPK22Il2CppMonoAssemblyNameEES6_N6il2cpp5utils11PointerHashIS4_EEN14dense_hash_mapIS6_SA_SF_NS6_14EqualsComparerINS0_8equal_toIS5_EEEENS0_9allocatorISB_EEE9SelectKeyESK_SM_E5beginEv
zqc:__ZN8JSONRead8TransferIxEEvRT_PKc17TransferMetaFlagsb
jtc:__ZN13SpeedTreeWind7AdvanceEbd
qne:_Int32_TryParse_m2941352213
Yfa:__ZN18GlslGpuProgramGLES19ApplyGpuProgramGLESERK20GpuProgramParametersPKh
i8b:__ZN9Transform16SetLocalPositionERK8Vector3f
Rkd:_LayoutGroup_GetTotalMinSize_m2600700952
gZb:__ZN10BootConfig4Data12InitFromFileEPPKcjS2_
Bxb:__Z15Transfer_StringI18StreamedBinaryReadILb0EELb0EEvRK29SerializationCommandArgumentsR31RuntimeSerializationCommandInfo
JJ:__ZN12SoundManagerC2Ev
Hyc:_UNITY_tt_face_free_name
n5b:__ZN17TransformInternal24AddTransformSubhierarchyER18TransformHierarchyjS1_RjS2_yb
e3d:_Array_Sort_TisUICharInfo_t3056636800_m37864585_gshared
f9:__ZN15dense_hashtableINSt3__24pairIKN4core12basic_stringIcNS2_20StringStorageDefaultIcEEEE10vector_setI4PPtrI11SpriteAtlasENS0_4lessISB_EE13stl_allocatorISB_L18MemLabelIdentifier81ELi16EEEEES6_20StringHash32FunctionIS6_EN14dense_hash_mapIS6_SH_SK_NS0_8equal_toIS6_EESE_ISI_LSF_81ELi16EEE9SelectKeyESN_SO_E4swapERSR_
Mxj:_emscripten_glGetUniformfv__wrapper
Gna:__ZN14DataBufferGLES3MapEjjj
FCh:_InternalEnumerator_1_System_Collections_IEnumerator_get_Current_m771161214_gshared
Ao:FUNCTION_TABLE_fidi
_xj:_emscripten_glGetShaderiv__wrapper
M_b:__Z13RegisterClassI9TransformEvv
NRa:__ZN18UnityPropertySheet11UnityTexEnv8TransferI19StreamedBinaryWriteILb0EEEEvRT_
YFa:__ZNK6Camera33CalculateFarPlaneWorldSpaceLengthEv
QIh:_ResourceInfo_t3933049236_marshal_pinvoke_back
QWh:_Color_Lerp_m527444458
eTi:__ZNK15dense_hashtableINSt3__24pairIK10KeyWrapperINS1_IPK11Il2CppImageP11Il2CppClassEEEjEES9_17ReflectionMapHashIS8_EN14dense_hash_mapIS9_jSD_NS9_14EqualsComparerINS0_8equal_toIS8_EEEENS0_9allocatorISB_EEE9SelectKeyESI_SK_E5beginEv
mMi:_il2cpp_array_new
xZd:_Array_InternalArray__ICollection_Add_TisDictionaryEntry_t3048875398_m279246399_gshared
bLh:_ChannelServices_GetCurrentChannelInfo_m4080942430
_H:__ZN4FMOD3DSP8getInputEiPPS0_PPNS_13DSPConnectionE
Yze:_KeyValuePair_2_ToString_m2882821022_AdjustorThunk
DM:__ZN11SoundHandle8Instance13CreateChannelERS_b
a2a:__ZN10MeshFilter23VirtualRedirectTransferER17RemapPPtrTransfer
ixc:_ft_outline_glyph_bbox
oki:_IndexedSet_1_RemoveAll_m2736534958_gshared
UG:__ZN13AudioListenerD2Ev
ZGc:_UNITY_FT_Done_Library
qfh:_VertexHelper__cctor_m1150948588
cLc:__ZN2UI13CanvasManager17EmitDataForCameraEP6Camera
H5i:__ZN6il2cpp2vm6Object16GetVirtualMethodEP12Il2CppObjectPK10MethodInfo
qih:_Transform_1_Invoke_m1111426439_gshared
afc:__Z44Register_UnityEngine_Material_GetTextureImplv
uxj:_glUniform3uiv__wrapper
aDb:__ZL8MainLoopv
GQf:_Binder_ConvertArgs_m2999223281
lUf:_TypeBuilder_IsDefined_m3186251655
JMc:__Z47Register_UnityEngine_CanvasRenderer_SetMaterialv
NLh:_ConfigHandler_ValidatePath_m3188987489
upa:__ZN15dense_hashtableINSt3__24pairIKPK17RenderSurfaceBaseP13RenderTextureEES4_19PointerHashFunctionIS4_EN14dense_hash_mapIS4_S7_SA_NS0_8equal_toIS4_EE13stl_allocatorIS8_L18MemLabelIdentifier67ELi16EEE9SelectKeyESD_SG_E12resize_deltaEjj
Pye:_NumberFormatter_get_IntegerDigits_m3972411141
x2a:__ZThn32_N12MeshRendererD1Ev
$Oa:__ZN13RenderTexture23VirtualRedirectTransferER19StreamedBinaryWriteILb0EE
Khh:_ShimEnumerator_MoveNext_m2728191736_gshared
JNf:_UInt64_System_IConvertible_ToInt32_m930227577_AdjustorThunk
Waj:__ZN6il2cpp2vm13ComObjectBase17GetMarshalSizeMaxERK10Il2CppGuidPvjS5_jPj
U1b:__ZN9TransformC2E18MemLabelIdentifier18ObjectCreationMode
enj:_truncate
Xdb:__ZN9ShaderLab27SerializedShaderVectorValue8TransferI18StreamedBinaryReadILb0EEEEvRT_
dXa:__ZN8Renderer21RendererBecameVisibleEv
D0e:_ReadOnlyCollection_1_System_Collections_Generic_ICollectionU3CTU3E_Clear_m2503787861_gshared
Amj:___stpncpy
vSe:_Collection_1_System_Collections_IList_Add_m669232520_gshared
oLe:_List_1_RemoveAt_m1843849279_gshared
$Y:__ZN10MemoryPool16StaticInitializeEPv
E7:__ZN11TypeManager21CleanupGlobalInstanceEv
pfi:_LayoutCache__ctor_m3175562018
zLf:_TypedReference_GetHashCode_m3498861551_AdjustorThunk
N:Math_atan
GPi:__ZNSt3__212basic_stringIcNS_11char_traitsIcEENS_9allocatorIcEEE6__initIPKcEENS_9enable_ifIXsr21__is_forward_iteratorIT_EE5valueEvE4typeESA_SA_
DG:__ZNK10SampleClip11GetResourceEv
oBa:__ZN4core12basic_stringIcNS_20StringStorageDefaultIcEEE6resizeEj
Vjc:__Z43Register_UnityEngine_Event_set_displayIndexv
JEh:_InternalEnumerator_1_System_Collections_IEnumerator_get_Current_m2821735692_AdjustorThunk
osc:__GLOBAL__sub_I_CmEventProfiler_cpp
G5e:_PrimalityTests_GetSPPRounds_m873706010
OEf:_StringBuilder_AppendLine_m1686706871
m2e:_ReadOnlyCollection_1_System_Collections_Generic_IListU3CTU3E_Insert_m584948331_gshared
uDa:__ZN17GlobalGameManager23VirtualRedirectTransferER24GenerateTypeTreeTransfer
Kse:_MemoryStream_ToArray_m547789004
fRc:__ZN19UnityConnectServiceD0Ev
tVd:_PlayableHandle_IsPlayableOfType_TisAnimatorControllerPlayable_t1744083903_m1628500864_gshared
Yre:_MonoIO_SetLength_m1019790894
EGb:__ZZ23InitPlayerLoopCallbacksvEN46EarlyUpdateUpdateAllUnityWebStreamsRegistrator7ForwardEv
tOf:_UIntPtr_ToString_m387842486
_Ja:__ZNSt3__26vectorIfNS_9allocatorIfEEE8__appendEjRKf
pPc:__ZN11UnityEngine15PlatformWrapper21GetCopyTextureSupportEv
Vid:_Graphic_get_depth_m3526566553
FN:__ZN11AudioModule27IsFormatSupportedByPlatformEPKc
fAd:_CollectionBase_get_InnerList_m44314156
VPd:_Enum_System_IConvertible_ToUInt32_m3575456858
$Ea:__ZNSt3__26vectorI17SortingLayerEntryNS_9allocatorIS1_EEE6assignINS_11__wrap_iterIPS1_EEEENS_9enable_ifIXaasr21__is_forward_iteratorIT_EE5valuesr16is_constructibleIS1_NS_15iterator_traitsISA_E9referenceEEE5valueEvE4typeESA_SA_
B1:__ZN14SerializedFile14SerializedTypeD2Ev
$rc:__Z19TransferField_ArrayI8JSONRead16Converter_StringEvRK23StaticTransferFieldInfoR31RuntimeSerializationCommandInfoRT0_
pRb:__Z19SetupShadowCullDataRK27ScriptableCullingParametersRK17ShaderReplaceDataPK22SceneCullingParametersf16ShadowProjectionR14ShadowCullData
sxa:__ZNK25ThreadsafeLinearAllocator22GetAllocatedMemorySizeEv
oCc:_cff_size_request
RSa:__ZN15DirectorManager14ConnectionPool12SwitchBucketEP14ConnectionList
HKf:_Type_EqualsInternal_m266086934
JIc:__ZN2UI11CompareFuncEPNS_6CanvasES1_
PI:__ZN4FMOD7Channel11set3DSpreadEf
vij:__ZN6il2cpp2os6Memory14AlignedReAllocEPvjj
W:Math_fround
YTa:__ZN24GenerateTypeTreeTransfer16TransferTypelessEPjPKc17TransferMetaFlags
Utc:__ZN20TextRenderingPrivate8FontImpl8TransferI24GenerateTypeTreeTransferEEvRT_
CWc:_HMACMD5__ctor_m3425004426
nee:_SymmetricTransform_InternalTransformBlock_m55428483
Nma:__ZL18ProgramUniform4uivPK7ApiGLESjiihPKv
mxe:_LongComparer_Compare_m398047722
Yrh:_EqualityComparer_1_System_Collections_IEqualityComparer_Equals_m2170611288_gshared
Jsd:_Attribute_CheckParameters_m1754681684
_Ef:_UnicodeEncoding_GetByteCount_m2761661599
eSi:__ZN6il2cpp2gc19AppendOnlyGCHashMapINSt3__24pairIPK10MethodInfoP11Il2CppClassEEP22Il2CppReflectionMethod17ReflectionMapHashIS9_ENS2_8equal_toIS9_EEE3AddERKS9_SB_
XNa:__ZN10builtintex21GetAttenuationTextureEv
Mm:FUNCTION_TABLE_viiiiiiiiiiiiiii
IVh:_Bounds_set_center_m1010418458_AdjustorThunk
lch:_Selectable_TriggerAnimation_m3096883407
u6b:__ZNK4Mesh19CanAccessFromScriptEv
LY:__Z15GetGraphicsCapsv
zea:__ZN7ApiGLES15BindVertexArrayEN2gl6HandleILNS0_10ObjectTypeE3EEE
fii:_UnityAction_1_BeginInvoke_m2825236457_gshared
Vu:__ZN17AnimationPlayable17GetAnimationClipsER13dynamic_arrayIP13AnimationClipLj4EE
zOb:__Z20IntersectionAABBAABBRK10MinMaxAABBS1_PS_
sUi:__ZN30dense_hashtable_const_iteratorINSt3__24pairIK10KeyWrapperINS1_IPK9EventInfoP11Il2CppClassEEEjEES9_17ReflectionMapHashIS8_EN14dense_hash_mapIS9_jSD_NS9_14EqualsComparerINS0_8equal_toIS8_EEEENS0_9allocatorISB_EEE9SelectKeyESI_SK_EppEv
QJf:_TimeSpan_op_GreaterThan_m2202243191
RZb:__ZN18BackgroundJobQueue29ScheduleMainThreadJobInternalEPFvPvES0_
Anf:_X509Chain_IsSelfIssued_m2009755967
_Ic:__ZN2UI11CanvasGroup23VirtualRedirectTransferER24GenerateTypeTreeTransfer
Lkb:__Z18Transfer_BlittableI14SafeBinaryReadLb1EhEvRK29SerializationCommandArgumentsR31RuntimeSerializationCommandInfo
lKd:_DateTime_GetTimeMonotonic_m4135038456
K8:__ZNSt3__224__buffered_inplace_mergeIRNS_4lessIN4core12basic_stringIcNS2_20StringStorageDefaultIcEEEEEENS_11__wrap_iterIPS6_EEEEvT0_SC_SC_T_NS_15iterator_traitsISC_E15difference_typeESG_PNSF_10value_typeE
HEf:_StringBuilder_Append_m3636508479
bc:invoke_viifff
U_:__Z22DestroyObjectHighLevelP6Objectb
LLb:__Z26BeginRenderQueueExtractionR15RenderNodeQueuePK16RendererCullDataRK13CullingOutputPK12LODDataArray15ExtractionFlagsP18JobBatchDispatcher
huc:__ZNK13TextRendering4Font10GetTextureEv
FXc:_SymmetricAlgorithm_set_KeySize_m270664177
jj:_emscripten_glVertexAttrib3fv
SFg:__ZL49Shadow_t4269599528_CustomAttributesCacheGeneratorP21CustomAttributesCache
q_i:__ZN6il2cpp6icalls8mscorlib6System9Threading6Thread16SetName_internalEP12Il2CppThreadP12Il2CppString
nj:_glBeginTransformFeedback
PKa:__ZN18JobBatchDispatcherC2E11JobPriorityi
Thc:__ZN8GUIStyle14GetBuiltinFontEv
Uca:__ZN9GfxDevice13EndFrameStatsEv
q1b:__Z7Empty2DP9Texture2DPhiiii
Woe:_IntPtr_ToString_m1500137303_AdjustorThunk
cbd:_RaycasterManager__cctor_m3713028899
tZi:__ZN6il2cpp6icalls8mscorlib6System7Runtime15InteropServices7Marshal19copy_from_unmanagedEiiP11Il2CppArrayi
xHe:_List_1_CheckCollection_m1228076404_gshared
Nli:_SymmetricTransform_ThrowBadPaddingException_m2553969731
TG:__ZL34StaticDestroyAudioCustomFilterRootPv
qqa:__ZN19ComputeShaderKernelD2Ev
mZb:__ZN10systeminfo21GetTemporaryCachePathEv
$Df:_Encoding_GetBytes_m3820493744
eVe:_Collection_1_IsValidItem_m2164075061_gshared
NAa:__ZN15ArchiveReadFile4ReadEyyPvPy
hyi:_TextGenerator_GetPreferredHeight_m2983948849
agb:__ZN12ScriptMapper8TransferI14SafeBinaryReadEEvRT_
gcf:_Context_set_ClientWriteKey_m1137238126
brb:__Z18Transfer_BlittableI24GenerateTypeTreeTransferLb1E10Matrix4x4fEvRK29SerializationCommandArgumentsR31RuntimeSerializationCommandInfo
cSh:_Expression_GetFixedWidth_m2900825908
Wni:_GenericEqualityComparer_1_Equals_m1663005117_gshared
ASf:_ILGenerator_Mono_GetCurrentOffset_m3553856682
woc:__ZN9JSONWrite8TransferI10Matrix4x4fEEvRT_PKc17TransferMetaFlags
a1f:__ZL58Decimal_t724701077_CustomAttributesCacheGenerator_MinValueP21CustomAttributesCache
GDc:_cf2_hintmap_map
NCe:_Enumerator_VerifyState_m3639069574_AdjustorThunk
J9f:__ZL50_Module_t2144668161_CustomAttributesCacheGeneratorP21CustomAttributesCache
Onb:__ZN15SerializeTraitsI5RectTIfEE8TransferI14SafeBinaryReadEEvRS1_RT_
Nxa:__ZNK14SerializedFile15GetTypeIfExistsEx
Qfc:__Z41Register_UnityEngine_Texture_get_wrapModev
Uvc:_UNITY_FT_Raccess_Get_DataOffsets
spf:_X509Extension_CopyFrom_m2644634650
L4b:__ZN14PlayableOutputC2EjP13PlayableGraph
rXa:__ZThn32_NK8Renderer11GetMaterialEi
geb:__ZN9ShaderLab20SerializedSubProgram8TransferI19StreamedBinaryWriteILb0EEEEvRT_
Pdg:__ZL118SecurityManager_t3191249573_CustomAttributesCacheGenerator_SecurityManager_t3191249573____SecurityEnabled_PropertyInfoP21CustomAttributesCache
_Fe:_List_1_System_Collections_IList_Insert_m813883425_gshared
pcj:__ZN6il2cpp6icalls8mscorlib6System7Runtime15InteropServices8GCHandle15GetTargetHandleEP12Il2CppObjectii
cLa:__Z32TransferEnumWithNameForceIntSizeI14SafeBinaryRead18RealtimeGICPUUsageEvRT_RT0_PKc17TransferMetaFlags
vKh:_SafeHandle_Dispose_m3871883741
gk:_unsetenv
S9:__ZN9GfxDevice29GetMinimumNodesPerGraphicsJobEv
l1a:__ZN17BlendShapeChannel8TransferI24GenerateTypeTreeTransferEEvRT_
nQh:_Parser_NewParseException_m3909819299
U6:__ZN15DirectorManager17OnSampleFixedTimeEv
HSb:__ZNK13RendererScene21GetDynamicObjectCountEv
Mjh:_Enumerator_System_Collections_IEnumerator_get_Current_m1805365227_AdjustorThunk
Jcj:_GC_is_black_listed
jnd:_InputField_set_caretSelectPositionInternal_m2063243072
Jrb:__ZN24GenerateTypeTreeTransfer32TransferSTLStyleArrayWithElementI23ManagedObjectTransfererEEvRT_17TransferMetaFlags
NDh:_InternalEnumerator_1_System_Collections_IEnumerator_get_Current_m3043347404_AdjustorThunk
$7i:__ZN6il2cpp6icalls8mscorlib6System11Environment12get_PlatformEv
Qre:_WriteDelegate_BeginInvoke_m2985235908
GLd:_DateTimeOffset_get_Offset_m2335492074_AdjustorThunk
z4d:_Component_GetComponentsInChildren_TisRuntimeObject_m1992201622_gshared
qxc:_UNITY_FT_Destroy_Class_tt_driver_class
Gme:_Int32_System_IConvertible_ToChar_m719315943_AdjustorThunk
Ir:__GLOBAL__sub_I_runtime_animation_0_cpp
yOh:_Match__ctor_m478172746
A0d:_Array_InternalArray__Insert_TisWorkRequest_t1154022482_m452198486_gshared
Nac:__Z42Register_UnityEngine_Behaviour_get_enabledv
gwe:_Math_Pow_m3099781906
IOi:__ZN6il2cpp2vm14TypeNameParser23ParseNestedTypeOptionalERi
Txe:_MonoType_ReorderParamArrayArguments_m979187413
z4e:_BigInteger_ToString_m1842353154
fij:__ZN6il2cpp2os13FastMutexImplC2Ev
_Nc:__ZN22BaseUnityConnectClient14QueueCoreEventERN11UnityEngine15CloudWebService17CloudServiceEventEb
Uwh:_InternalEnumerator_1_get_Current_m2882946014_gshared
M6a:__ZN30RuntimeInitializeOnLoadManager9ClassInfo8TransferI14SafeBinaryReadEEvRT_
_Jh:_GCHandle_Equals_m170815541_AdjustorThunk
ZOb:__ZL13RenderCastersiRK8Vector3fS1_RK13ShadowJobDataR17ShaderPassContextRKNSt3__26vectorI16ShadowCasterData13stl_allocatorIS9_L18MemLabelIdentifier2ELi16EEEERKNS8_I20ShadowCasterPartDataSA_ISG_LSB_2ELi16EEEERK15RenderNodeQueuebPKj
hl:_emscripten_glGetShaderInfoLog
sYc:_RIPEMD160Managed_Compress_m3844168032
_Ld:_DBNull_System_IConvertible_ToInt32_m3596596664
tme:_Int16_ToString_m1247017262_AdjustorThunk
jzc:_UNITY_ft_glyphslot_set_bitmap
V$:__ZN24GenerateTypeTreeTransfer18SetScriptingObjectE18ScriptingObjectPtri
Xme:_Int32_System_IConvertible_ToType_m573330549_AdjustorThunk
nRf:_CustomAttributeTypedArgument_Equals_m1555989603
R8i:__ZN6il2cpp2os6ThreadC2EPNS0_10ThreadImplE
sZb:__ZN6prcoreL11inner_clearILj3EEEvPhjjj
KHa:__Z29FindReflectionProbeFromAnchorP9TransformRK4AABBRS1_RsS5_
HSd:_CultureInfo_insert_into_shared_tables_m348522444
Rrf:_Interval_Merge_m1170166798
pxf:_WellKnownServiceTypeEntry__ctor_m1109686429
yFc:_Read_CVT_Stretched
SKi:__ZN6il2cpp6icalls8mscorlib6System18CollectTypeMethodsINS_5utils10functional10TrueFilterEEEvP11Il2CppClassPKS7_jRKT_RNSt3__26vectorIPK10MethodInfoNSE_9allocatorISI_EEEERA65535_b
JOe:_Enumerator_get_Current_m2566716693_AdjustorThunk
jDb:__Z14SetPlayerPause11PlayerPauseb
Whd:_FontData_get_defaultFontData_m3296571046
mxb:__ZN18StreamedBinaryReadILb1EE8TransferI13dynamic_arrayIfLj4EEEEvRT_PKc17TransferMetaFlags
v1h:_Object_Internal_CloneSingle_m1822942073
Dnd:_InputField_InPlaceEditing_m1040314765
ZZ:__Z30scripting_stack_trace_info_for21ScriptingExceptionPtrR14StackTraceInfo
Xrj:_glCompressedTexSubImage3D__wrapper
lpi:_AudioExtensionManager_AddSpatializerExtension_m1061433739
sOa:__ZN18ShadowMapJobHeaderD0Ev
ETi:__ZN15dense_hashtableINSt3__24pairIK10KeyWrapperINS1_IPK12PropertyInfoP11Il2CppClassEEEjEES9_17ReflectionMapHashIS8_EN14dense_hash_mapIS9_jSD_NS9_14EqualsComparerINS0_8equal_toIS8_EEEENS0_9allocatorISB_EEE9SelectKeyESI_SK_EC2ERKSN_j
iI:__ZN15AudioReverbZone7CleanupEv
B9:__ZN10BufferGLESD0Ev
RCb:__Z20scripting_gc_disablev
rDh:_InternalEnumerator_1_System_Collections_IEnumerator_get_Current_m790514740_gshared
opi:_AudioSettings_GetSpatializerPluginName_m698617843
F1c:__Z9NullCheckPv
tRc:__ZN22UnityAnalyticsSettings8TransferI14SafeBinaryReadEEvRT_
OXi:__ZN15dense_hashtableINSt3__24pairIK10KeyWrapperIP11Il2CppClassES4_EES5_N6il2cpp8metadata16SZArrayClassHashEN14dense_hash_mapIS5_S4_SA_NS5_14EqualsComparerINS9_19SZArrayClassCompareEEENS0_9allocatorIS7_EEE9SelectKeyESE_SG_EC2ERKSJ_j
pBb:__ZN9Scripting35ErrorMessageForUnsupportedEnumFieldE17ScriptingFieldPtr
ODc:_cf2_hintmask_isNew
nxb:__Z29Transfer_Blittable_ArrayFieldI18StreamedBinaryReadILb1EEfEvRT_R9ArrayInfoRK23StaticTransferFieldInfo
V$d:_Array_InternalArray__Insert_TisIntPtr_t_m3232864760_gshared
gma:__ZN6prcoreL26RemapGenericIntegerToFloatI17TexFormatARGB888818TexFormatARGBFloatEEvPKNS_9InnerInfoE
Bqi:__ZL24UnresolvedVirtualCall_10P12Il2CppObjectPK10MethodInfo
Gwj:_emscripten_glCompressedTexSubImage2D__wrapper
oVc:_DSA_FromXmlString_m2141326025
gcj:__ZN6il2cpp6icalls8mscorlib6System7Runtime16CompilerServices14RuntimeHelpers15InitializeArrayEP11Il2CppArrayi
ySc:__ZZN18UnityConnectClient23RegisterGlobalCallbacksEvEN46EarlyUpdateUnityConnectClientUpdateRegistrator7ForwardEv
pmh:_Dictionary_2_System_Collections_IDictionary_Remove_m2901901588_gshared
F_h:_Input_get_touchCount_m814531925
YJi:__ZN6il2cpp2vmL29SocketPollingThreadEntryPointEPv
mKd:_DateTime_GetNow_m1004310079
QLg:__Z97RuntimeInvoker_Void_t1841601450_RuntimeObject_Int32_t2071877448_SByte_t454417549_SByte_t454417549PFvvEPK10MethodInfoPvPS4_
u1a:__ZN10Matrix4x4f8TransferI18StreamedBinaryReadILb0EEEEvRT_
fhi:_CachedInvokableCall_1_Invoke_m3335223860_gshared
chf:_SslStreamBase_get_Length_m763159069
c3e:_Comparison_1_Invoke_m4190993814_gshared
VL:__ZN4FMOD7Channel19getReverbPropertiesEP29FMOD_REVERB_CHANNELPROPERTIES
fFh:_InternalEnumerator_1_get_Current_m906360510_AdjustorThunk
iOd:_StackFrame_GetSecureFileName_m389986943
Kxf:_FormatterConverter_ToInt16_m2774942580
Vdd:_CanvasScaler_HandleConstantPixelSize_m229625308
mX:__GLOBAL__sub_I_platformdependent_webgl_source_0_cpp
URb:__ZL23NormalizeRobustInternalRK8Vector3fRfS2_f
_dd:_CanvasUpdateRegistry_PerformUpdate_m2200492017
_sc:__GLOBAL__sub_I_modules_terrain_public_2_cpp
uFf:_UTF32Encoding_GetCharCount_m3319809517
IKi:__ZN6il2cpp6icalls8mscorlib6System8MonoType13GetInterfacesEP20Il2CppReflectionType
$S:__ZN11UnityEngine15CloudWebService25WebRequestDownloadHandler7OnAbortEv
ZN:__ZN9AudioClip16EnableLegacyModeEv
lGb:__ZN23ManagedAttributeManager15InitializeClassEv
d9i:__ZN6il2cpp2os6Thread22SetNativeThreadCleanupEPFvPvE
nac:__Z35Application_Get_Custom_PropPlatformv
rMi:_il2cpp_class_from_system_type
hbi:_TouchScreenKeyboard_Open_m4126304679
Zm:FUNCTION_TABLE_vdd
Iqb:__Z18Transfer_BlittableI24GenerateTypeTreeTransferLb1E10ColorRGBAfEvRK29SerializationCommandArgumentsR31RuntimeSerializationCommandInfo
gla:__ZN6prcoreL17RemapGenericFloatI18TexFormatRGBAFloat16TexFormatRGFloatEEvPKNS_9InnerInfoE
B7d:_MSCompatUnicodeTable_FillCJKCore_m1100372933
W3h:_X509Certificate_VerifySignature_m2806336005
gnb:__ZNSt3__26vectorI10RectOffset13stl_allocatorIS1_L18MemLabelIdentifier1ELi16EEE8__appendEj
vFd:_DateTime_op_Inequality_m1607380213
gt:__ZN21AnimationClipPlayable22PrepareAnimationEventsEfR13dynamic_arrayI22AnimationClipEventInfoLj4EE
c4d:_Dictionary_2_Do_ICollectionCopyTo_TisRuntimeObject_m4050345195_gshared
FTd:_Array_InternalArray__ICollection_Contains_TisResourceCacheItem_t333236149_m1769941464_gshared
Fza:__ZN15dense_hashtableINSt3__24pairIKN4core12basic_stringIcNS2_20StringStorageDefaultIcEEEEP20ArchiveStorageReaderEES6_20StringHash32FunctionIS6_EN14dense_hash_mapIS6_S9_SC_NS0_8equal_toIS6_EE13stl_allocatorISA_L18MemLabelIdentifier55ELi16EEE9SelectKeyESF_SI_E9copy_fromERKSL_j
g4i:__ZN14dense_hash_mapI10KeyWrapperIP12Il2CppObjectEN6il2cpp2gc9CachedCCWENS4_5utils11PointerHashIS1_EENS3_14EqualsComparerINSt3__28equal_toIS2_EEEENSB_9allocatorINSB_4pairIKS3_S6_EEEEE13set_empty_keyERSH_
Mo:FUNCTION_TABLE_ff
c$a:__ZNSt3__218__stable_sort_moveIRNS_4lessI4PPtrI11SpriteAtlasEEENS_11__wrap_iterIPS4_EEEEvT0_SA_T_NS_15iterator_traitsISA_E15difference_typeEPNSD_10value_typeE
Oo:FUNCTION_TABLE_fi
P6c:_BaseEventData_set_selectedObject_m2198139983
Dz:__ZNSt3__227__insertion_sort_incompleteIRN11UnityEngine9Animation11BindingSortEPNS_4pairINS2_14GenericBindingEPNS2_10BoundIndexEEEEEbT0_SB_T_
qjj:__ZN6il2cpp2vm16GenericContainer19GetGenericParameterEPK22Il2CppGenericContainert
lwd:_Char_System_IConvertible_ToSingle_m2547558725_AdjustorThunk
eXf:_PropertyBuilder_GetSetMethod_m3440414495
nZh:_UnityEventBase_FindMethod_m3314394402
qd:_emscripten_glGetAttribLocation
LGb:__ZZ23InitPlayerLoopCallbacksvEN39PostLateUpdateResetInputAxisRegistrator7ForwardEv
MK:__ZN4FMOD12ChannelGroup14getParentGroupEPPS0_
sff:_SslClientStream_add_ServerCertValidation_m684653638
ud:_emscripten_set_blur_callback
L7h:_Rect_Contains_m846865666_AdjustorThunk
Bhj:__GLOBAL__sub_I_MemoryMappedFile_cpp
gtj:___cxa_pure_virtual__wrapper
Xia:__ZNK14ImageReference9ClipImageEiiii
JPb:__ZN10Matrix4x4f30SetPositionAndOrthoNormalBasisERK8Vector3fS2_S2_S2_
Hwa:__ZN5RectTIfE8TransferI24GenerateTypeTreeTransferEEvRT_
$Vg:__Z87RuntimeInvoker_Void_t1841601450_RuntimeObject_Vector3_t2243707580_HitInfoU26_t216915145PFvvEPK10MethodInfoPvPS4_
ALh:_CrossAppDomainSink__cctor_m1547233779
Y6d:_TableRange__ctor_m1944319286_AdjustorThunk
KJb:__ZN12FlareManager6UpdateEv
Dtj:_glColorMask__wrapper
y9f:__ZL59_ConstructorInfo_t3269099341_CustomAttributesCacheGeneratorP21CustomAttributesCache
P7g:_RawImage_get_mainTexture_m3865646934
ofe:_X509CertificateEnumerator_MoveNext_m1031936092
Y$i:__ZN6il2cpp6icalls8mscorlib6System4Type29GetGenericTypeDefinition_implEP20Il2CppReflectionType
Haf:_TlsStream__ctor_m2982031560
Xlf:_X509EnhancedKeyUsageExtension__ctor_m4050164330
BCh:_InternalEnumerator_1_get_Current_m2198364332_AdjustorThunk
t4a:__ZN27GenericSlowGarbageCollector16ProcessReferenceEi
dwf:_RealProxy_InternalGetProxyType_m858618403
XQd:_FieldAccessException__ctor_m1240495912
kUh:_Uri_HexUnescapeMultiByte_m25670899
Ndd:_CanvasScaler_set_dynamicPixelsPerUnit_m742632820
Vlj:_fopen
Awc:__ZN20TextRenderingPrivate8FontImplD2Ev
KU:__ZN19CloudServiceHandler8SaveFileERKN4core12basic_stringIcNS0_20StringStorageDefaultIcEEEEPKvj
v7c:_BaseInputModule_HandlePointerExitAndEnter_m1570886840
qpf:_X509EnhancedKeyUsageExtension_CopyFrom_m1426370958
xuj:_glFramebufferTexture2D__wrapper
vjj:__ZN6il2cpp6icalls8mscorlib6System7Runtime8Remoting7Proxies9RealProxy27InternalGetTransparentProxyEP12Il2CppObjectP12Il2CppString
YKe:_List_1_AddEnumerable_m1000825969_gshared
k7i:__ZN6il2cpp2vm6Method10IsInflatedEPK10MethodInfo
mcj:__ZNK6il2cpp8metadata14Il2CppTypeLessclEPK10Il2CppTypeS4_
gdj:_GC_remove_header
E6a:__ZNSt3__26vectorIi13stl_allocatorIiL18MemLabelIdentifier13ELi16EEE8__appendEj
J7h:_Rect_Contains_m3575749021_AdjustorThunk
Wie:_RegionInfo_GetHashCode_m1038358761
P$h:_Mathf_Lerp_m1928161522
ULh:_ConfigHandler_ReadCustomProviderData_m784203316
_Ea:__ZNSt3__26vectorI17SortingLayerEntryNS_9allocatorIS1_EEE7reserveEj
Dbf:_Context_set_MasterSecret_m1422386411
Utb:__Z19TransferField_ArrayI19StreamedBinaryWriteILb0EE27Converter_UnityEngineObjectEvRK23StaticTransferFieldInfoR31RuntimeSerializationCommandInfoRT0_
hpi:_PCMSetPositionCallback_BeginInvoke_m252731440
$7e:_RSAManaged_ToXmlString_m2606223477
vQh:_CharacterClass__ctor_m1318163925
VZg:__Z150RuntimeInvoker_Void_t1841601450_Vector3_t2243707580_Color32_t874517518_Vector2_t2243707579_Vector2_t2243707579_Vector3_t2243707580_Vector4_t2243707581PFvvEPK10MethodInfoPvPS4_
Kfa:__Z16GetMSAALevelDesc9MSAALevel
oIb:__ZN8Renderer27EnsureTransformInfoUpToDateEv
c8:__ZN15dense_hashtableINSt3__24pairIKN4core12basic_stringIcNS2_20StringStorageDefaultIcEEEEP11AssetBundleEES6_20StringHash32FunctionIS6_EN14dense_hash_mapIS6_S9_SC_NS0_8equal_toIS6_EENS0_9allocatorISA_EEE9SelectKeyESF_SH_E9copy_fromERKSK_j
fzj:_emscripten_glFrontFace__wrapper
La:invoke_fiffi
Nhj:__ZN6il2cpp5utils6Memory6CallocEjj
T1:__ZN14SerializedFile14SerializedType8ReadTypeILb1EEEbibRPKhS3_Pi
suj:_emscripten_glRenderbufferStorage__wrapper
FSa:__ZN8Playable7SetTimeEd
IZ:__ZN13RuntimeStaticI12GraphicsCapsLb0EE16StaticInitializeEPv
c0a:__ZN9Texture3D17UploadToGfxDeviceEv
Jpc:__Z18Transfer_BlittableI8JSONReadLb1E8Vector4fEvRK29SerializationCommandArgumentsR31RuntimeSerializationCommandInfo
Kzc:_tt_cmap2_validate
POa:__ZN13RenderTexture14SetColorFormatE19RenderTextureFormat
tEc:_cff_cmap_unicode_done
ome:_NumberFormatter_Init_m1515770916
JSh:_Literal_Compile_m3864266818
W_g:__Z72RuntimeInvoker_Boolean_t3825574718_CharU26_t1894467670_Int16_t4041245914PFvvEPK10MethodInfoPvPS4_
HCb:__ZN9Scripting20SendScriptingMessageER10GameObjectPKc18ScriptingObjectPtr
fDb:__Z26IsSplashScreenFadeCompletev
LMa:__Z17SendMessageDirectR6ObjectRK17MessageIdentifierR11MessageData
Fnd:_InputField_LateUpdate_m1045279070
mbc:__Z42Register_UnityEngine_Camera_get_clearFlagsv
KKi:__ZNSt3__26__treeIP11Il2CppClassNS_4lessIS2_EENS_9allocatorIS2_EEED2Ev
Fmh:_Dictionary_2_InitArrays_m852496598_gshared
iyh:_InternalEnumerator_1_get_Current_m1389169756_gshared
BEf:_StringBuilder_set_Chars_m1019094834
YVb:__ZN13RenderManager27UpdatePreviousFrameMatricesEv
dvb:__Z35Transfer_Blittable_FixedBufferFieldI18StreamedBinaryReadILb1EExEvRK29SerializationCommandArgumentsR31RuntimeSerializationCommandInfo
nvd:_Byte_System_IConvertible_ToUInt64_m2667486567
M3:__Z22SetManagerPtrInContextiP6Object
o5a:__ZN14PlayerSettings8TransferI19StreamedBinaryWriteILb0EEEEvRT_
tpc:__Z18Transfer_BlittableI8JSONReadLb0E10ColorRGBAfEvRK29SerializationCommandArgumentsR31RuntimeSerializationCommandInfo
KVe:_Collection_1_Remove_m2017992820_gshared
S$d:_Array_InternalArray__Insert_TisInt16_t4041245914_m371511339_gshared
SRf:_ConstructorBuilder_get_next_table_index_m932085784
plh:_ValueCollection_System_Collections_ICollection_get_SyncRoot_m919209341_gshared
TGi:__ZN15dense_hashtableINSt3__24pairIK10KeyWrapperIN6il2cpp5utils13dynamic_arrayIPK10Il2CppTypeLj4EEEEPFvvEEESA_NS3_8metadata19Il2CppSignatureHashEN14dense_hash_mapISA_SD_SG_NSA_14EqualsComparerINSF_22Il2CppSignatureCompareEEENS0_9allocatorISE_EEE9SelectKeyESK_SM_E14squash_deletedEv
idh:_Slider_UpdateDrag_m1963963631
VAf:_SByte_Equals_m755715567
R5:__ZN15DirectorManagerD2Ev
a8d:_SortKeyBuffer_AppendNormal_m2554296431
XOc:__ZN11UnityEngine15PlatformWrapper12GetInfoFlagsEv
RVg:__Z87RuntimeInvoker_Void_t1841601450_Int32_t2071877448_Single_t2076509932_Single_t2076509932PFvvEPK10MethodInfoPvPS4_
H1i:__ZN6il2cpp6icalls8mscorlib6System13Globalization11CultureInfo45construct_internal_locale_from_current_localeEP17Il2CppCultureInfo
eCg:__ZL70InputField_t1631627530_CustomAttributesCacheGenerator_m_CaretBlinkRateP21CustomAttributesCache
TXd:_Array_IndexOf_TisCustomAttributeNamedArgument_t94157543_m2205974312_gshared
Kqa:__ZN15TextureTFMethod16BindForRenderingEj
ZTd:_Array_InternalArray__ICollection_Contains_TisUICharInfo_t3056636800_m2001435744_gshared
Rph:_DefaultComparer_GetHashCode_m3250641461_gshared
mqf:_Key_ToString_m1129871742
fsd:_Array_Sort_m1417611156
mmj:_access
CJg:__Z59RuntimeInvoker_RuntimeObject_RuntimeObject_Int64_t909078037PFvvEPK10MethodInfoPvPS4_
_1i:__ZN15dense_hashtableINSt3__24pairIK10KeyWrapperINS1_IPKcS4_EEEiEES6_24NamespaceAndNamePairHashN14dense_hash_mapIS6_iS9_NS6_14EqualsComparerI26NamespaceAndNamePairEqualsEENS0_9allocatorIS8_EEE9SelectKeyESD_SF_E4findERS7_
TTh:_Uri_Merge_m2181117222
duc:__ZN20TextRenderingPrivate8FontImpl13CharacterInfo8TransferI19StreamedBinaryWriteILb0EEEEvRT_
$Ii:__ZN6il2cpp2os19SocketHandleWrapper7ReleaseEv
jgd:_DefaultControls_CreateRawImage_m2572997170
iJf:_TimeSpan_get_TotalDays_m3496775483_AdjustorThunk
f4a:__ZNSt3__27__sort4IRNS_6__lessINS_4pairIPKN5Unity4TypeE7Hash128EES8_EEPS8_EEjT0_SC_SC_SC_T_
Ywa:__ZNK11NamedObject22GetTypeVirtualInternalEv
THf:_Thread_Start_m1419497481
Zci:_Vector3_set_Item_m2026854946
EWg:__Z94RuntimeInvoker_Void_t1841601450_RuntimeObject_PlayableGraph_t1041204988_RuntimeObject_IntPtr_tPFvvEPK10MethodInfoPvPS4_
j5d:_Array_InternalArray__get_Item_TisDictionaryEntry_t3048875398_m2371191320_gshared
hBg:__ZL62FontData_t2614388407_CustomAttributesCacheGenerator_m_RichTextP21CustomAttributesCache
HLg:__Z65RuntimeInvoker_Double_t4078015681_RuntimeObject_Int32_t2071877448PFvvEPK10MethodInfoPvPS4_
Yvh:_InternalEnumerator_1_get_Current_m2351441486_gshared
sjh:_Enumerator_System_Collections_IEnumerator_Reset_m1146954164_AdjustorThunk
wjc:__ZN11IMGUIModule21QueryGUIDisplayTargetE17ScriptingClassPtr
C8b:__ZN11UTF16StringC2ERKS_18MemLabelIdentifier
WFi:__ZNSt3__27__sort4IRN6il2cpp5utils11collections13ArrayValueMapIPK10Il2CppType17Il2CppInteropData26InteropDataToTypeConverterNS1_8metadata14Il2CppTypeLessENSA_26Il2CppTypeEqualityComparerEE12SortComparerEPS8_EEjT0_SH_SH_SH_T_
Dpj:dynCall_vidi
h$e:_ReadOnlyCollection_1_System_Collections_IList_Remove_m2350545199_gshared
opj:___udivdi3
v8b:__ZN11PlayerPrefs9SetStringERKN4core12basic_stringIcNS0_20StringStorageDefaultIcEEEES6_
igi:_GUILayoutGroup_ToString_m3992339043
Yfj:__ZN6il2cpp6icalls8mscorlib6System8Delegate18SetMulticastInvokeEP14Il2CppDelegate
Epd:_LayoutGroup_get_minHeight_m2270010946
LS:__ZN11UnityEngine15CloudWebService20WebRequestRestClient5BeginEv
o6e:_ARC4Managed_GenerateIV_m2815460576
edi:_Vector3_get_normalized_m1057036856_AdjustorThunk
f2c:_String_Substring_m2032624251
O2b:__ZN8Material12CleanupClassEv
hKd:_DateTime_get_DayOfWeek_m2345429939_AdjustorThunk
NKf:_Type_GetTypeCode_m1044483454
$Ih:_ResourceSet_GetObjectInternal_m3556256510
dqb:__Z22TransferField_NonArrayI17RemapPPtrTransfer27Converter_SimpleNativeClassI10RectOffsetEEvRK23StaticTransferFieldInfoR31RuntimeSerializationCommandInfoRT0_
xFd:_DateTimeOffset__ctor_m2870721395
ZL:__ZN20SoundChannelInstance11set3DSpreadEf
sz:__ZNSt3__26__sortIRN11UnityEngine9Animation11BindingSortEPNS_4pairINS2_14GenericBindingEPNS2_10BoundIndexEEEEEvT0_SB_T_
d5c:_String_ReplaceFallback_m64616664
o_f:_MonoMethod_GetCustomAttributes_m2493833930
e5a:__ZN24GenerateTypeTreeTransfer32TransferSTLStyleArrayWithElementI16SplashScreenLogoEEvRT_17TransferMetaFlags
ZQi:__ZN15dense_hashtableINSt3__24pairIK10KeyWrapperINS1_IPK9FieldInfoP11Il2CppClassEEEjEES9_17ReflectionMapHashIS8_EN14dense_hash_mapIS9_jSD_NS9_14EqualsComparerINS0_8equal_toIS8_EEEENS0_9allocatorISB_EEE9SelectKeyESI_SK_E6insertERKSB_
$Di:__ZN14dense_hash_mapI10KeyWrapperIPKcEP11Il2CppClassN6il2cpp5utils11StringUtils12StringHasherIS2_EENS3_14EqualsComparerINS7_13VmStringUtils21CaseSensitiveComparerEEENSt3__29allocatorINSF_4pairIKS3_S5_EEEEEC2EjRKSA_RKSE_
W8h:_Vector2_get_one_m542290559
Mme:_Int32_System_IConvertible_ToDouble_m3322226667_AdjustorThunk
o$d:_Array_InternalArray__ICollection_CopyTo_TisPlayableBinding_t2498078091_m2296273826_gshared
T4:__Z37InitializeIntermediateRendererManagerPv
ycj:_GC_log_printf
Sac:__Z27Camera_Get_Custom_PropDepthP12Il2CppObject
oBf:_CodeAccessPermission_ToString_m3345031296
L5i:__ZN6il2cpp2vm6Object5UnboxEP12Il2CppObject
zjf:_FtpWebRequest__ctor_m3003551676
ude:_EncryptedPrivateKeyInfo__ctor_m832236482
FZ:__ZN23DefaultMeshVertexFormatC2E17ShaderChannelMask
yvb:__ZL26Transfer_SimpleNativeClassI18StreamedBinaryReadILb1EE8GradientLb1EEvRK29SerializationCommandArgumentsR31RuntimeSerializationCommandInfo
n3c:_Single_Equals_m3359827399
DHf:_Thread_FreeLocalSlotValues_m2948667652
pfa:__ZN7ApiGLES10InvalidateERK14GfxContextGLES
bbe:_ASN1Convert_ToOid_m2695991795
EGc:_UNITY_FT_Init_Class_tt_service_truetype_glyf
g$h:_ManagedStreamHelpers_ValidateLoadFromStream_m733853519
cij:__ZN6il2cpp2os5Mutex7TryLockEjb
NY:__Z20IsVectorBuiltinParamPKcPi
i5i:__ZN6il2cpp2vm5Field8GetFlagsEP9FieldInfo
PBh:_InternalEnumerator_1_get_Current_m727737343_AdjustorThunk
WZi:__ZN6il2cpp6icalls8mscorlib6System10ReflectionL16LoadResourceFileEP24Il2CppReflectionAssembly
s1:__Z13IsFileCreatedRKN4core12basic_stringIcNS_20StringStorageDefaultIcEEEE
ihj:__ZN6il2cpp6icalls8mscorlib6System21CurrentSystemTimeZone15GetTimeZoneDataEiPP11Il2CppArrayS6_
Spi:_AudioExtensionManager_GetListenerSpatializerExtensionType_m3668710088
kWa:__ZN16LightmapSettings18TransferDeprecatedI14SafeBinaryReadEEvRT_
V4i:__ZN15dense_hashtableINSt3__24pairIK10KeyWrapperIP12Il2CppObjectEN6il2cpp2gc9CachedCCWEEES5_NS7_5utils11PointerHashIS3_EEN14dense_hash_mapIS5_S9_SD_NS5_14EqualsComparerINS0_8equal_toIS4_EEEENS0_9allocatorISA_EEE9SelectKeyESI_SK_E5eraseE30dense_hashtable_const_iteratorISA_S5_SD_SM_SI_SK_E
H3c:_String__cctor_m710226597
IW:__GLOBAL__sub_I_runtime_camera_renderloops_1_cpp
nXe:_Collection_1_IsValidItem_m404831699_gshared
JJf:_TimeSpan_Negate_m4198463235_AdjustorThunk
YJa:__ZN12FlareManager9AddCameraER6Camera
QM:__ZN11AudioSource8TransferI14SafeBinaryReadEEvRT_
E6b:__ZN4Mesh17SetIndicesComplexEPKvjj16GfxPrimitiveTypei
y$f:_ParameterInfo_GetCustomAttributes_m2985072480
HVe:_Collection_1_Insert_m4010554762_gshared
Eu:__ZN7mecanim9animation23TransformDeltasFromClipEiiiRKNS0_18ClipMuscleConstantERKNS0_12ClipBindingsERKNS_14ValueArrayMaskERN4math4trsXESC_SC_
P2d:_Array_Sort_TisRuntimeObject_m1954851512_gshared
myb:__Z18Transfer_BlittableI18StreamedBinaryReadILb0EELb0E12PropertyNameEvRK29SerializationCommandArgumentsR31RuntimeSerializationCommandInfo
upj:___divdi3
pNh:_ContextAttribute_GetHashCode_m3646968314
V7d:_SimpleCollator_GetSortKey_m540875593
zeb:__ZN9ShaderLab9IntShader26CreateFromSerializedShaderERKNS_16SerializedShaderERNSt3__26vectorI4PPtrI6ShaderENS4_9allocatorIS8_EEEEbPS7_
nWh:_Camera_INTERNAL_CALL_ScreenPointToRay_m305063597
IIb:__ZN19ShaderPropertySheet16SetComputeBufferEN9ShaderLab16FastPropertyNameE15ComputeBufferIDNS_8SetFlagsE
B9i:__ZNK15dense_hashtableINSt3__24pairIK10KeyWrapperIPK19Il2CppGenericMethodEP10MethodInfoEES6_N6il2cpp8metadata23Il2CppGenericMethodHashEN14dense_hash_mapIS6_S9_SD_NS6_14EqualsComparerINSC_26Il2CppGenericMethodCompareEEENS0_9allocatorISA_EEE9SelectKeyESH_SJ_E5beginEv
Iu:__ZN7mecanim21CreateFloatValueArrayEPKNS_18ValueArrayConstantERNS_6memory9AllocatorE
GHf:_Thread_GetCachedCurrentCulture_m450033007
ZSb:__ZL12CullGroupJobP20CullingGroupsJobDataj
Edj:_GC_remove_dangling_disappearing_links
zT:__ZN11UnityEngine15CloudWebService14RestDownloader9IsAbortedEv
Ox:__ZN7mecanim12statemachine28DestroyStateMachineWorkspaceEPNS0_21StateMachineWorkspaceERNS_6memory9AllocatorE
Kk:_emscripten_glNormalPointer
mkc:__Z30GUIStyle_CUSTOM_SetDefaultFontP12Il2CppObject
xrf:_Interval_t2354235237_marshal_pinvoke_back
eo:FUNCTION_TABLE_f
Ro:FUNCTION_TABLE_i
vNd:_Decimal_ToString_m541380585_AdjustorThunk
J7:__ZN11TypeManager12RegisterTypeERK20TypeRegistrationDesc
xn:FUNCTION_TABLE_v
$0a:__ZNSt3__26vectorI17BlendShapeChannelNS_9allocatorIS1_EEE8__appendEj
Xkd:_Image_get_preserveAspect_m2161836851
zp:__ZN18StreamedBinaryReadILb0EE21TransferSTLStyleArrayI13dynamic_arrayI8Vector3fLj4EEEEvRT_17TransferMetaFlags
RGb:__ZZ23InitPlayerLoopCallbacksvEN43PostLateUpdateUpdateAllRenderersRegistrator7ForwardEv
x8a:__ZN21LightProbeProxyVolume13GetRenderDataER27LightProbeProxyVolumeSample
jJd:_CurrentSystemTimeZone_GetDaylightChanges_m2777828412
$Li:__ZN6il2cpp2vm7Runtime30CallUnhandledExceptionDelegateEP12Il2CppDomainP14Il2CppDelegateP15Il2CppException
Dwi:_Predicate_1_Invoke_m577088274_gshared
Ubi:_Transform_SetParent_m1020583764
kwf:_RemotingProxy_get_TypeName_m1400928020
N3a:__ZN11TimeManager8TransferI24GenerateTypeTreeTransferEEvRT_
_7d:_SortKeyBuffer_GetResult_m962852575
H7d:_SimpleCollator_Category_m1504096908
Sui:_DisplayBuffer_Wrap_m137575239
Sq:__ZNK11UnityEngine9Animation28GenericAnimationBindingCache10BindCustomERKNS0_14GenericBindingER9TransformRNS0_10BoundCurveE
ePi:__ZN6il2cpp2vm17TypeNameParseInfoC2ERKS1_
aRc:__ZN18UnityConnectClient17InitConnectClientEv
Xuh:_ArrayReadOnlyList_1_ReadOnlyError_m2158247090_gshared
Ikj:_memcmp
zKd:_DateTime_CompareTo_m3372173896
DPc:__ZN11UnityEngine7Connect18ConnectSessionInfo8TransferER9JSONWrite
Z0h:_MonoBehaviour_StopCoroutine_Auto_m2947240387
FWh:_Color__ctor_m3831565866
JP:__Z74Register_UnityEngine_AudioListener_INTERNAL_CALL_ReadExtensionPropertyNamev
U2a:__ZN9Scripting32GetCachedPtrFromScriptingWrapperE18ScriptingObjectPtr
CKc:__ZN2UI29ScheduleUIJobsForInstructionsERNS_7BatchesEjPKNS_13UIInstructionEfjjPNS_13CanvasJobDataE
EK:__ZN5audio5mixer22CreateAudioMixerMemoryERKNS0_18AudioMixerConstantEPN4FMOD6SystemERN7mecanim6memory9AllocatorEib
gBb:__ZL65EmitSerializationCommandsForLinearCollectionOfManagedObjectsFieldRK31TransferFunctionScriptingTraitsRK23TransferArrayField_InfoR20SerializationCommandR32SerializationCommandQueueBuilderRP20AllowNameConversions
bff:_RSASslSignatureDeformatter_VerifySignature_m3138484348
M_d:_Array_InternalArray__ICollection_CopyTo_TisDecimal_t724701077_m1087621311_gshared
ehh:_Enumerator_System_Collections_IDictionaryEnumerator_get_Value_m2325383168_AdjustorThunk
HHd:_Convert_ToInt64_m4280008532
bec:__Z28Mesh_CUSTOM_SetTrianglesImplP12Il2CppObjectiP11Il2CppArrayih
MCg:__ZL61RawImage_t2749640213_CustomAttributesCacheGenerator_m_TextureP21CustomAttributesCache
REb:__ZL20ShaderWarmupFuncImplP6ShaderiPN9ShaderLab4PassERK16ShaderKeywordSetP10DynamicVBOPvR17ShaderPassContext
qWc:_HMAC_set_Key_m1530357889
NFi:__ZN15dense_hashtableI10KeyWrapperIPK17Il2CppGenericInstES4_N6il2cpp8metadata21Il2CppGenericInstHashEN14dense_hash_setIS4_S7_NS4_14EqualsComparerINS6_24Il2CppGenericInstCompareEEENSt3__29allocatorIS4_EEE8IdentityESB_SE_E6insertERKS4_
pQi:__ZN15dense_hashtableINSt3__24pairIK10KeyWrapperINS1_IPK14Il2CppAssemblyP11Il2CppClassEEEjEES9_17ReflectionMapHashIS8_EN14dense_hash_mapIS9_jSD_NS9_14EqualsComparerINS0_8equal_toIS8_EEEENS0_9allocatorISB_EEE9SelectKeyESI_SK_E3endEv
wrj:dynCall_iiii
_8g:_Scrollbar_set_numberOfSteps_m579707524
KQc:__ZN11UnityEngine7Connect17DeviceStatusEventC2Ev
Skj:_fmt_u
nga:__ZN14DataBufferGLES12RecordUpdateEv
nIh:_ResourceManager__cctor_m2190112652
svc:__ZN20TextRenderingPrivate15DynamicFontData28GetFaceForFontRefFromOSFontsERKNS_7FontRefE
cue:_StreamWriter__ctor_m4232641237
N5i:__ZN6il2cpp2vm12GenericClass12SetupMethodsEP11Il2CppClass
Zib:__ZNK20LocalFileSystemPosix18GetApplicationPathEv
ovi:_InputBuffer_ReceiveFrameInput_m576052007
fGd:_Decimal__ctor_m3876694886
dBb:__ZN9Scripting30IsSystemCollectionsGenericListE17ScriptingClassPtr
Ssd:_AttributeUsageAttribute__ctor_m2873156923
VKc:__ZN2UI23InitializeCanvasManagerEv
zDa:__ZN10GameObject16CheckConsistencyEv
N0b:__ZN14RenderSettings15InitializeClassEv
Dlf:_AsnEncodedData_set_Oid_m3568255745
kcc:__Z46Register_UnityEngine_GameObject_get_activeSelfv
Rff:_SslClientStream_OnRemoteCertificateValidation2_m3416857045
oAf:_RuntimeTypeHandle_Equals_m452760426_AdjustorThunk
X0b:__ZL19OnLightProbesUpdatev
vFh:_InternalEnumerator_1_System_Collections_IEnumerator_get_Current_m762846484_AdjustorThunk
Hqb:__Z18Transfer_BlittableI24GenerateTypeTreeTransferLb0E10ColorRGBAfEvRK29SerializationCommandArgumentsR31RuntimeSerializationCommandInfo
Upj:dynCall_iifii
BJc:__ZN2UI16GetCanvasManagerEv
Q6b:__ZN15GUIEventManager8PopEventER10InputEvent
Jcc:__Z31RectOffset_Get_Custom_PropRightP12Il2CppObject
YHc:__Z54Register_UnityEngine_TextGenerator_GetVerticesInternalv
KXc:__Z3BoxP11Il2CppClassPv
oSd:_CultureInfo_Clone_m2970753766
Sqf:_IntStack_Push_m1259764820
Pqa:__ZN21UniformBufferTFMethodD2Ev
Mqe:_FileStream_InitBuffer_m2153931481
pLf:_Type_MakeGenericType_m2765875033
Z8b:__ZL34GetComponentsImplementationRecurseILb1ELi1ELi2EEbR10GameObjectbRK17CompareParametersRK39GetComponentsImplementation_ReturnValue
$ja:__ZN6prcoreL12RemapGenericI15TexFormatRGB56515TexFormatRGB888EEvPKNS_9InnerInfoE
Rnd:_InputField_OnEndDrag_m1818224847
ole:_NumberFormatter_GetInstance_m2421260460
i6d:_AttributeHelperEngine_GetCustomAttributeOfType_TisRuntimeObject_m2532320824_gshared
aMc:__Z41CanvasGroup_Get_Custom_PropBlocksRaycastsP12Il2CppObject
Pab:__ZNSt3__26vectorIN9ShaderLab26SerializedShaderDependencyENS_9allocatorIS2_EEE8__appendEj
Hzh:_InternalEnumerator_1_System_Collections_IEnumerator_get_Current_m4242639349_gshared
k3:__ZN32TransformHierarchyChangeDispatch26DispatchSelfAndAllChildrenE15TransformAccessNS_12InterestTypeE
PP:__Z46Register_UnityEngine_AudioSource_get_isPlayingv
KDf:_UTF32Encoding__ctor_m3199945978
i4:__ZN13RuntimeStaticI22VirtualJoystickManagerLb0EE13StaticDestroyEPv
gH:__ZN13AudioListener12ApplyFiltersEv
dje:_SortKey_GetHashCode_m2534654444
uTd:_Array_InternalArray__ICollection_Contains_TisInt64_t909078037_m1425723755_gshared
Dcf:_HandshakeMessage_Update_m1733566706
_hj:__ZN6il2cpp8metadata27Il2CppGenericContextCompare7CompareEPK20Il2CppGenericContextS4_
Dqj:dynCall_viiii
yyd:_ArrayListWrapper_ToArray_m235921330
oYf:_MemberInfoSerializationHolder_Serialize_m4243060728
Vei:_GUIUtility_Internal_GetGUIDepth_m2168931083
W6g:_MaskableGraphic_OnDisable_m2605143092
iPi:__ZNSt3__214__split_bufferIN6il2cpp2vm17TypeNameParseInfoERNS_9allocatorIS3_EEED2Ev
gLf:_Type_GetConstructor_m663514781
Lne:_Int64_System_IConvertible_ToDouble_m638786774_AdjustorThunk
X6:__ZN15DirectorManager14ConnectionPool16GrowEmptyBucketsEv
lle:_Int16_ToString_m1247017262
b$:__ZN17PersistentManager32CopyToAwakeFromLoadQueueInternalER18AwakeFromLoadQueue
tMb:__ZNK6Camera16SetActiveVRUsageEv
ZMf:_UInt32_System_IConvertible_ToUInt16_m2798641702
Luj:_emscripten_glDrawElementsInstanced__wrapper
Zpc:__ZL26Transfer_SimpleNativeClassI8JSONRead8GradientLb1EEvRK29SerializationCommandArgumentsR31RuntimeSerializationCommandInfo
klj:_open
lGd:_Decimal_ThrowInvalidExp_m3430267638
xZi:__ZN6il2cpp6icalls8mscorlib6System5Array5CloneEP11Il2CppArray
dWb:__Z30GetPlayerShouldRunInBackgroundv
kFh:_InternalEnumerator_1_get_Current_m2986222582_gshared
dFf:_UnicodeEncoding_GetBytes_m4175529985
mLc:__Z13RegisterClassIN2UI6CanvasEEvv
j9g:_Selectable_OnDisable_m2660228016
Vja:__ZN6prcoreL12RemapGenericI11TexFormatI815TexFormatRGB565EEvPKNS_9InnerInfoE
VQg:__Z75RuntimeInvoker_DateTime_t693205669_DateTime_t693205669_TimeSpan_t3430258949PFvvEPK10MethodInfoPvPS4_
vfa:__ZNK13TranslateGLES17FramebufferTargetEN2gl17FramebufferTargetE
b8i:__ZL11on_gc_event11GCEventType
pYi:__ZNSt3__214__split_bufferIN6il2cpp8metadata18GenericArrayMethodERNS_9allocatorIS3_EEED2Ev
D2c:_Single_System_IConvertible_ToBoolean_m2661548087_AdjustorThunk
PVc:_DSASignatureDeformatter_VerifySignature_m4078616251
Muj:b62
wuj:b61
ztj:b60
$vj:b67
PYd:_Array_InternalArray__IndexOf_TisUInt16_t986882611_m390127593_gshared
Zld:_InputField_set_shouldHideMobileInput_m2478534110
Quj:b64
p5c:_String_Concat_m3881798623
awj:b68
xUf:_FieldBuilder_IsDefined_m2730324893
Jhg:__ZL56FlagsAttribute_t859561169_CustomAttributesCacheGeneratorP21CustomAttributesCache
rJa:__ZNSt3__26__treeINS_12__value_typeIi17ShadowCachingDataEENS_19__map_value_compareIiS3_NS_4lessIiEELb1EEE13stl_allocatorIS3_L18MemLabelIdentifier66ELi16EEE7destroyEPNS_11__tree_nodeIS3_PvEE
gUg:__Z102RuntimeInvoker_RuntimeObject_RuntimeObject_RuntimeObject_Int32_t2071877448_RuntimeObject_RuntimeObjectPFvvEPK10MethodInfoPvPS4_
y2e:_ReadOnlyCollection_1_System_Collections_IList_Insert_m571902768_gshared
kPg:__Z93RuntimeInvoker_Single_t2076509932_SingleU26_t4173844468_Single_t2076509932_Single_t2076509932PFvvEPK10MethodInfoPvPS4_
Fqj:dynCall_iifffi
f7b:__Z9SetIIMGUIP6IIMGUI
ECd:_SyncHashtable_ContainsKey_m3408601214
aAc:_tt_cmap10_get_info
GDb:__Z28SetupPixelCorrectCoordinatesi
i5b:__ZNSt3__218__insertion_sort_3IRN10vector_mapIiiNS_4lessIiEE13stl_allocatorINS_4pairIiiEEL18MemLabelIdentifier1ELi16EEE13value_compareEPS6_EEvT0_SD_T_
Pfa:__Z5SplitRKN4core12basic_stringIcNS_20StringStorageDefaultIcEEEEcRNSt3__26vectorIS3_NS6_9allocatorIS3_EEEEi
eTh:_RegularExpression_Compile_m3944989565
ZBi:__ZN6il2cpp2vmL10InitLockedEP11Il2CppClassRKNS_2os12FastAutoLockE
S$:__ZN17ScriptingGCHandle28ResolveBackendNativeGCHandleEj
Jph:_DefaultComparer_Equals_m524689061_gshared
I4b:__ZN13PlayableGraph16DestroyRecursiveEP8Playable
shc:__ZNK19RectangleCellLayout11CellToLocalERKN4Grid9GridStateERKN4math7_float3E
BOd:_Double_System_IConvertible_ToType_m4036266196_AdjustorThunk
rH:__ZN12AudioManagerD0Ev
Qkj:___fwritex
Tb:invoke_viiififii
Gre:_Stream_EndRead_m2148943753
v4a:__ZNK22GenericPropertyBinding13SetFloatValueERKN11UnityEngine9Animation10BoundCurveEf
E0b:__ZN6ShaderC2E18MemLabelIdentifier18ObjectCreationMode
_nj:__ZNSt3__211char_traitsIcE4findEPKcjRS2_
QGc:_raccess_guess_darwin_ufs_export
iGb:__ZN11TypeManager18InitializeAllTypesEv
oF:__ZN9AudioClipD0Ev
_hi:_InvokableCall_3_Invoke_m2530072389_gshared
pUd:_Array_InternalArray__ICollection_Remove_TisKeyValuePair_2_t38854645_m3060436673_gshared
pHe:_List_1_Find_m3480386930_gshared
srh:_EqualityComparer_1__cctor_m51007461_gshared
vw:__ZN27AnimationLayerMixerPlayable26ProcessAnimationLayerBeginEP35AnimationPlayableEvaluationConstantP32AnimationPlayableEvaluationInputP33AnimationPlayableEvaluationOutput
m_b:__Z13RegisterClassI8GUILayerEvv
$Yb:__ZN25ThreadsafeLinearAllocatorC2EiiPKc
t8d:_SimpleCollator_IsSuffix_m740049399
Wna:__ZN14GfxContextGLES11MakeCurrentER7ApiGLESN2gl13ContextHandleE
b3h:_PKCS12__cctor_m3312759338
rFc:_UNITY_tt_glyphzone_new
Naf:_RecordProtocol_BeginSendRecord_m166940611
pxe:_ShortComparer_Compare_m1398180168
Bxi:_TextGenerationSettings_CompareColors_m2745847049_AdjustorThunk
jdg:__ZL56SecurityAction_t446643378_CustomAttributesCacheGeneratorP21CustomAttributesCache
PEb:__ZN16GraphicsSettings22WarmupPreloadedShadersEv
nNc:__Z34Canvas_Set_Custom_PropSortingOrderP12Il2CppObjecti
Sse:_MonoIO_get_ConsoleError_m592181393
ezb:__ZN18StreamedBinaryReadILb0EE8TransferI13dynamic_arrayI12PropertyNameLj4EEEEvRT_PKc17TransferMetaFlags
Seb:__ZN9ShaderLab4Pass6RetainEv
Yzi:__ZL11decimalLog2P19il2cpp_decimal_repr
mff:_SslCipherSuite_prf_m2084589217
ab:invoke_iiiiiiffiiiiiiiiiffffiii
AIc:__ZN2UI6Canvas8TransferI14SafeBinaryReadEEvRT_
XVg:__Z51RuntimeInvoker_Color32_t874517518_Color_t2020392075PFvvEPK10MethodInfoPvPS4_
zRi:__ZN6il2cpp2gc19AppendOnlyGCHashMapIPK10Il2CppTypeP20Il2CppReflectionTypeNS_8metadata14Il2CppTypeHashENS7_26Il2CppTypeEqualityComparerEE3AddERKS4_S6_
FQ:__ZN11UnityEngine15CloudWebService17CloudJobScheduler11ScheduleJobEPFvPvES2_
mtg:__ZL57CSSMeasureFunc_t2092170507_CustomAttributesCacheGeneratorP21CustomAttributesCache
Uje:_Guid_Equals_m2389236871_AdjustorThunk
OR:__ZN11UnityEngine15CloudWebService17CloudServiceEvent12ToJsonStringER9JSONWrite
L4:__ZNK18VertexChannelsInfoltERKS_
Wdg:__ZL93ASCIIEncoding_t3022927988_CustomAttributesCacheGenerator_ASCIIEncoding_GetDecoder_m3693600923P21CustomAttributesCache
E7b:__Z18SetTargetFrameRatei
Ylc:__ZN9JSONWrite8TransferIfEEvRT_PKc17TransferMetaFlags
dfd:_ContentSizeFitter_SetLayoutHorizontal_m2830034151
GBa:__ZN10MemoryFileD0Ev
O8b:__ZN10MonoScript27InitializeAndRegisterScriptERKN4core12basic_stringIcNS0_20StringStorageDefaultIcEEEES6_S6_S6_b
bCf:_DES_set_Key_m2689203108
yHb:__Z23DrawSplashAndWatermarksv
Awh:_InternalEnumerator_1_get_Current_m1526874475_gshared
e6d:_Array_InternalArray__get_Item_TisWorkRequest_t1154022482_m2456727038_gshared
t2h:_SubjectAltNameExtension_ToString_m1300810903
Ude:_RSAManaged_ImportParameters_m2382611442
Imb:__ZN13GUIStyleState8TransferI14SafeBinaryReadEEvRT_
WGh:_Comparer_1_System_Collections_IComparer_Compare_m2490067344_gshared
mPh:_PatternCompiler_EmitSet_m866698437
Ld:_glDrawArrays
jzi:_CanvasRenderer_SetAlphaTexture_m1030438445
YZe:_ReadOnlyCollection_1_System_Collections_IList_Add_m527174473_gshared
Xyh:_InternalEnumerator_1_System_Collections_IEnumerator_get_Current_m127456009_AdjustorThunk
zoi:_HashSet_1_System_Collections_Generic_ICollectionU3CTU3E_CopyTo_m1933244740_gshared
zeg:__ZL54UTF8Encoding_t111055448_CustomAttributesCacheGeneratorP21CustomAttributesCache
ED:__ZN23AnimatedPropertyBuilder5BuildEP13AnimationClip18ScriptingObjectPtr
gqd:_LayoutRebuilder_LayoutComplete_m498127808
LZd:_Array_InternalArray__ICollection_Add_TisInt32_t2071877448_m1775306598_gshared
iUd:_Array_InternalArray__ICollection_Remove_TisChar_t3454481338_m1562002771_gshared
Hne:_Int64_System_IConvertible_ToDateTime_m1002280174_AdjustorThunk
p1a:__ZN14BlendShapeData8TransferI18StreamedBinaryReadILb0EEEEvRT_
wjj:__ZN6il2cpp6icalls8mscorlib6System7Runtime8Remoting7Proxies9RealProxy20InternalGetProxyTypeEP12Il2CppObject
_Ib:__ZN13sorted_vectorINSt3__24pairIiN17InstancedPropInfo12PropertyTypeEEEN10vector_mapIiS3_NS0_4lessIiEE13stl_allocatorIS4_L18MemLabelIdentifier1ELi16EEE13value_compareESA_E21sort_clear_duplicatesEv
FFc:_Round_To_Grid
Avc:_UNITY_FT_Stream_Close
Gnj:__ZNSt3__212basic_stringIcNS_11char_traitsIcEENS_9allocatorIcEEEC2ERKS5_jjRKS4_
C8:__ZL20FormatOrderedProcessPKcP17FormatOrderedDataPc
Hbc:__Z35DebugLogHandler_CUSTOM_Internal_Log7LogTypeP12Il2CppStringP12Il2CppObject
Y0h:_MonoBehaviour_StopCoroutine_m606332095
Kuj:_emscripten_glShaderBinary__wrapper
Qma:__ZL17ProgramUniform3ivPK7ApiGLESjiihPKv
Gba:__ZN9GfxDevice25GetBackBufferColorSurfaceEv
ZBa:__ZN25SingleBlockMemoryFileData9SetLengthEy
u5b:__Z29AwakeAndActivateClonedObjectsPP6ObjectRK10vector_mapIiiNSt3__24lessIiEE13stl_allocatorINS3_4pairIiiEEL18MemLabelIdentifier1ELi16EEE
jWi:__ZN15dense_hashtableINSt3__24pairIK10KeyWrapperINS1_IPK10MethodInfoP11Il2CppClassEEEjEES9_17ReflectionMapHashIS8_EN14dense_hash_mapIS9_jSD_NS9_14EqualsComparerINS0_8equal_toIS8_EEEENS0_9allocatorISB_EEE9SelectKeyESI_SK_E14squash_deletedEv
OXg:__Z55RuntimeInvoker_Void_t1841601450_RaycastResult_t21186376PFvvEPK10MethodInfoPvPS4_
D_b:__Z13RegisterClassI6ShaderEvv
Mke:_Int16_System_IConvertible_ToUInt32_m883204517
HIh:_ResourceCacheItem_t333236149_marshal_pinvoke_cleanup
zEe:_List_1_CheckMatch_m1196994270_gshared
RUc:__ZN13RuntimeStaticI11WindManagerLb0EE13StaticDestroyEPv
OId:_Convert_ToUInt64_m3559662221
rnc:__Z18Transfer_BlittableI9JSONWriteLb1EaEvRK29SerializationCommandArgumentsR31RuntimeSerializationCommandInfo
eWi:__ZN13Il2CppHashMapINSt3__24pairIPK10MethodInfoP11Il2CppClassEEj17ReflectionMapHashIS7_ENS0_8equal_toIS7_EENS0_9allocatorINS1_IK10KeyWrapperIS7_EjEEEEEC2EjRKS9_RKSB_
rMb:__ZN11HaloManager11HasAnyHalosEPK11CullResults
nxd:_ArrayList_set_Item_m1858827078
R$a:__ZN9Texture3D23VirtualRedirectTransferER19StreamedBinaryWriteILb0EE
$dj:_GC_reclaim_block
x6e:_HMAC__ctor_m2605930831
vO:__Z13RegisterClassI10SampleClipEvv
mPb:__ZNK23ForwardShaderRenderLoop18RenderObjectSorterILb1EEclERK21ForwardRenderPassDataS4_
nHi:__ZN15dense_hashtableI10KeyWrapperIPK19Il2CppGenericMethodES4_N6il2cpp8metadata23Il2CppGenericMethodHashEN14dense_hash_setIS4_S7_NS4_14EqualsComparerINS6_26Il2CppGenericMethodCompareEEENSt3__29allocatorIS4_EEE8IdentityESB_SE_E12maybe_shrinkEv
Gra:__ZN10BufferGLES10BeginWriteEjj
mHi:__ZNK15dense_hashtableI10KeyWrapperIPK19Il2CppGenericMethodES4_N6il2cpp8metadata23Il2CppGenericMethodHashEN14dense_hash_setIS4_S7_NS4_14EqualsComparerINS6_26Il2CppGenericMethodCompareEEENSt3__29allocatorIS4_EEE8IdentityESB_SE_E12test_deletedEj
LA:__ZN7mecanim12statemachine18StateMachineMemory8TransferI9BlobWriteEEvRT_
m$c:_ToBase64Transform_Dispose_m1132043687
dXi:__GLOBAL__sub_I_ArrayMetadata_cpp
wNf:_UInt64_System_IConvertible_ToByte_m953298241
Fra:__ZN7ApiGLES11FlushBufferEjN2gl12BufferTargetEll
XId:_Convert_ToUInt64_m1896191125
Enb:__ZN14SafeBinaryRead21TransferSTLStyleArrayI13dynamic_arrayI8BitFieldLj4EEEEvRT_17TransferMetaFlags
moa:__ZN12_GLOBAL__N_127PrepareReadback_ResolveMSAAER18GfxFramebufferGLESR7ApiGLESP17RenderSurfaceGLESS5_
FTf:_EnumBuilder_GetAttributeFlagsImpl_m4263246832
pRf:_CustomAttributeData_GetHashCode_m3989739430
peh:_Text_AssignDefaultFont_m1295571657
q2b:__ZNK24RendererAnimationBinding9BindValueER6ObjectRKN11UnityEngine9Animation14GenericBindingERNS3_10BoundCurveE
Ke:_glBindBuffer
Ryb:__ZN8GUIStyle8TransferI18StreamedBinaryReadILb0EEEEvRT_
t5:__ZNSt3__213__stable_sortIRN10vector_mapIijNS_4lessIiEENS_9allocatorINS_4pairIijEEEEE13value_compareENS_11__wrap_iterIPS6_EEEEvT0_SE_T_NS_15iterator_traitsISE_E15difference_typeEPNSH_10value_typeEi
PZd:_Array_InternalArray__ICollection_Add_TisCustomAttributeNamedArgument_t94157543_m1003067274_gshared
m5a:__ZN10VRSettings8Daydream8TransferI18StreamedBinaryReadILb0EEEEvRT_
rgb:__ZNSt3__218__insertion_sort_3IRNS_6__lessIN4core12basic_stringIcNS2_20StringStorageDefaultIcEEEES6_EEPS6_EEvT0_SA_T_
aCe:_Enumerator_System_Collections_IEnumerator_Reset_m925111644_gshared
OI:__ZN4FMOD7Channel13set3DPanLevelEf
vkj:_isupper
TUg:__Z93RuntimeInvoker_Vector3_t2243707580_Vector3_t2243707580_Vector3_t2243707580_Single_t2076509932PFvvEPK10MethodInfoPvPS4_
lQf:_AssemblyName__ctor_m609734316
gDf:_Encoding_set_DecoderFallback_m2255528738
_Qa:__ZNSt3__26__treeINS_12__value_typeIN9ShaderLab16FastPropertyNameEN18UnityPropertySheet11UnityTexEnvEEENS_19__map_value_compareIS3_S6_NS_4lessIS3_EELb1EEENS_9allocatorIS6_EEE7destroyEPNS_11__tree_nodeIS6_PvEE
sgf:_InternalAsyncResult_get_IsCompleted_m1463732458
yIi:__ZN6il2cpp2vm13MetadataCache24GetExportedTypeFromIndexEi
Blc:__ZN5Unity9rapidjson6WriterI16TempBufferWriterNS0_4UTF8IcEES4_13JSONAllocatorE9WriteUintEj
anj:_getuid
zkd:_HorizontalLayoutGroup_CalculateLayoutInputVertical_m3516192138
fE:__ZN7mecanim5human8BoneNameEj
aii:_InvokableCall_4__ctor_m2170162585_gshared
S_b:__Z13RegisterClassI10MonoScriptEvv
Vce:_AttrListImpl__ctor_m3211398293
Fhi:_InvokableCall_1_Invoke_m417090952_gshared
Ytc:__ZN20TextRenderingPrivate8FontImpl8TransferI18StreamedBinaryReadILb0EEEEvRT_
AEf:_StringBuilder_get_Chars_m256627635
w6h:_UnityString_Format_m328130606
fKi:__ZN6il2cpp6icalls8mscorlib6System8MonoType22get_IsGenericParameterEP20Il2CppReflectionType
Tt:__ZN7mecanim5human14HumanPoseClearERNS0_9HumanPoseE
Q8h:_RectTransform_GetLocalCorners_m3824854770
Upe:_MonoIO_GetException_m957022672
CRa:__ZN18StreamedBinaryReadILb0EE19TransferSTLStyleMapINSt3__23mapIN9ShaderLab16FastPropertyNameE10ColorRGBAfNS2_4lessIS5_EENS2_9allocatorINS2_4pairIKS5_S6_EEEEEEEEvRT_17TransferMetaFlags
oai:_Sprite_get_border_m1504762991
dnf:_X509Certificate2_GetValueAsString_m1286925493
Pwd:_Char_ToLower_m2719897546
z1d:_Array_InternalArray__set_Item_TisHitInfo_t1761367055_m2693590376_gshared
Pxe:_MonoType_IsPointerImpl_m648213545
fie:_InvalidOperationException__ctor_m2801133788
XVb:__ZN13RenderManager28AreCamerasUsingMotionVectorsEv
w4:__Z25InitializeLODGroupManagerPv
Sda:__ZN13GfxDeviceGLES12EndStereoEyeE15StereoscopicEye
Qdd:_CanvasScaler_SetScaleFactor_m3305903109
g_d:_Array_InternalArray__ICollection_Add_TisUriScheme_t1876590943_m3218110478_gshared
qJb:__ZNK12ImageFilters28ApplyAfterTransparentFiltersEv
kOb:__Z20CalculateLightMatrixRK15SharedLightDataP10Matrix4x4f
uQc:__ZN11UnityEngine7Connect15AppRunningEvent12ToJsonStringER9JSONWrite
kSa:__ZN19ShaderPropertySheet5ClearEb
ndf:_TlsServerCertificate_ProcessAsTls1_m3083203628
w_e:_ReadOnlyCollection_1_System_Collections_Generic_IListU3CTU3E_set_Item_m1099846173_gshared
QJb:__ZNK6Camera11GetPositionEv
ns:__ZN8Animator19CreatePlayableGraphEv
oyj:_emscripten_glClearDepth__wrapper
YHd:_Convert_ToSByte_m1880147062
Ajb:__ZNK16MemoryFileSystem8FilenameERK13FileEntryData
Of:_glUniform1fv
Sf:_JS_FileSystem_Sync
pXc:_MD5CryptoServiceProvider_HashCore_m2367253552
Aea:__ZNSt3__26__treeINS_12__value_typeI21GLESRenderTargetSetupN2gl6HandleILNS3_10ObjectTypeE9EEEEENS_19__map_value_compareIS2_S7_NS_4lessIS2_EELb1EEENS_9allocatorIS7_EEE7destroyEPNS_11__tree_nodeIS7_PvEE
p4h:_X509StoreManager_get_TrustedRootCertificates_m122138510
qoa:__ZN4gles15BlitFramebufferERNS_23BlitFramebufferDrawQuadER9GfxDeviceii9TextureIDiiiiiiii
Qf:__emscripten_sample_gamepad_data
b0b:__Z22DelayedDestroyCallbackP6ObjectPv
Vjd:_GraphicRegistry__cctor_m4197769737
d1:__Z34scripting_class_get_declaring_type17ScriptingClassPtr
SQc:__ZN11UnityEngine7Connect20BasePersistentValues13RestoreValuesER8JSONRead
S7e:_KeyGeneratedEventHandler_Invoke_m1298576133
ood:_InputField_Rebuild_m3481959062
C3a:__ZN11TimeManagerD0Ev
BT:__ZN11UnityEngine15CloudWebService18RestFileDownloader10InitializeERKN4core12basic_stringIcNS2_20StringStorageDefaultIcEEEE
aL:__ZN12AudioManager33GetAudioEffectInternalDefinitionsEv
hVa:__ZN9Texture2D16DeleteGfxTextureEv
uib:__ZN20LocalFileSystemPosix4OpenER13FileEntryData14FilePermission16FileAutoBehavior
r6e:_KeyBuilder_get_Rng_m2539978716
$oi:_AudioClip_InvokePCMSetPositionCallback_Internal_m1220105088
G4d:_BaseInvokableCall_ThrowOnInvalidArg_TisVector2_t2243707579_m879131569_gshared
wGi:__ZN15dense_hashtableINSt3__24pairIK10KeyWrapperIN6il2cpp5utils13dynamic_arrayIPK10Il2CppTypeLj4EEEEPFvvEEESA_NS3_8metadata19Il2CppSignatureHashEN14dense_hash_mapISA_SD_SG_NSA_14EqualsComparerINSF_22Il2CppSignatureCompareEEENS0_9allocatorISE_EEE9SelectKeyESK_SM_ED2Ev
pIc:__ZN2UI6Canvas12AddToManagerEv
Syc:_UNITY_tt_face_load_sbit
Hhh:_ShimEnumerator_get_Current_m2516732679_gshared
DDc:_cf2_hint_isTop
_Ub:__ZN23ManagedAttributeManager21GetRequiredComponentsE17ScriptingClassPtr
QWb:__Z23InitializeStdConvertersv
LSe:_Collection_1_Contains_m3292349561_gshared
uld:_Image_SetNativeSize_m3580044470
mOb:__ZN19ShaderPropertySheet17UpdateTextureInfoEiRK23FastTexturePropertyNamePK10TextureRef
WBc:_ps_unicodes_init
KGb:__ZZ23InitPlayerLoopCallbacksvEN38PreUpdateCheckTexFieldInputRegistrator7ForwardEv
d2i:__ZNK10KeyWrapperINSt3__24pairIPKcS3_EEE14EqualsComparerI26NamespaceAndNamePairEqualsEclERKS5_SA_
SAb:__ZN13MonoBehaviour17StopAllCoroutinesEv
U4:__Z34CleanupIntermediateRendererManagerPv
qfe:_X509CertificateEnumerator__ctor_m1500464146
wKf:_Type_get_IsPointer_m3832342327
N$i:__ZN6il2cpp2vm9Exception27GetExecutionEngineExceptionEPKc
lnh:_Dictionary_2_System_Collections_ICollection_CopyTo_m2784181332_gshared
dh:_JS_WebRequest_GetResponseHeaders
kCb:__ZNSt3__26__treeINS_12__value_typeI26SerializedObjectIdentifieriEENS_19__map_value_compareIS2_S3_NS_4lessIS2_EELb1EEENS_9allocatorIS3_EEE7destroyEPNS_11__tree_nodeIS3_PvEE
qyc:_UNITY_FT_Create_Class_tt_cmap_classes
BQi:__ZN15dense_hashtableINSt3__24pairIK10KeyWrapperINS1_IPK14Il2CppAssemblyP11Il2CppClassEEEjEES9_17ReflectionMapHashIS8_EN14dense_hash_mapIS9_jSD_NS9_14EqualsComparerINS0_8equal_toIS8_EEEENS0_9allocatorISB_EEE9SelectKeyESI_SK_EC2ERKSN_j
H8b:__ZN9Scripting18RaiseNullExceptionEPKcz
E_e:_ReadOnlyCollection_1_System_Collections_IList_Insert_m2659121605_gshared
h7:__ZN13RuntimeStaticI13RendererSceneLb0EE16StaticInitializeEPv
U7g:_RawImage_SetNativeSize_m672994452
oh:_glCreateProgram
LUi:__ZN6il2cpp2vm10Reflection7IsFieldEP12Il2CppObject
s$d:_Array_InternalArray__ICollection_CopyTo_TisContentType_t1028629049_m330597634_gshared
Wyd:_SimpleEnumerator_Reset_m3524591211
gFa:__ZN24GenerateTypeTreeTransfer32TransferSTLStyleArrayWithElementI17SortingLayerEntryEEvRT_17TransferMetaFlags
Qtj:_glUniformMatrix3fv__wrapper
uKa:__ZN5Light9SetupHaloEv
uvb:__Z18Transfer_BlittableI18StreamedBinaryReadILb1EELb1E12PropertyNameEvRK29SerializationCommandArgumentsR31RuntimeSerializationCommandInfo
n2c:_SecurityFrame__ctor_m3738328608_AdjustorThunk
GVi:__ZN15dense_hashtableINSt3__24pairIK10KeyWrapperIPK22Il2CppGenericParameterEPK24MonoGenericParameterInfoEES6_N6il2cpp5utils11PointerHashIS4_EEN14dense_hash_mapIS6_SA_SF_NS6_14EqualsComparerINS0_8equal_toIS5_EEEENS0_9allocatorISB_EEE9SelectKeyESK_SM_EC2ERKSP_j
fZ:__ZN23TransformChangeDispatch12CleanupClassEPv
X7b:__ZN8UserList11SendMessageERK17MessageIdentifier
eNc:__Z33Canvas_Get_Custom_PropScaleFactorP12Il2CppObject
dC:__ZNK26AnimatorControllerPlayable21GetStateMachineMemoryEi
xPi:__ZN6il2cpp2vm14TypeNameParser17ConsumeIdentifierEv
c1c:_EvidenceEnumerator_get_Current_m632582639
zRb:__Z15CullLocalLightsR8JobFenceS0_RK22SceneCullingParametersiPK8Vector4fRK13dynamic_arrayIhLj1EER9IndexListSC_PfP5RectTIfEP13TargetEyeMaskPPK5LightRK14ShadowCullData
z6c:_DecoderFallback_get_ReplacementFallback_m2155645318
qIa:__ZNK6Camera16GetTargetTextureEv
PTc:__ZNK20UnityWebRequestProtoI24UnityWebRequestTransport16AtomicRefCounter14RedirectHelper14ResponseHelper15DownloadHandler13UploadHandler12HeaderHelper14AsyncOperationE17GetUploadProgressEv
$Fd:_Convert_ToDateTime_m3528521877
Xmb:__Z35Transfer_Blittable_SingleValueFieldI14SafeBinaryReadyEvRT_R17GeneralMonoObjectRK23StaticTransferFieldInfo
PSa:__ZN8Playable20ClearInputConnectionEi
TKb:__ZN13BatchRenderer12EndLoopFlushEv
BPd:_Enum_System_IConvertible_ToChar_m1838232954
DRd:_CultureInfo_CreateTextInfo_m2269397562
nrd:_Array_SetValue_m2469980129
j6b:__ZNK6Sprite11GetInnerUVsE20SpriteRenderDataMode
LC:__ZN11UnityEngine9Animation28DestroyAvatarBindingConstantEPNS0_21AvatarBindingConstantERN7mecanim6memory9AllocatorE
Po:FUNCTION_TABLE_iiiiiiiiiiiiiii
asb:__Z29Transfer_Blittable_ArrayFieldI24GenerateTypeTreeTransfer11ColorRGBA32EvRT_R9ArrayInfoRK23StaticTransferFieldInfo
P$b:__ZN16MessageForwarder23RegisterMessageCallbackEiPFvPviR11MessageDataEPKN5Unity4TypeE
dOi:__ZN6il2cpp2os4File9SetLengthEPNS0_10FileHandleExPi
pMa:__ZN4Mesh30AcquireSharedMeshRenderingDataEv
_h:_gmtime
fi:_emscripten_glUniform3i
jfa:__ZNK7ApiGLES10GetContextEv
P2c:_Single_System_IConvertible_ToInt16_m962677079_AdjustorThunk
slb:__Z18Transfer_BlittableI14SafeBinaryReadLb1E5RectTIfEEvRK29SerializationCommandArgumentsR31RuntimeSerializationCommandInfo
_Ya:__ZN15TextureSettings14SetAnisoLimitsEii
Vrb:__Z19TransferField_ArrayI24GenerateTypeTreeTransfer27Converter_SimpleNativeClassI10RectOffsetEEvRK23StaticTransferFieldInfoR31RuntimeSerializationCommandInfoRT0_
rla:__ZN6prcoreL17RemapGenericFloatI18TexFormatARGBFloat15TexFormatRGHalfEEvPKNS_9InnerInfoE
yNi:_il2cpp_object_unbox
n0c:_String_memcpy2_m2338403668
Jvh:_InternalEnumerator_1_get_Current_m4154615771_AdjustorThunk
qkb:__ZNSt3__26vectorI4PPtrI10MonoScriptE13stl_allocatorIS3_L18MemLabelIdentifier78ELi16EEE8__appendEj
T0d:_Array_InternalArray__set_Item_TisDateTime_t693205669_m197118909_gshared
wWf:_ModuleBuilder_GetToken_m4190668737
Kzj:_emscripten_glIsProgram__wrapper
D2b:__ZL22PrepareMeshRenderNodesILb1EEvR35RenderNodeQueuePrepareThreadContext
usg:__ZL66NativeContainerAttribute_t269240268_CustomAttributesCacheGeneratorP21CustomAttributesCache
POi:__ZN6il2cpp2vm14TypeNameParser25ConsumeAssemblyIdentifierEv
Xib:__ZN20LocalFileSystemPosix5TouchER13FileEntryData
Doc:__ZN9JSONWrite8TransferI13dynamic_arrayItLj2EEEEvRT_PKc17TransferMetaFlags
VGf:_NativeEventCalls_SetEvent_internal_m2449488771
vi:_emscripten_glDrawElements
W8:__ZN15dense_hashtableINSt3__24pairIKN4core12basic_stringIcNS2_20StringStorageDefaultIcEEEE13dynamic_arrayI4PPtrI6SpriteELj4EEEES6_20StringHash32FunctionIS6_EN14dense_hash_mapIS6_SC_SF_NS0_8equal_toIS6_EE13stl_allocatorISD_L18MemLabelIdentifier81ELi16EEE9SelectKeyESI_SL_ED2Ev
xZc:_RSAPKCS1SignatureDeformatter_SetHashAlgorithm_m894366837
nfe:_X509Certificate_get_DSA_m3959895595
Ktd:_Boolean_System_IConvertible_ToDouble_m624978277
GNd:_Delegate_get_Method_m2968370506
edd:_Button__ctor_m975719067
$_f:_MonoProperty_GetValue_m2150318626
qJf:_TimeSpan_CompareTo_m2891128664
hA:__ZN9BlobWriteD2Ev
z_h:_Input_get_mouseScrollDelta_m3621133506
Flb:__ZL26Transfer_SimpleNativeClassI14SafeBinaryRead8GradientLb0EEvRK29SerializationCommandArgumentsR31RuntimeSerializationCommandInfo
Yyj:_emscripten_glClientActiveTexture__wrapper
KHi:__ZNK15dense_hashtableI10KeyWrapperIPK17Il2CppGenericInstES4_N6il2cpp8metadata21Il2CppGenericInstHashEN14dense_hash_setIS4_S7_NS4_14EqualsComparerINS6_24Il2CppGenericInstCompareEEENSt3__29allocatorIS4_EEE8IdentityESB_SE_E4findERKS4_
J_h:_Input_get_compositionString_m3305020009
tRg:__Z71RuntimeInvoker_Double_t4078015681_Double_t4078015681_Double_t4078015681PFvvEPK10MethodInfoPvPS4_
$9d:_PrimalityTests_RabinMillerTest_m1376858197
HWc:_HMACSHA1__ctor_m2027292306
ZBf:_DES_Create_m2705450713
g4h:_X509CertificateCollection_Remove_m2722259192
MYd:_Array_InternalArray__IndexOf_TisSingle_t2076509932_m2151846718_gshared
aPa:__ZN13RenderTexture23VirtualRedirectTransferER18StreamedBinaryReadILb0EE
Oei:_GUIUtility_CheckOnGUI_m4132974677
ieg:__ZL56StringBuilder_t1221177846_CustomAttributesCacheGeneratorP21CustomAttributesCache
Hle:_NumberFormatter_FormatHexadecimal_m1317851390
qzc:_UNITY_tt_face_lookup_table
gof:_X509Certificate2Collection_AddRange_m1503879780
mlc:__ZN5Unity9rapidjson13GenericReaderINS0_4UTF8IcEES3_13JSONAllocatorE9ParseHex4INS0_25GenericInsituStringStreamIS3_EEEEjRT_
Qpa:__Z17ComputeMipmapSizeiii14GraphicsFormat
Qqe:_StreamReader__ctor_m871771009
pDc:_cf2_stack_pushFixed
sia:__ZN4crnd12crn_unpacker12unpack_dxt5aEPPhjjjjjj
yRh:_AnchorInfo_get_Length_m1721106162
rwf:_RemotingConfiguration_RegisterActivatedClientType_m2207611714
_ih:_Transform_1_Invoke_m1224512163_gshared
aij:__ZN6il2cpp2os5Mutex4LockEb
Qjd:_GraphicRaycaster_Raycast_m3351280444
gxb:__Z29Transfer_Blittable_ArrayFieldI18StreamedBinaryReadILb1EE8Vector2fEvRT_R9ArrayInfoRK23StaticTransferFieldInfo
xMc:__Z50CanvasRenderer_CUSTOM_CreateUIVertexStreamInternalP12Il2CppObjectS0_S0_S0_S0_S0_S0_S0_S0_S0_
W5:__ZN14PlayableOutput15PrepareTraverseERK9FrameData
t0i:__ZN6il2cpp2vm13LivenessState25FieldCanContainReferencesEP9FieldInfo
Uzb:__ZL19RequireCorLibMethodPKcS0_S0_
_va:__ZNK5Unity9Component22GetTypeVirtualInternalEv
S5f:__ZL111RegionInfo_t3784626978_CustomAttributesCacheGenerator_RegionInfo_t3784626978____CurrencyNativeName_PropertyInfoP21CustomAttributesCache
Vl:_emscripten_get_fullscreen_status
iXc:_MD5_Create_m1572997499
Xge:_AppDomain_LoadAssembly_m1537679648
ema:__ZN6prcoreL26RemapGenericIntegerToFloatI17TexFormatARGB888817TexFormatRGBFloatEEvPKNS_9InnerInfoE
hOg:__Z146RuntimeInvoker_Void_t1841601450_RuntimeObject_RuntimeObject_Int64_t909078037_RuntimeObject_RuntimeObject_RuntimeObject_RuntimeObject_RuntimeObjectPFvvEPK10MethodInfoPvPS4_
MSb:__ZN15LODGroupManager27GarbageCollectCameraLODDataEv
qza:__ZN11NamedObjectC2E18MemLabelIdentifier18ObjectCreationMode
$Vb:__ZN13ScreenManagerC2Ev
Bze:_OrdinalComparer_GetHashCode_m3400975772
Zv:__ZN7mecanim20ValueArrayBlendBeginILb1EEEvRNS_14ValueArrayMaskE
$hc:__ZN12GUIClipState20CalculateMouseValuesER10InputEvent
grb:__Z18Transfer_BlittableI24GenerateTypeTreeTransferLb0E12PropertyNameEvRK29SerializationCommandArgumentsR31RuntimeSerializationCommandInfo
ffa:__ZN7ApiGLES4InitERK14GfxContextGLESR16GfxDeviceLevelGL
PHa:__ZNK11LightProbes14LightProbeData33GetLightProbeInterpolationWeightsERK8Vector3fRiR8Vector4fRf
fvf:_SoapServices_GetAssemblyName_m2037446159
ZU:__ZN21UnityDefaultAllocatorI17LowLevelAllocatorED0Ev
lXa:__ZN8Renderer15SetIsRenderableEb
Bwh:_InternalEnumerator_1_System_Collections_IEnumerator_get_Current_m1313308902_AdjustorThunk
SMf:_UInt32_System_IConvertible_ToInt64_m3091851828_AdjustorThunk
sma:__Z14DecodeBC7BlockP9HDRColorAPKh
o2b:__ZNK24RendererAnimationBinding12GetPPtrValueERKN11UnityEngine9Animation10BoundCurveE
ibf:_ClientSessionCache__cctor_m1134810266
uSh:_CharacterClass_GetIntervalCost_m2706255216
LCb:__Z29FindRelativeTransformWithPathR9TransformPKcb
qyf:_ObjectReader_ReadGenericArray_m788836286
rfj:_GC_new_proc_inner
hc:invoke_fiiffi
JOa:__ZN19RenderBufferManager13GetTempBufferE17RenderTextureDesc
mEc:_UNITY_FT_Init_Class_cff_service_glyph_dict
Jkb:__Z35Transfer_Blittable_FixedBufferFieldI14SafeBinaryReadiEvRK29SerializationCommandArgumentsR31RuntimeSerializationCommandInfo
$Yh:_InvokableCallList_AddPersistentInvokableCall_m452514359
eYc:_RijndaelManagedTransform_TransformFinalBlock_m3663752599
l5c:_String_Format_m4262916296
vJb:__ZNK25CameraStackRenderingState21IsRenderingLastCameraEv
Eja:__ZL24stbir__filter_catmullromff
m8d:_SimpleCollator_CompareInternal_m280569710
Iuc:__ZN20TextRenderingPrivate15GetFormatStringER11UTF16StringR13dynamic_arrayINS_16TextFormatChangeELj4EE
Dnf:_X509ExtensionEnumerator_get_Current_m3926549773
VRg:__Z77RuntimeInvoker_TimeSpan_t3430258949_TimeSpan_t3430258949_TimeSpan_t3430258949PFvvEPK10MethodInfoPvPS4_
pLi:__ZN6il2cpp6icalls8mscorlib6SystemL16CheckMemberMatchI9EventInfoNS_5utils10functional6FilterINSt3__212basic_stringIcNS8_11char_traitsIcEENS8_9allocatorIcEEEENS5_13VmStringUtils21CaseSensitiveComparerEEEEEbPKT_PK11Il2CppClassSN_iRKT0_
Sle:_NumberFormatter_IsZeroOnly_m3495795110
gle:_Int32_ValidDigit_m2682121722
WUb:__Z23ValidateScriptComponentP10MonoScriptPN4core12basic_stringIcNS1_20StringStorageDefaultIcEEEE
Ot:__ZN7mecanim9animation12GetHumanPoseIfEEvRKNS0_18ClipMuscleConstantEPKT_RNS_5human9HumanPoseE
d$a:__ZNSt3__215__inplace_mergeIRNS_4lessI4PPtrI11SpriteAtlasEEENS_11__wrap_iterIPS4_EEEEvT0_SA_SA_T_NS_15iterator_traitsISA_E15difference_typeESE_PNSD_10value_typeEi
Oej:_GC_init_headers
Ahj:__ZNSt3__26__treeINS_12__value_typeINS_12basic_stringIcNS_11char_traitsIcEENS_9allocatorIcEEEEPFvvEEENS_19__map_value_compareIS7_SA_NS_4lessIS7_EELb1EEENS5_ISA_EEE13__lower_boundIS7_EENS_15__tree_iteratorISA_PNS_11__tree_nodeISA_PvEEiEERKT_SM_SM_
IFb:__ZN26SinglePassStereoSupportExt27InitSinglePassStereoSupportEP21ISinglePassStereoImplP9GfxDevice
dxc:_UNITY_FT_Init_Class_ft_outline_glyph_class
w5h:_PlayableBinding__cctor_m98050961
Mld:_Image_get_preferredHeight_m1045199335
QU:__ZNSt3__23mapIN19CloudServiceHandler11ServiceTypeEPS1_NS_4lessIS2_EE13stl_allocatorINS_4pairIKS2_S3_EEL18MemLabelIdentifier88ELi16EEEixERS8_
Fmf:_X509BasicConstraintsExtension__ctor_m4017912156
DWg:__Z75RuntimeInvoker_Playable_t1896841784_PlayableGraph_t1041204988_RuntimeObjectPFvvEPK10MethodInfoPvPS4_
Zsj:_glTexStorage3D__wrapper
aCc:_ft_get_adobe_glyph_index
uhj:__ZNSt3__26__treeINS_12__value_typeINS_12basic_stringIcNS_11char_traitsIcEENS_9allocatorIcEEEEPFvvEEENS_19__map_value_compareIS7_SA_NS_4lessIS7_EELb1EEENS5_ISA_EEE25__emplace_unique_key_argsIS7_JRKNS_21piecewise_construct_tENS_5tupleIJOS7_EEENSL_IJEEEEEENS_4pairINS_15__tree_iteratorISA_PNS_11__tree_nodeISA_PvEEiEEbEERKT_DpOT0_
Pfc:__Z47Register_UnityEngine_Texture_Internal_GetHeightv
sBb:__Z25scripting_field_get_flags17ScriptingFieldPtr
q1h:_MessageEvent__ctor_m1822782644
p9g:_Scrollbar_OnBeginDrag_m574021735
ooh:_Dictionary_2_Add_m790520409_gshared
Pqc:__ZN8JSONRead8TransferIyEEvRT_PKc17TransferMetaFlagsb
mlb:__Z18Transfer_BlittableI14SafeBinaryReadLb0EtEvRK29SerializationCommandArgumentsR31RuntimeSerializationCommandInfo
Pth:_U3CGetEnumeratorU3Ec__Iterator0_MoveNext_m2489948797_gshared
QV:__ZNK20DynamicHeapAllocatorI17LowLevelAllocatorE8ContainsEPKv
Ly:__ZN23AnimationPlayableOutput7DestroyEv
_Ng:__Z128RuntimeInvoker_Void_t1841601450_Byte_t3683104436_RuntimeObject_SByte_t454417549_ObjectU26_t597476745_HeaderU5BU5DU26_t2818328198PFvvEPK10MethodInfoPvPS4_
QXh:_Debug_LogError_m3299155069
S$i:__ZN6il2cpp2vm14PlatformInvoke36MarshalCppStringToCSharpStringResultEPKc
uQb:__ZN8Material23GetStencilWriteMaterialEv
Roa:__Z12GetBlockSize14GraphicsFormat
_ve:_Math_Log_m3325929366
Ugf:_SslStreamBase_Flush_m2762644405
RQh:_Assertion__ctor_m1169129098
Aei:_Event_PopEvent_m4241312794
eFa:__ZN10TagManager8TransferI24GenerateTypeTreeTransferEEvRT_
j8g:_ReflectionMethodsCache_get_Singleton_m2330935729
prf:_InterpreterFactory_get_GroupCount_m1785101782
cxd:_CharEnumerator_Clone_m3844021309
mbe:_BlockProcessor_Initialize_m3476609078
K6b:__Z35AllocExtractMeshComponentFromScriptRK4Mesh30InternalScriptingShaderChannel34InternalScriptingVertexChannelTypei
_v:__ZN7mecanim12SetValueMaskILb1EEEvPNS_14ValueArrayMaskEb
NEa:__ZN10TagManager23VirtualRedirectTransferER24GenerateTypeTreeTransfer
R0e:_ReadOnlyCollection_1_System_Collections_IList_Remove_m688362945_gshared
CTd:_Array_InternalArray__ICollection_Contains_TisMonoResource_t3127387157_m1257352693_gshared
yja:__ZL23stbir__filter_trapezoidff
GP:__Z44Register_UnityEngine_AudioClip_get_ambisonicv
kqf:_Key_GetHashCode_m345804220
CJf:_TimeSpan_FromHours_m2521548378
YOd:_Double_System_IConvertible_ToUInt16_m286326038
KTb:__ZN23ScriptableRenderContextD2Ev
uia:__ZN4crnd12crn_unpacker11unpack_dxt1EPPhjjjjjj
Lee:_PKCS12__ctor_m3492967071
kSi:__ZN15dense_hashtableINSt3__24pairIK10KeyWrapperINS1_IPK10MethodInfoP11Il2CppClassEEEjEES9_17ReflectionMapHashIS8_EN14dense_hash_mapIS9_jSD_NS9_14EqualsComparerINS0_8equal_toIS8_EEEENS0_9allocatorISB_EEE9SelectKeyESI_SK_E15insert_noresizeERKSB_
IHc:__Z32TextGenerator_CUSTOM_Dispose_cppP12Il2CppObject
TVf:_MethodBuilder_GetCustomAttributes_m923430117
LZi:__ZN6il2cpp6icalls8mscorlib6System19ExtractWidenedValueE14Il2CppTypeEnumPv
wCh:_InternalEnumerator_1_get_Current_m2198364332_gshared
jfi:_GUILayoutUtility_INTERNAL_CALL_Internal_GetWindowRect_m3180933350
Zej:_GC_invoke_finalizers
MDh:_InternalEnumerator_1_get_Current_m1715820327_gshared
zlb:__Z18Transfer_BlittableI14SafeBinaryReadLb0E8BitFieldEvRK29SerializationCommandArgumentsR31RuntimeSerializationCommandInfo
GWf:_OpCode_GetHashCode_m2974727122_AdjustorThunk
oTf:_EnumBuilder_get_BaseType_m63295819
Gvd:_Byte_ToString_m1309661918_AdjustorThunk
cHh:_Comparer_1_System_Collections_IComparer_Compare_m1153499515_gshared
Ppe:_Directory_CreateDirectoriesInternal_m2817848291
Qme:_Int32_System_IConvertible_ToInt64_m3790029067
bxh:_InternalEnumerator_1_System_Collections_IEnumerator_get_Current_m3546309124_gshared
SHa:__ZNK10GameObject25QueryComponentByExactTypeEPKN5Unity4TypeE
WFf:_UTF7Encoding_GetDecoder_m396865028
IGa:__ZNK9ShaderLab22ShaderStencilStateDesc17ToGfxStencilStateEPK19ShaderPropertySheetS3_RK14GfxRasterStateR15GfxStencilState
hvi:_Hacker_CheckPassword_m4100071066
vce:_SmallXmlParser_ReadContent_m4038164984
b5h:_X509Extension_WriteLine_m364247613
Fzc:_tt_cmap0_char_next
KYb:__ZN15GUIEventManager10QueueEventERK10InputEvent
tma:__Z15DecodeBC6HBlockP9HDRColorAPKh
l_b:__Z13RegisterClassI10GUIElementEvv
fne:_Int32_Equals_m753832628_AdjustorThunk
efj:_GC_malloc_uncollectable
pAd:_CollectionBase_System_Collections_IList_get_IsReadOnly_m2883787483
zjb:__ZNK16MemoryFileSystem6ParentERK13FileEntryDataRN4core12basic_stringIcNS3_20StringStorageDefaultIcEEEE
Byi:_Canvas_get_targetDisplay_m150918273
xpa:__ZN15dense_hashtableINSt3__24pairIKPK17RenderSurfaceBaseP13RenderTextureEES4_19PointerHashFunctionIS4_EN14dense_hash_mapIS4_S7_SA_NS0_8equal_toIS4_EE13stl_allocatorIS8_L18MemLabelIdentifier67ELi16EEE9SelectKeyESD_SG_E9copy_fromERKSJ_j
y4:__ZN15LODGroupManagerD2Ev
Trc:__ZN8JSONRead21TransferSTLStyleArrayI13dynamic_arrayIN4math12int2_storageELj4EEEEvRT_17TransferMetaFlags
NPf:_Assembly_IsDefined_m2841897391
QNi:__GLOBAL__sub_I_File_cpp
CBa:__ZN12IFileAdapter9SetLengthER13FileEntryDatay
Umd:_InputField_set_lineType_m3589045448
ffc:__Z39SortingLayer_CUSTOM_GetLayerValueFromIDi
Jc:_Mix_PlayMusic
xEc:_cff_cmap_encoding_init
Ath:_EqualityComparer_1_System_Collections_IEqualityComparer_GetHashCode_m2460068977_gshared
BTc:__Z34GetUnityWebRequestScriptingClassesv
gEb:__ZN19RuntimeSceneManager24PrepareNewBootstrapSceneEv
Tqd:_Array_GetLongLength_m3005360186
vwa:__ZN10SpookyHash7Hash128EPKvjPyS2_
dSb:__ZL60CombineDirectionalShadowCasterCullingIndexListsAndDestroyJobP20ShadowCullingJobData
gke:_Guid_ToString_m3858592945_AdjustorThunk
ezh:_InternalEnumerator_1_get_Current_m3206960238_gshared
Lcf:_TlsClientCertificate_ProcessAsSsl3_m3634449507
h1c:_Hash_GetData_m3416116641
tWc:_HMAC_get_Block_m1367204253
cdb:__ZN9ShaderLab18SerializedPropertyC2ERKS0_
cCc:_cff_driver_init
phd:_Dropdown_AlphaFadeList_m511547679
eTd:_Array_InternalArray__ICollection_Contains_TisChar_t3454481338_m1444673620_gshared
Z0b:__ZN16ReflectionProbes20DidChangeActiveSceneEP10UnitySceneS1_
Ple:_NumberFormatter_RoundDecimal_m176606570
xLg:__Z90RuntimeInvoker_RuntimeObject_RuntimeObject_SByte_t454417549_RuntimeObject_SByte_t454417549PFvvEPK10MethodInfoPvPS4_
Nrf:_Interval_Contains_m3209397137_AdjustorThunk
TZa:__ZN16SpriteRenderData8TransferI14SafeBinaryReadEEvRT_
JGd:_Convert_ToDouble_m1714698801
byi:_TextGenerator_GetLines_m387280398
GCh:_InternalEnumerator_1_get_Current_m35328337_gshared
E3b:__ZN6CameraC2E18MemLabelIdentifier18ObjectCreationMode
nQb:__ZL31SetRenderStateForStencilMarkingR9GfxDeviceR17ShaderPassContextjj
oCa:__ZN20ArchiveStorageReader20FillChunkCachedBlockEPNS_11CachedBlockE
hM:__ZN10AudioMixer16ResumeProcessingEv
DWe:_Collection_1_ConvertItem_m2559468638_gshared
hQh:_Parser_GetMapping_m2879066771
unb:__ZNSt3__26vectorI17AnimationCurveTplIfE13stl_allocatorIS2_L18MemLabelIdentifier1ELi16EEE7reserveEj
qad:_PointerEventData_get_dragging_m220490640
Yve:_Math_Ceiling_m614624719
o5e:_BigInteger_op_Inequality_m4286929594
mEg:__ZL80CanvasScaler_t2574720772_CustomAttributesCacheGenerator_m_ReferencePixelsPerUnitP21CustomAttributesCache
X1c:_SecurityException__ctor_m230238597
dLc:__ZN2UI13CanvasManager21EmitGeometryForCameraEP6Camera
$0:__Z31AudioFilterReadValidateCallback18ScriptingMethodPtr17ScriptingClassPtrP6Object
Kle:_CustomInfo_Parse_m3558073058
cAe:_KeyValuePair_2_get_Value_m1916631176_gshared
ceb:__ZN9ShaderLab16SerializedTagMap8TransferI19StreamedBinaryWriteILb0EEEEvRT_
Rlh:_Dictionary_2_InitArrays_m3810830177_gshared
z7h:_Rect_get_size_m1353657457_AdjustorThunk
B_i:__ZN6il2cpp6icalls8mscorlib6System9Threading6Thread25SetCachedCurrentUICultureEP12Il2CppThreadP12Il2CppObject
wzj:_glIsVertexArray__wrapper
Tvf:_RemotingServices_DisposeIdentity_m266836454
sZc:_RSAPKCS1KeyExchangeFormatter_SetRSAKey_m3575964424
avc:_UNITY_FT_Bitmap_Convert
gFd:_DateTimeUtils_GetStandardPattern_m4198947977
eSb:__Z22CullDirectionalShadowsR9IndexListPK9SceneNodePK4AABBR22DirectionalCullContext
R5d:_Array_InternalArray__get_Item_TisUInt16_t986882611_m2599215710_gshared
IHh:_Enumerator_System_Collections_IEnumerator_Reset_m2828524109_gshared
RQf:_Default_IsArrayAssignable_m3862319150
z2h:_PKCS12_MAC_m3228833816
r_h:_IL2CPPStructAlignmentAttribute__ctor_m3421252534
YHi:__ZN15dense_hashtableINSt3__24pairIK10KeyWrapperIPK11Il2CppClassEPKcEES6_N6il2cpp5utils11PointerHashIS3_EEN14dense_hash_mapIS6_S9_SE_NS6_14EqualsComparerINS0_8equal_toIS5_EEEENS0_9allocatorISA_EEE9SelectKeyESJ_SL_E4findERS7_
ule:_NumberFormatter_FastAppendDigits_m2324805728
MT:__ZN11UnityEngine15CloudWebService14RestDownloader7OnAbortEv
Hyf:_FormatterServices_GetUninitializedObject_m1786947853
oL:__ZNK11AudioSource22GetTypeVirtualInternalEv
fda:__ZNK13GfxDeviceGLES18GetDefaultRTFormatEv
rGc:_UNITY_FT_Get_Glyph_Name
JHa:__Z13VFormatBufferPciPKcPi
Wrb:__Z19TransferField_ArrayI24GenerateTypeTreeTransfer27Converter_SimpleNativeClassI8GradientEEvRK23StaticTransferFieldInfoR31RuntimeSerializationCommandInfoRT0_
K$h:_Mathf_FloorToInt_m824771903
bah:_ScrollRect_get_vertical_m3957330783
Zmg:__ZL98GameObject_t1756533147_CustomAttributesCacheGenerator_GameObject_SendMessage_m3423113156____value1P21CustomAttributesCache
oR:__ZN11UnityEngine15CloudWebService16SessionContainer16MarkAsDispatchedERKN4core12basic_stringIcNS2_20StringStorageDefaultIcEEEE
T5i:__ZN6il2cpp2vm12GenericClass6IsEnumEP18Il2CppGenericClass
ugc:__Z26Transform_CUSTOM_IsChildOfP12Il2CppObjectS0_
Nij:__ZNSt3__26vectorINS_12basic_stringIDsNS_11char_traitsIDsEENS_9allocatorIDsEEEENS4_IS6_EEE18__construct_at_endEj
M9d:_BigInteger_op_Subtraction_m2941563507
r2b:__ZN13ProduceHelperI11PreloadDataLb0EE7ProduceE18MemLabelIdentifier18ObjectCreationMode
Xgh:_Enumerator_Reset_m3129803197_gshared
rvj:_glDeleteSamplers__wrapper
Caa:__ZNK13GfxDeviceGLES11GetViewportEv
t7b:__ZN14AsyncOperation26ClearCachedScriptingObjectEv
pQa:__ZNK9ShaderLab11ShaderState34ShouldRemoveAnyUnsupportedProgramsEv
oGc:_UNITY_tt_face_load_cvt
kMa:__ZN19ShaderPropertySheet29PreallocateArrayUninitializedEN9ShaderLab16FastPropertyNameENS_12PropertyTypeEj
tLh:_CrossAppDomainData__ctor_m899931420
TIi:__ZL32InitializeCustomAttributesCachesPv
ZCa:__ZN20ArchiveStorageReaderD0Ev
vab:__ZN6Shader23VirtualRedirectTransferER19StreamedBinaryWriteILb0EE
Vxd:_ArrayListWrapper__ctor_m3783588291
qtf:_MethodCall_get_MethodBase_m688041003
YTc:__ZN19TransportJavaScript7PrepareEv
wTd:_Array_InternalArray__ICollection_Contains_TisRuntimeObject_m4286375615_gshared
FOh:_Match_NextMatch_m1088868049
seh:_Text_OnPopulateMesh_m835520031
S4a:__ZN10VRSettings9Cardboard8TransferI14SafeBinaryReadEEvRT_
n3a:__ZNSt3__214__split_bufferI9InputAxisRNS_9allocatorIS1_EEED2Ev
_ib:__ZNK20LocalFileSystemPosix20GetApplicationFolderEv
qR:__ZN11UnityEngine15CloudWebService14DataDispatcher31SetupSessionContainerToDispatchEv
Fzb:__Z29Transfer_Blittable_ArrayFieldI18StreamedBinaryReadILb0EE8Vector3fEvRT_R9ArrayInfoRK23StaticTransferFieldInfo
KUd:_Array_InternalArray__ICollection_Remove_TisResourceInfo_t3933049236_m1768394498_gshared
T7e:_RSAManaged_get_KeySize_m3478823737
Yv:__ZN7mecanim29TransformValueArrayBlendBeginEiiiRNS_14ValueArrayMaskE
J$h:_Mathf_CeilToInt_m3598987444
E7g:_Shadow_ApplyShadowZeroAlloc_m2132231878
UGa:__ZN9ShaderLab11shaderprops9GetVectorEPK19ShaderPropertySheetS3_NS_16FastPropertyNameE
YH:__ZN4FMOD12ChannelGroup10getDSPHeadEPPNS_3DSPE
$Ae:_Enumerator_System_Collections_IEnumerator_Reset_m610822832_gshared
jFc:_UNITY_tt_size_run_prep
sH:__ZN12AudioManager17MainThreadCleanupEv
DFf:_UTF32Encoding_GetByteCount_m77034086
iGa:__ZNK6Camera18ScreenToWorldPointERK8Vector3f
o_i:__ZN6il2cpp6icalls8mscorlib6System9Threading6Thread11GetDomainIDEv
hga:__ZNK13TranslateGLES13GetFormatDescE14GraphicsFormat
R6h:_Vector3_op_Addition_m394909128
Lza:__ZN17ArchiveFileSystemD0Ev
sVh:_AttributeHelperEngine__cctor_m715531257
BHf:_Thread_get_CurrentContext_m3123598616
jAi:__ZL22div192by96to32withRestPyS_S_jjj
aPb:__ZN14qsort_internal5QSortIP20ShadowCasterSortDatai26ShadowCasterSortDataSorterEEvT_S4_T0_T1_
spd:_LayoutElement_set_layoutPriority_m3326469165
XT:__ZN11UnityEngine15CloudWebService19SessionEventManager5StartERKN4core12basic_stringIcNS2_20StringStorageDefaultIcEEEEii
vic:__ZN16GUIKeyboardState16SaveFromGUIStateER8GUIState
pnb:__Z22TransferField_NonArrayI14SafeBinaryRead27Converter_SimpleNativeClassI8GradientEEvRK23StaticTransferFieldInfoR31RuntimeSerializationCommandInfoRT0_
xf:_emscripten_glBufferData
XKc:__ZZN2UI23InitializeCanvasManagerEvEN53UIEventsCanvasManagerEmitOffScreenGeometryRegistrator7ForwardEv
Bf:_glUniform3iv
sld:_Image_OnAfterDeserialize_m457193290
imj:___fseeko
Nmc:__Z18Transfer_BlittableI9JSONWriteLb0E9BoundsIntEvRK29SerializationCommandArgumentsR31RuntimeSerializationCommandInfo
KZd:_Array_InternalArray__ICollection_Add_TisInt16_t4041245914_m321723604_gshared
LHf:_Thread_SetCachedCurrentUICulture_m1504514384
Pmj:_fwrite
Y6c:_BaseInput_get_compositionCursorPos_m3148596268
H6c:_AxisEventData_set_moveVector_m3227339885
Fjh:_Enumerator_MoveNext_m1212551889_gshared
jAb:__ZN13MonoBehaviourD0Ev
gge:_X509CertificateEnumerator_Reset_m3421070487
sKc:__ZN2UI6Canvas18UpdateEventIndexesEv
$wd:_CharEnumerator_System_Collections_IEnumerator_get_Current_m1338581333
x6c:_DecoderFallback__cctor_m215821245
T7c:_EventSystem_set_current_m1323649628
Bec:__Z50RectTransform_CUSTOM_INTERNAL_set_anchoredPositionP12Il2CppObjectRK13Vector2fIcall
Ucb:__ZNSt3__26vectorIN9ShaderLab19SerializedSubShaderENS_9allocatorIS2_EEE6resizeEj
gNd:_Decimal_Multiply_m1884379383
kza:__ZN4FileC2Ev
jNh:_Context_GetNamedDataSlot_m372993642
NSf:_DerivedType_GetAttributeFlagsImpl_m876862795
qSi:__ZN15dense_hashtableINSt3__24pairIK10KeyWrapperINS1_IPK10MethodInfoP11Il2CppClassEEEjEES9_17ReflectionMapHashIS8_EN14dense_hash_mapIS9_jSD_NS9_14EqualsComparerINS0_8equal_toIS8_EEEENS0_9allocatorISB_EEE9SelectKeyESI_SK_E12maybe_shrinkEv
zEa:__ZN14BatchAllocator16AllocateInternalEPPvijjj
E_b:__Z13RegisterClassI6SpriteEvv
$cj:_min_bytes_allocd
uwb:__ZN17AnimationCurveTplIfE15InvalidateCacheEv
ehc:__Z29Mesh_Get_Custom_PropCanAccessP12Il2CppObject
E_a:__ZN6Sprite8TransferI19StreamedBinaryWriteILb0EEEEvRT_
Gvb:__Z35Transfer_Blittable_FixedBufferFieldI18StreamedBinaryReadILb1EEjEvRK29SerializationCommandArgumentsR31RuntimeSerializationCommandInfo
H6h:_Vector3_Normalize_m3717481874
f_h:_GameObject_get_activeInHierarchy_m2532098784
n0h:_Mesh_SetTrianglesImpl_m2883494607
noe:_Int64_Parse_m4214159959
fki:_IndexedSet_1_Contains_m4188067325_gshared
B1g:__Z56RuntimeInvoker_Void_t1841601450_RaycastHit2D_t4063908774PFvvEPK10MethodInfoPvPS4_
Hzg:__ZL58BaseInputModule_t1295781545_CustomAttributesCacheGeneratorP21CustomAttributesCache
C6a:__Z14resize_trimmedINSt3__26vectorIi13stl_allocatorIiL18MemLabelIdentifier13ELi16EEEEEvRT_j
XD:__ZN7mecanim9animation18ControllerConstant15InitializeClassEv
T8:__ZNSt3__24pairIKN4core12basic_stringIcNS1_20StringStorageDefaultIcEEEE10vector_setI4PPtrI11SpriteAtlasENS_4lessISA_EE13stl_allocatorISA_L18MemLabelIdentifier81ELi16EEEEC2ERKSH_
psa:__ZNK9ShaderLab6TexEnv11PrepareDataEiiP15GfxTextureParam
JRd:_CompareInfo_internal_compare_managed_m1173317301
qo:FUNCTION_TABLE_iiiiiiiffiiiiiiiiiffffiiii
Dmd:_InputField_get_customCaretColor_m2991404035
Rje:_Guid_Equals_m2346664749_AdjustorThunk
ay:__ZN7mecanim12statemachine20EvaluateStateMachineERKNS0_20StateMachineConstantERKNS0_17StateMachineInputERNS0_18StateMachineOutputERNS0_18StateMachineMemoryERNS0_21StateMachineWorkspaceE
hEc:_cff_parser_run
Xej:_GC_notify_or_invoke_finalizers
LOe:_Queue_1__ctor_m2730788670_gshared
vbe:_CryptoConvert_ToCapiPrivateKeyBlob_m850465939
a9i:__ZN6il2cpp2os6Thread5SleepEjb
Lfi:_GUIStyle_INTERNAL_CALL_GetRectOffsetPtr_m1211429798
WMd:_Decimal_Add_m1535064574
Vsj:_emscripten_glUniform3f__wrapper
Dn:FUNCTION_TABLE_viiiifii
q2h:_SubjectAltNameExtension_Decode_m3676245240
N9i:__ZN15dense_hashtableINSt3__24pairIK10KeyWrapperIPK19Il2CppGenericMethodEP10MethodInfoEES6_N6il2cpp8metadata23Il2CppGenericMethodHashEN14dense_hash_mapIS6_S9_SD_NS6_14EqualsComparerINSC_26Il2CppGenericMethodCompareEEENS0_9allocatorISA_EEE9SelectKeyESH_SJ_E4findERS7_
iVa:__ZN17SharedTextureDataC2E18MemLabelIdentifierii13TextureFormatjiibb
aGh:_DefaultComparer_Compare_m265474847_gshared
Xke:_Int16_Parse_m4244889614
UEa:__ZN10TagManager23AddDefaultLayerIfNeededEv
VJa:__ZN10FlareLayer12AddToManagerEv
CWe:_Collection_1_IsValidItem_m1082009684_gshared
DYc:_RIPEMD160Managed_HHH_m1385141959
IYi:__ZNK15dense_hashtableINSt3__24pairIK10KeyWrapperINS1_IP11Il2CppClassjEEES4_EES6_N6il2cpp8metadata14ArrayClassHashEN14dense_hash_mapIS6_S4_SB_NS6_14EqualsComparerINSA_17ArrayClassCompareEEENS0_9allocatorIS8_EEE9SelectKeyESF_SH_E12test_deletedEj
X3a:__ZN13BuildSettings23VirtualRedirectTransferER24GenerateTypeTreeTransfer
kVg:__Z72RuntimeInvoker_Boolean_t3825574718_Single_t2076509932_Single_t2076509932PFvvEPK10MethodInfoPvPS4_
Mrb:__ZN24GenerateTypeTreeTransfer21TransferSTLStyleArrayINSt3__26vectorI8GUIStyle13stl_allocatorIS3_L18MemLabelIdentifier1ELi16EEEEEEvRT_17TransferMetaFlags
oNb:__Z16ApplySHConstantsI28ApplyBuiltinInstancePropertyEvRT_RK20SphericalHarmonicsL2
opc:__Z18Transfer_BlittableI8JSONReadLb1E8Vector2fEvRK29SerializationCommandArgumentsR31RuntimeSerializationCommandInfo
aCa:__ZN20ArchiveStorageReader15ReadFromStorageEyyPvPy
GRa:__ZN8Material43AddDefaultShaderPropertiesToSavedPropertiesEv
lMb:__Z19DoPrePassRenderLoopR17RenderLoopContextR13dynamic_arrayI16RenderObjectDataLj4EES4_RK11CullResultsRP13RenderTextureSA_Pb
wV:__ZN13MemoryManager12LowLevelFreeEPvj
tJc:__ZN2UI14CanvasRenderer23VirtualRedirectTransferER24GenerateTypeTreeTransfer
sHb:__Z16PresentAfterDrawN9GfxDevice11PresentModeE
Lha:__ZN10DynamicVBO19FillQuadIndexBufferER21DynamicVBOChunkHandle
chh:_Enumerator_System_Collections_IDictionaryEnumerator_get_Value_m2325383168_gshared
bvj:_glGenFramebuffers__wrapper
Bxj:_glBindBufferBase__wrapper
cCf:_DESCryptoServiceProvider__ctor_m3979608654
eZ:__ZN23TransformChangeDispatch15InitializeClassEPv
PQf:_Default_CompareCloserType_m1367126249
Yvi:_Nullable_1_GetHashCode_m1791015856_gshared
IMb:__ZN22MotionVectorRenderLoop16PerformRenderingER8JobFence
WNe:_List_1_Find_m1809770055_gshared
Pbe:_DSAManaged_ImportParameters_m987307570
qxi:_FontTextureRebuildCallback_Invoke_m3343763940
uT:__ZN11UnityEngine15CloudWebService18RestFileDownloader13OnReceiveDataEPKvj
sFc:_UNITY_TT_RunIns
vFc:_Current_Ppem
z6g:_StencilMaterial_Add_m2540251346
Mlc:__ZN5Unity9rapidjson6WriterI16TempBufferWriterNS0_4UTF8IcEES4_13JSONAllocatorE10StartArrayEv
$ah:_ScrollRect_CalculateOffset_m1659273054
abe:_ASN1Convert_ToInt32_m2828871616
ylf:_AsnEncodedData__ctor_m1211934482
$xh:_InternalEnumerator_1_System_Collections_IEnumerator_get_Current_m1025729343_AdjustorThunk
Qrj:dynCall_iiiiiiiii
oX:__ZL25InitializeUnityWebStreamsPv
oab:__ZN6ShaderD0Ev
h7a:__ZN18BackgroundJobQueue19ScheduleJobInternalEPFvPvES0_RKNS_8JobFenceE
$3i:__ZN6il2cpp2gc8GCHandle9GetTargetEj
xNd:_Decimal_ToString_m759431975_AdjustorThunk
QHb:__ZN25CameraStackRenderingState18EndStereoRenderingEv
Cib:__ZN20LocalFileSystemPosix9SetLengthER13FileEntryDatay
cid:_FontData_set_bestFit_m1987821379
xPd:_Enum__cctor_m3214832791
Qhf:_HybridDictionary_set_Item_m4049906479
Wij:__ZN6il2cpp5utils25NativeDelegateMethodCache17GetNativeDelegateEPFvvE
lvh:_InternalEnumerator_1_System_Collections_IEnumerator_get_Current_m1335784110_AdjustorThunk
j4c:_String_IndexOf_m1887352430
a5a:__ZN26PlayerSettingsSplashScreen8TransferI24GenerateTypeTreeTransferEEvRT_
rgd:_Graphic_UnregisterDirtyMaterialCallback_m819829270
vQf:_AssemblyName_SetPublicKey_m1491402438
wg:_glScissor
YPc:__ZNSt3__26__treeINS_12__value_typeIN4core12basic_stringIcNS2_20StringStorageDefaultIcEEEE14CallbackArray2IRKS6_R8JSONReadEEENS_19__map_value_compareIS6_SD_NS_4lessIS6_EELb1EEE13stl_allocatorISD_L18MemLabelIdentifier6ELi16EEE7destroyEPNS_11__tree_nodeISD_PvEE
CVc:_DSACryptoServiceProvider_ExportParameters_m2503144019
YPf:_Assembly_GetName_m790410837
zQ:__Z6simd4fIN6detail9FourTupleEE13Simd4fFactoryIT_ERK13Simd4iFactoryIS3_E
OSg:__Z109RuntimeInvoker_Boolean_t3825574718_Int32_t2071877448_Int32U26_t455636984_Int32U26_t455636984_SByte_t454417549PFvvEPK10MethodInfoPvPS4_
Uwc:_UNITY_ft_corner_is_flat
Zba:__ZN13GfxDeviceGLES21RegisterNativeTextureE9TextureIDi16TextureDimension
efc:__Z44Register_UnityEngine_Material_DisableKeywordv
dn:FUNCTION_TABLE_iiiiiiif
o6c:_DecoderExceptionFallback__ctor_m3330792769
vxh:_InternalEnumerator_1_System_Collections_IEnumerator_get_Current_m4259662004_gshared
Zxj:_emscripten_glUniform4fv__wrapper
an:FUNCTION_TABLE_iiiiiiii
$Xc:_RijndaelManaged_CreateEncryptor_m315737265
S_d:_Array_InternalArray__ICollection_CopyTo_TisRuntimeObject_m1162822425_gshared
jGh:_DefaultComparer_Compare_m2804119458_gshared
p1d:_Array_InternalArray__set_Item_TisUInt16_t986882611_m59367493_gshared
Jsc:__ZN19ControllerHitReportD2Ev
mih:_Transform_1_Invoke_m1023901590_gshared
z5c:_String_GetCaseInsensitiveHashCode_m74381984
kT:__ZN11UnityEngine15CloudWebService23WebRequestUploadHandler8GetBytesEv
Xja:__ZN6prcoreL12RemapGenericI11TexFormatI817TexFormatARGB4444EEvPKNS_9InnerInfoE
yni:_GenericEqualityComparer_1_Equals_m2469044952_gshared
I4a:__ZNK14PlayerSettings22GetTypeVirtualInternalEv
cKd:_DateTime_System_IConvertible_ToUInt64_m2788957482
fBc:_Bezier_Up
Ili:_SymmetricTransform_CheckInput_m1287204652
YKf:_Type_GetProperty_m1510204374
nAd:_CollectionBase_System_Collections_IList_Remove_m2931078938
P7h:_Rect_Overlaps_m2238446534
fQh:_Parser__ctor_m1719025083
p2i:__ZN15dense_hashtableINSt3__24pairIK10KeyWrapperINS1_IPKcS4_EEEiEES6_24NamespaceAndNamePairHashN14dense_hash_mapIS6_iS9_NS6_14EqualsComparerI26NamespaceAndNamePairEqualsEENS0_9allocatorIS8_EEE9SelectKeyESD_SF_EC2ERKSI_j
wah:_ScrollRect_set_horizontalScrollbarVisibility_m3790647510
b6:__ZN15DirectorManager12RegisterJobsEP13PlayableGraph
Djc:__Z38Event_CUSTOM_Internal_GetMousePositionP12Il2CppObjectP13Vector2fIcall
ST:__ZN11UnityEngine15CloudWebService14DataDispatcher10InitializeERKN4core12basic_stringIcNS2_20StringStorageDefaultIcEEEEPvjRNS0_18ICloudJobSchedulerE
ISc:__ZN22CrashReportingSettingsC2Ev
HDc:_cff_free_glyph_data
czf:_ObjectManager_GetObject_m2241027343
gah:_ScrollRect_set_elasticity_m4144797413
DU:__ZN11UnityEngine15CloudWebService14DataDispatcher17PlayerLoopHandlerEv
pdi:_Vector3_get_down_m2270176769
M7h:_Rect_OrderMinMax_m2982601929
TMd:_Decimal_System_IConvertible_ToUInt64_m2457277336
sQc:__ZN11UnityEngine7Connect15AppRunningEventC2Ejjjj
Epj:dynCall_iiiiifii
R0:__Z26GetManagedAttributeManagerv
Ygh:_Enumerator_System_Collections_IEnumerator_Reset_m3225937576_AdjustorThunk
n7d:_MSCompatUnicodeTable_Category_m3854768527
nqa:__ZN19ComputeShaderKernelC2ERKS_
lIf:_Timer__cctor_m3277205579
JMa:__ZN4Mesh14ClearSkinCacheEv
Thb:__ZNK12HandlerChain12LastModifiedERK13FileEntryData
tnc:__Z18Transfer_BlittableI9JSONWriteLb0EjEvRK29SerializationCommandArgumentsR31RuntimeSerializationCommandInfo
seb:__ZL15GetIndexForNameRNSt3__23mapIN4core12basic_stringIcNS1_20StringStorageDefaultIcEEEEiNS_4lessIS5_EENS_9allocatorINS_4pairIKS5_iEEEEEERSA_
Lg:__exit
lL:__ZN11AudioSource13AwakeFromLoadE17AwakeFromLoadMode
$3h:_X509CertificateCollection_AddRange_m3644738604
eOc:__ZN22BaseUnityConnectClient19OnEnterStateStoppedEv
KCb:__ZL31FindActiveTransformWithPathImplPKcR10GameObjectb
dbe:_BitConverterLE_UShortFromBytes_m2795078058
Stj:_glViewport__wrapper
Arg:__ZL68SerializePrivateVariables_t2241034664_CustomAttributesCacheGeneratorP21CustomAttributesCache
Sih:_Transform_1_Invoke_m2770612589_gshared
Yrj:b4
Zrj:b5
h8h:_RectOffset_set_right_m3365322423
$rj:b7
Srj:b0
Trj:b1
Urj:b2
e1a:__ZN4Mesh8TransferI24GenerateTypeTreeTransferEEvRT_
Noc:__ZN9JSONWrite8TransferI13dynamic_arrayI10ColorRGBAfLj4EEEEvRT_PKc17TransferMetaFlags
asj:b8
bsj:b9
VJi:__ZN6il2cpp2vm21ThreadPoolCompartmentC2Ev
lRa:__Z14resize_trimmedINSt3__26vectorIN4core12basic_stringIcNS2_20StringStorageDefaultIcEEEE13stl_allocatorIS6_L18MemLabelIdentifier1ELi16EEEEEvRT_j
mR:__ZN11UnityEngine15CloudWebService16SessionContainer13DeleteArchiveERKN4core12basic_stringIcNS2_20StringStorageDefaultIcEEEE
Ixd:_ArrayList_CopyTo_m1348662971
XAc:_Vertical_Sweep_Step
Hnd:_InputField_AssignPositioningIfNeeded_m735749913
Oke:_Int16_System_IConvertible_ToUInt64_m2064691861
AKa:__ZN23TransformChangeDispatch28GetAndClearChangedTransformsE27TransformChangeSystemHandleR13dynamic_arrayI23TransformAccessReadOnlyLj4EEP19ProfilerInformation
RRi:__ZN15dense_hashtableINSt3__24pairIK10KeyWrapperIPK10Il2CppTypeEjEES6_N6il2cpp8metadata14Il2CppTypeHashEN14dense_hash_mapIS6_jSB_NS6_14EqualsComparerINSA_26Il2CppTypeEqualityComparerEEENS0_9allocatorIS8_EEE9SelectKeyESF_SH_E9copy_fromERKSK_j
pmi:_AesTransform__cctor_m619532760
xRd:_CompareInfo_construct_compareinfo_m1849123306
YT:__ZN19CloudServiceHandler17PauseEventHandlerEb
$Jc:__ZN2UI6Canvas29EncapsulateChildrenMeshBoundsEv
S2d:_Array_Sort_TisCustomAttributeNamedArgument_t94157543_m2435281169_gshared
MTd:_Array_InternalArray__ICollection_Contains_TisTimeSpan_t3430258949_m802614527_gshared
orb:__Z18Transfer_BlittableI24GenerateTypeTreeTransferLb0EaEvRK29SerializationCommandArgumentsR31RuntimeSerializationCommandInfo
L6f:__ZL55FieldBuilder_t2784804005_CustomAttributesCacheGeneratorP21CustomAttributesCache
Ycf:_TlsClientFinished_ProcessAsSsl3_m1576972610
VQ:__ZN11UnityEngine15CloudWebService18CloudServiceConfigD2Ev
Ala:__ZN6prcoreL17RemapGenericFloatI15TexFormatRGHalf15TexFormatRFloatEEvPKNS_9InnerInfoE
e6h:_PropertyName_Equals_m1662438103_AdjustorThunk
Zgb:__ZN2UI13RectTransform8TransferI19StreamedBinaryWriteILb0EEEEvRT_
Ofe:_PKCS12_Clone_m4018301141
rXd:_Array_compare_TisUICharInfo_t3056636800_m2861112472_gshared
lVi:__ZN15dense_hashtableINSt3__24pairIK10KeyWrapperIPK14Il2CppAssemblyEPK22Il2CppMonoAssemblyNameEES6_N6il2cpp5utils11PointerHashIS4_EEN14dense_hash_mapIS6_SA_SF_NS6_14EqualsComparerINS0_8equal_toIS5_EEEENS0_9allocatorISB_EEE9SelectKeyESK_SM_E9copy_fromERKSP_j
ZZd:_Array_InternalArray__ICollection_Add_TisTypeTag_t141209596_m1991820054_gshared
Heb:__ZN9ShaderLab4Pass24CreateFromSerializedPassERKNS_14SerializedPassEPK6Shader
Tfc:__Z61Register_UnityEngine_Texture2D_INTERNAL_CALL_GetPixelBilinearv
ml:_emscripten_set_deviceorientation_callback
Qif:_KeysCollection_System_Collections_ICollection_CopyTo_m1079819835
n$a:__ZNK14Texture2DArray22GetTypeVirtualInternalEv
yig:__ZL61StringSplitOptions_t2996162939_CustomAttributesCacheGeneratorP21CustomAttributesCache
Ovd:_Char_System_IConvertible_ToBoolean_m1492656201
BUi:__ZN6il2cpp2vm10Reflection15GetParamObjectsEPK10MethodInfoP11Il2CppClass
SWa:__ZN10GISettings8TransferI19StreamedBinaryWriteILb0EEEEvRT_
Lm:FUNCTION_TABLE_fif
r0i:__ZN6il2cpp2vm13LivenessState14TraverseObjectEP12Il2CppObjectPS1_
Eb:invoke_viifiii
iPa:__ZNK13RenderTexture12IsMemorylessEv
h3e:_Comparison_1_BeginInvoke_m2263530995_gshared
A6a:__ZN14SafeBinaryRead21TransferSTLStyleArrayINSt3__26vectorIN30RuntimeInitializeOnLoadManager15ClassMethodInfoE13stl_allocatorIS4_L18MemLabelIdentifier13ELi16EEEEEEvRT_17TransferMetaFlags
RJg:__Z110RuntimeInvoker_Int32_t2071877448_RuntimeObject_Int32_t2071877448_Int32_t2071877448_RuntimeObject_RuntimeObjectPFvvEPK10MethodInfoPvPS4_
Eue:_SynchronizedReader_ReadLine_m723354621
