wc:_glClearStencil
b_d:_Array_InternalArray__ICollection_Add_TisMark_t2724874473_m1613484179_gshared
uBg:__ZL80Graphic_t2426225576_CustomAttributesCacheGenerator_Graphic_OnFillVBO_m1723985607P21CustomAttributesCache
G7i:__ZN6il2cpp2vm5Array13GetByteLengthEP11Il2CppArray
D8g:_Raycast3DCallback_BeginInvoke_m3028685017
JJg:__Z79RuntimeInvoker_RuntimeObject_Int64_t909078037_Int64_t909078037_Int64_t909078037PFvvEPK10MethodInfoPvPS4_
Fag:__ZL61IRemotingFormatter_t4112065742_CustomAttributesCacheGeneratorP21CustomAttributesCache
XSc:__ZN15DownloadHandler7OnAbortEv
$xi:_TextGenerator_Invalidate_m1993568841
s3e:_Comparison_1_Invoke_m353639462_gshared
jIa:__Z30GetIntermediateRendererManagerv
Uid:_GraphicRegistry_RegisterGraphicForCanvas_m2284226562
Pia:__Z21SourceMipLevelForBlitiiii
RMa:__ZN31CanvasBatchIntermediateRenderer15AddAsRenderNodeER15RenderNodeQueueRK20DeprecatedSourceData
lmg:__ZL87Component_t3819376471_CustomAttributesCacheGenerator_Component_GetComponent_m1409092944P21CustomAttributesCache
IUf:_GenericTypeParameterBuilder_GetEvent_m4210567427
nDd:_Enumerator_get_Key_m2908810861
IOc:__ZN11UnityEngine7Connect14AppUpdateEventD0Ev
Pei:_GUI_DoSetSkin_m2532620610
Z3g:__Z35RuntimeInvoker_UIVertex_t1204258818PFvvEPK10MethodInfoPvPS4_
iW:__ZdlPv
Kzg:__ZL77StandaloneInputModule_t70867863_CustomAttributesCacheGenerator_m_VerticalAxisP21CustomAttributesCache
Nr:__ZN11UnityEngine9Animation28GenericAnimationBindingCacheD2Ev
Mag:__ZL68RemotingSurrogateSelector_t2821375126_CustomAttributesCacheGeneratorP21CustomAttributesCache
Ish:_EqualityComparer_1__cctor_m968537130_gshared
iDe:_List_1_System_Collections_IList_IndexOf_m39706221_gshared
Qmh:_Dictionary_2_Remove_m1849931834_gshared
dGd:_Decimal_op_Implicit_m2971610317
agi:_GUILayoutGroup_ResetCursor_m3614985691
qgd:_Graphic_UnregisterDirtyVerticesCallback_m1526739224
EUb:__Z18RestoreRenderStateR20CameraRenderOldStateR17ShaderPassContext
Xyd:_SynchronizedArrayListWrapper_get_Item_m3309425850
kvb:__Z18Transfer_BlittableI18StreamedBinaryReadILb1EELb1E5RectTIfEEvRK29SerializationCommandArgumentsR31RuntimeSerializationCommandInfo
EZh:_UnityEventBase_RebuildPersistentCallsIfNeeded_m2776978024
x7h:_Rect_set_height_m1455613541_AdjustorThunk
crb:__Z18Transfer_BlittableI24GenerateTypeTreeTransferLb0E11ColorRGBA32EvRK29SerializationCommandArgumentsR31RuntimeSerializationCommandInfo
O0:__Z25scripting_class_from_name17ScriptingImagePtrPKcS1_
FWi:__ZN14dense_hash_mapI10KeyWrapperINSt3__24pairIPK12PropertyInfoP11Il2CppClassEEEj17ReflectionMapHashIS8_ENS9_14EqualsComparerINS1_8equal_toIS8_EEEENS1_9allocatorINS2_IKS9_jEEEEE15set_deleted_keyERSH_
oBb:__Z29scripting_class_enum_basetype17ScriptingClassPtr
kLh:__ZN21InterfaceFuncInvoker3IP12Il2CppObjectP8String_tS1_PS3_E6InvokeEjP11Il2CppClassS1_S3_S1_S4_
Jjd:_GraphicRaycaster_get_ignoreReversedGraphics_m2757724367
dVg:__Z111RuntimeInvoker_Void_t1841601450_Vector4_t2243707581_Vector4_t2243707581_Vector4_t2243707581_Vector4_t2243707581PFvvEPK10MethodInfoPvPS4_
yFa:__ZNK12BaseRenderer18GetRenderNodeCountEv
tVf:_GenericTypeParameterBuilder_GetHashCode_m867619899
MJf:_TimeSpan_ToString_m2947282901
esh:_EqualityComparer_1__cctor_m3397254040_gshared
Fib:__ZNK20LocalFileSystemPosix6ParentERK13FileEntryDataRN4core12basic_stringIcNS3_20StringStorageDefaultIcEEEE
Dza:__ZN15dense_hashtableINSt3__24pairIKN4core12basic_stringIcNS2_20StringStorageDefaultIcEEEEP20ArchiveStorageReaderEES6_20StringHash32FunctionIS6_EN14dense_hash_mapIS6_S9_SC_NS0_8equal_toIS6_EE13stl_allocatorISA_L18MemLabelIdentifier55ELi16EEE9SelectKeyESF_SI_E4swapERSL_
yxe:_MonoType_CheckMethodSecurity_m4116906190
m3d:_Array_Sort_TisVector2_t2243707579_m1307634946_gshared
sga:__ZN7ApiGLES17CopyBufferSubDataEjjlll
CNf:_UInt64_System_IConvertible_ToDecimal_m4205696037
Rkc:__ZN5Unity9rapidjson15GenericDocumentINS0_4UTF8IcEE13JSONAllocatorS4_E11ParseStreamILj1ES3_NS0_25GenericInsituStringStreamIS3_EEEERS5_RT1_
gDi:__ZNSt3__26vectorIPK10Il2CppTypeNS_9allocatorIS3_EEE7reserveEj
Mvi:_U3CCreateWhereIteratorU3Ec__Iterator1D_1_Reset_m1773515612_gshared
EMb:__ZN25CameraStackRenderingState20GetOrCreateBuiltinRTE24BuiltinRenderTextureTypeii17DepthBufferFormat19RenderTextureFormatj22RenderTextureReadWrite14VRTextureUsagei
lnd:_InputField_get_caretPosition_m1005871812
vlh:_Dictionary_2__ctor_m3111963761_gshared
fmi:_AesManaged_CreateEncryptor_m1729287824
u$a:__ZNK14Texture2DArray26CanReuploadDataToGfxDeviceEv
ZQb:__ZN17PrePassRenderLoop14RenderBasePassEP13RenderTextureRK14LightingLayersR13dynamic_arrayI16RenderObjectDataLj4EERbR10MinMaxAABB
tDa:__ZN17GlobalGameManager23VirtualRedirectTransferER17RemapPPtrTransfer
xzc:_sfnt_stream_close
awd:_Char_System_IConvertible_ToInt16_m2741348777_AdjustorThunk
Fic:__ZN5IMGUI18RepaintModalWindowER8GUIState
Msi:__ZL25UnresolvedVirtualCall_129P12Il2CppObject17Color_t2020392075PK10MethodInfo
pid:_FontData_get_verticalOverflow_m83665814
OYe:_ReadOnlyCollection_1_System_Collections_Generic_IListU3CTU3E_set_Item_m1547026160_gshared
$Ga:__ZNK15dense_hashtableINSt3__24pairIKN9ShaderLab7Program23ShaderKeywordSetAndHashEPKNS2_10SubProgramEEES4_NS3_24ShaderKeywordHashFunctorEN14dense_hash_mapIS4_S8_SA_NS0_8equal_toIS4_EE13stl_allocatorIS9_L18MemLabelIdentifier67ELi16EEE9SelectKeyESD_SG_E23find_position_with_hashERS5_j
M3f:__ZL61MarshalAsAttribute_t2900773360_CustomAttributesCacheGeneratorP21CustomAttributesCache
b_a:__Z23SetSpriteMeshIndexCountP14SharedMeshDataj
IOa:__ZN7Texture13SetFilterModeEi
bmg:__ZL87Camera_t189460977_CustomAttributesCacheGenerator_Camera_get_allCamerasCount_m1873043770P21CustomAttributesCache
qac:__Z46Register_UnityEngine_Application_get_isPlayingv
M9i:__ZN6il2cpp8metadata13GenericMethod9GetMethodEPK19Il2CppGenericMethod
gq:__ZNSt3__26vectorIN4core12basic_stringIcNS1_20StringStorageDefaultIcEEEENS_9allocatorIS5_EEE7reserveEj
xId:_Convert_ToUInt16_m2130758075
NSi:__ZN15dense_hashtableINSt3__24pairIK10KeyWrapperINS1_IPK11Il2CppImageP11Il2CppClassEEEjEES9_17ReflectionMapHashIS8_EN14dense_hash_mapIS9_jSD_NS9_14EqualsComparerINS0_8equal_toIS8_EEEENS0_9allocatorISB_EEE9SelectKeyESI_SK_E3endEv
Jmf:_X509BasicConstraintsExtension_Encode_m3505127076
Baa:__ZN13GfxDeviceGLES11SetViewportERK5RectTIiE
old:_Image_get_pixelsPerUnit_m4104195799
$eh:_Toggle_InternalToggle_m2323729210
JMd:_Decimal_System_IConvertible_ToInt64_m2504363272
Wfc:__Z24Time_Get_Custom_PropTimev
ird:_Array_GetValue_m3182152438
Nd:_emscripten_glDepthRange
cVc:_DESTransform_CipherFunct_m3559419566
SXc:_Rijndael_Create_m113171669
Wzf:_RuntimeFieldHandle_get_Value_m3963757144
NWb:__ZNSt3__26vectorINS_4pairIN4core12basic_stringIcNS2_20StringStorageDefaultIcEEEES6_EE13stl_allocatorIS7_L18MemLabelIdentifier38ELi16EEE12__move_rangeEPS7_SC_SC_
Ebb:__Z14resize_trimmedINSt3__26vectorIN9ShaderLab20SerializedSubProgram12UAVParameterENS0_9allocatorIS4_EEEEEvRT_j
jlc:__ZN5Unity9rapidjson13GenericReaderINS0_4UTF8IcEES3_13JSONAllocatorE11ParseObjectILj1ENS0_25GenericInsituStringStreamIS3_EENS0_15GenericDocumentIS3_S4_S4_EEEEvRT0_RT1_
Bxf:_SerializationInfo_AddValue_m1781549036
z1g:__Z59RuntimeInvoker_Void_t1841601450_PlayableBinding_t2498078091PFvvEPK10MethodInfoPvPS4_
Kaf:_TlsServerKeyExchange_verifySignature_m3641534563
QUe:_Collection_1_Clear_m445145071_gshared
U2:__ZNSt3__218__insertion_sort_3IRNS_6__lessI14ObjectLoadDataS2_EEPS2_EEvT0_S6_T_
Ahi:_InvokableCall_1_Find_m2337296995_gshared
ndh:_Slider_FindSelectableOnLeft_m3136767885
nia:__ZN4crndL20crnd_default_reallocEPvjPjbS0_
$id:__ZN21InterfaceFuncInvoker1IP19Material_t193706927S1_E6InvokeEjP11Il2CppClassP12Il2CppObjectS1_
ZWd:_Array_BinarySearch_TisInt32_t2071877448_m51233948_gshared
Bnj:__ZNSt3__212basic_stringIcNS_11char_traitsIcEENS_9allocatorIcEEEC2ERKS5_
Yvf:_ProviderData_CopyFrom_m431414335
vWg:__Z74RuntimeInvoker_Boolean_t3825574718_Vector2_t2243707579_Vector2_t2243707579PFvvEPK10MethodInfoPvPS4_
T_a:__ZN18SpriteAtlasManager19AddRequestingSpriteE4PPtrI6SpriteE
AFf:_UTF32Encoding_GetPreamble_m767706727
Hfc:__Z33Texture_CUSTOM_Internal_GetHeightP12Il2CppObject
Fpd:_LayoutGroup_get_preferredHeight_m3901163825
jug:__ZL106AudioSettings_t3144015719_CustomAttributesCacheGenerator_AudioSettings_GetSpatializerPluginName_m698617843P21CustomAttributesCache
ITb:__ZN23ScriptableRenderContextC2Ev
Kug:__ZL118AudioSource_t1135106623_CustomAttributesCacheGenerator_AudioSource_INTERNAL_CALL_ReadExtensionPropertyName_m3694806886P21CustomAttributesCache
zIa:__ZN4PPtrI13RenderTextureE8TransferI18StreamedBinaryReadILb0EEEEvRT_
IFd:_DateTime_AbsoluteDays_m3061694073
iGc:_UNITY_FT_Stream_GetChar
Lvb:__Z18Transfer_BlittableI18StreamedBinaryReadILb1EELb1EdEvRK29SerializationCommandArgumentsR31RuntimeSerializationCommandInfo
Sgh:_Enumerator_System_Collections_IEnumerator_get_Current_m229223308_gshared
hlg:__ZL202U3CCreateWhereIteratorU3Ec__Iterator1D_1_t2523986802_CustomAttributesCacheGenerator_U3CCreateWhereIteratorU3Ec__Iterator1D_1_System_Collections_Generic_IEnumerableU3CTSourceU3E_GetEnumerator_m2392330777P21CustomAttributesCache
xBb:__Z26BuildSerializationCacheFor17ScriptingClassPtrRb
toa:__ZN7ApiGLES15BlitFramebufferEN2gl6HandleILNS0_10ObjectTypeE9EEENS0_15FramebufferReadES3_S3_iiiiiiiiNS0_15FramebufferTypeE
BMi:_il2cpp_class_get_name
v0h:_Mesh_CheckCanAccessSubmeshTriangles_m2644388378
eUg:__Z112RuntimeInvoker_RuntimeObject_RuntimeObject_RuntimeObject_RuntimeObject_RuntimeObject_RuntimeObject_RuntimeObjectPFvvEPK10MethodInfoPvPS4_
a9f:__ZL55GCHandleType_t1970708122_CustomAttributesCacheGeneratorP21CustomAttributesCache
i3b:__ZN13ProduceHelperI10GUIElementLb1EE7ProduceE18MemLabelIdentifier18ObjectCreationMode
lti:__ZL25UnresolvedVirtualCall_156P12Il2CppObject18Color32_t874517518PK10MethodInfo
pci:_UnitySynchronizationContext__ctor_m1804960286
Oyi:_WillRenderCanvases_BeginInvoke_m4217413147
Gyd:_FixedSizeArrayListWrapper_AddRange_m2071800418
LD:__ZN13ProduceHelperI8AnimatorLb0EE7ProduceE18MemLabelIdentifier18ObjectCreationMode
QCb:__Z9InitInputv
pPg:__Z85RuntimeInvoker_Boolean_t3825574718_Int64_t909078037_Int64_t909078037_SByte_t454417549PFvvEPK10MethodInfoPvPS4_
jRi:__ZN15dense_hashtableINSt3__24pairIK10KeyWrapperINS1_IPK9FieldInfoP11Il2CppClassEEEjEES9_17ReflectionMapHashIS8_EN14dense_hash_mapIS9_jSD_NS9_14EqualsComparerINS0_8equal_toIS8_EEEENS0_9allocatorISB_EEE9SelectKeyESI_SK_ED2Ev
XBe:_Enumerator_VerifyState_m2358705882_AdjustorThunk
rzc:_UNITY_tt_face_build_cmaps
qpg:__ZL87Time_t31991979_CustomAttributesCacheGenerator_Time_get_realtimeSinceStartup_m3888815444P21CustomAttributesCache
Kjb:__ZN16MemoryFileSystem6DeleteER13FileEntryDatab
fja:__ZL21BlitScaleStbImageImplRK14ImageReferenceRS_NS_10ColorSpaceE
L8h:_RectTransform_INTERNAL_set_pivot_m4248720081
phf:_TlsStream_set_Position_m378064217
Fdb:__ZN18StreamedBinaryReadILb0EE21TransferSTLStyleArrayI13dynamic_arrayIjLj4EEEEvRT_17TransferMetaFlags
Wmb:__Z29Transfer_Blittable_ArrayFieldI14SafeBinaryReadyEvRT_R9ArrayInfoRK23StaticTransferFieldInfo
HL:__ZN20SoundChannelInstance15setChannelGroupEPN4FMOD12ChannelGroupE
xRi:__ZNK15dense_hashtableINSt3__24pairIK10KeyWrapperINS1_IPK9FieldInfoP11Il2CppClassEEEjEES9_17ReflectionMapHashIS8_EN14dense_hash_mapIS9_jSD_NS9_14EqualsComparerINS0_8equal_toIS8_EEEENS0_9allocatorISB_EEE9SelectKeyESI_SK_E12test_deletedERK24dense_hashtable_iteratorISB_S9_SD_SM_SI_SK_E
Y0c:_Evidence_Equals_m2325859915
C5h:_PlayableHandle_INTERNAL_CALL_GetPlayableTypeOf_m1683061051
EQf:_Default__ctor_m172834064
kc:invoke_vifffii
wyb:__Z35Transfer_Blittable_FixedBufferFieldI18StreamedBinaryReadILb0EEaEvRK29SerializationCommandArgumentsR31RuntimeSerializationCommandInfo
i$i:__ZN6il2cpp2vm9Exception27RaiseNullReferenceExceptionEv
dRh:_Regex_IsMatch_m2159202025
hBa:__ZNK25MultiBlocksMemoryFileData5CloneEv
ofj:_GC_add_ext_descriptor
qgj:__ZN6il2cpp2os14WindowsRuntime22GetRestrictedErrorInfoEv
Gld:_Image_CalculateLayoutInputHorizontal_m3275149860
mtf:_RemotingServices_GetMethodBaseFromName_m3271095947
lAa:__ZN17ArchiveFileSystem11CreateAsDirER13FileEntryData
Ipj:dynCall_iiiiiiiiiiii
$5c:_ASCIIEncoding_GetBytes_m3617160053
wDh:_InternalEnumerator_1_MoveNext_m2289229080_AdjustorThunk
O9e:_CipherSuiteCollection_System_Collections_IList_RemoveAt_m143866082
vua:__ZN22VertexDeclarationCacheD0Ev
mgb:__ZL26KeywordSetToStringDontSortRKNSt3__26vectorIN4core12basic_stringIcNS1_20StringStorageDefaultIcEEEENS_9allocatorIS5_EEEERS5_
Zka:__ZN6prcoreL17RemapGenericFloatI16TexFormatRGFloat17TexFormatRGBAHalfEEvPKNS_9InnerInfoE
cG:__ZN12AudioManager22CreateFMODSoundFromWWWEP10IWWWStream15FMOD_SOUND_TYPE17FMOD_SOUND_FORMATjjbbP10SampleClip
d2b:__ZNK32RendererMaterialAnimationBinding15GenerateBindingERKN4core12basic_stringIcNS0_20StringStorageDefaultIcEEEEbRN11UnityEngine9Animation14GenericBindingE
lTi:__ZN24dense_hashtable_iteratorINSt3__24pairIK10KeyWrapperINS1_IPK11Il2CppImageP11Il2CppClassEEEjEES9_17ReflectionMapHashIS8_EN14dense_hash_mapIS9_jSD_NS9_14EqualsComparerINS0_8equal_toIS8_EEEENS0_9allocatorISB_EEE9SelectKeyESI_SK_E30advance_past_empty_and_deletedEv
RTg:__Z40RuntimeInvoker_HandshakeType_t2540099417PFvvEPK10MethodInfoPvPS4_
b0:__ZN8Remapper23GetOrGenerateInstanceIDERK26SerializedObjectIdentifier
jue:_StreamWriter_Flush_m3426120024
sAa:__ZN17FileSystemHandler10AtomicMoveER13FileEntryDataS1_
Ya:invoke_iiiiiifffiiifii
Pre:_MemoryStream__ctor_m1489366847
q1c:_SecurityElement_IsValidTag_m64902195
Sug:__ZL77AudioSourceExtension_t1813599864_CustomAttributesCacheGenerator_m_audioSourceP21CustomAttributesCache
I$f:_PropertyInfo_SetValue_m2961483868
SHe:_List_1_System_Collections_IList_Contains_m4193366963_gshared
SJi:__ZNSt3__214__split_bufferI6pollfdRNS_9allocatorIS1_EEED2Ev
auf:_DictionaryEnumerator_get_Value_m1915638953
aRf:_ConstructorInfo_Invoke_m2144827141
o_a:__ZN6Sprite8TransferI24GenerateTypeTreeTransferEEvRT_
Lgc:__Z48Register_UnityEngine_Transform_SetAsFirstSiblingv
r_a:__ZN7SubMesh8TransferI24GenerateTypeTreeTransferEEvRT_
M_f:_MonoProperty_get_CanWrite_m2124922514
wKi:__ZN6il2cpp6icalls8mscorlib6SystemL16CheckMemberMatchI9FieldInfoNS_5utils10functional6FilterINSt3__212basic_stringIcNS8_11char_traitsIcEENS8_9allocatorIcEEEENS5_13VmStringUtils23CaseInsensitiveComparerEEEEEbPKT_PK11Il2CppClassSN_iRKT0_
U8e:_CipherSuite_get_HashAlgorithmType_m3902365773
Nxg:__ZL96RemoteSettings_t392466225_CustomAttributesCacheGenerator_RemoteSettings_CallOnUpdate_m1092852243P21CustomAttributesCache
Cmj:_poll
Bre:_Stream_BeginRead_m1985960185
m0b:__ZN13ProduceHelperI14Texture2DArrayLb0EE7ProduceE18MemLabelIdentifier18ObjectCreationMode
Eii:_UnityAction_1_EndInvoke_m350315359_gshared
c7e:_MD4Managed_GG_m1462438360
qec:__Z53PlayableHandle_CUSTOM_INTERNAL_CALL_GetPlayableTypeOfR9HPlayable
g8b:__ZN9Transform23SetSiblingIndexInternalEib
vvi:_OnCommandSentHandler_EndInvoke_m3822991744
wbh:_ScrollRect_get_minWidth_m3151814267
rpe:_BinaryReader_CheckBuffer_m1059275266
Qaa:__ZN13GfxDeviceGLES17DestroySubProgramEPN9ShaderLab10SubProgramE
Lt:__ZN7mecanim5human12HumanPoseSubERNS0_9HumanPoseERKS1_S4_
ldi:_Vector3_Max_m2076081170
Q6e:_MD4_Create_m2582504069
Boi:_HashSet_1_System_Collections_IEnumerable_GetEnumerator_m2498631708_gshared
H3i:__ZN6il2cpp8metadata15GenericMetadata15GetGenericClassEiPK17Il2CppGenericInst
Ntd:_Boolean_System_IConvertible_ToInt16_m977801621
vlb:__Z18Transfer_BlittableI14SafeBinaryReadLb0E10Matrix4x4fEvRK29SerializationCommandArgumentsR31RuntimeSerializationCommandInfo
PAb:__Z24GetFixedBehaviourManagerv
j$g:__Z69RuntimeInvoker_Void_t1841601450_Int32_t2071877448_Vector4_t2243707581PFvvEPK10MethodInfoPvPS4_
RJb:__ZN12FlareManager9UpdateJobEP25FlareManagerUpdateJobData
$Ji:__ZN6il2cpp2vm10ThreadPool4WaitEP17Il2CppAsyncResultPPv
K1h:_Plane__ctor_m730644932_AdjustorThunk
Nkj:_vfprintf
cjc:__ZN10GUIManager12AddGUIScriptER8ListNodeI13MonoBehaviourE
wxf:_SerializationException__ctor_m1019897788
iMa:__ZN19ShaderPropertySheet20ReservePropertyCountEj
zKb:__ZN20DynamicPropertySheetD0Ev
SWb:__ZN14SafeBinaryRead17RegisterConverterEPKcS1_PFbPvRS_E
JX:__ZN35RegisterRuntimeInitializeAndCleanup8RegisterEPFvPvES2_iS0_
aKg:__Z92RuntimeInvoker_RuntimeObject_Int32_t2071877448_Int32_t2071877448_RuntimeObject_RuntimeObjectPFvvEPK10MethodInfoPvPS4_
f4h:_X509CertificateCollection_GetHashCode_m1043795447
Esd:_AsyncCallback__ctor_m3071689932
T1e:_ReadOnlyCollection_1_System_Collections_IList_Clear_m2600246370_gshared
xji:_UnityEvent_1_GetDelegate_m915269642_gshared
I0g:__Z62RuntimeInvoker_Int32_t2071877448_ParameterModifier_t1820634920PFvvEPK10MethodInfoPvPS4_
Nbe:_DSAManaged_NormalizeArray_m2287089393
Pgc:__Z21Object_CUSTOM_DestroyP12Il2CppObjectf
pEh:_InternalEnumerator_1_System_Collections_IEnumerator_get_Current_m2389982234_AdjustorThunk
Sfb:__ZN8Material26ResetAllCachedMaterialDataEP6Shader
Ubh:_Selectable_get_interactable_m1725029500
K2f:__ZL66RuntimeArray_CustomAttributesCacheGenerator_Array_Sort_m3002148658P21CustomAttributesCache
sGc:_UNITY_TT_Get_MM_Var
fAi:__ZN6il2cpp6icalls8mscorlib6System7Decimal13decimal2Int64EP19il2cpp_decimal_reprPx
aa:invoke_diddi
u9c:_ExecuteEvents__cctor_m288775360
xIc:__ZNK2UI6Canvas13GetRenderModeEv
TGd:_Double_TryParseStringConstant_m2585405703
Hkb:__Z18Transfer_BlittableI14SafeBinaryReadLb0EiEvRK29SerializationCommandArgumentsR31RuntimeSerializationCommandInfo
NIi:__ZN6il2cpp2vm13MetadataCache30GetPropertyDefinitionFromIndexEi
bYc:_RijndaelTransform_Clear_m1652144089
fqe:_MonoIO_GetException_m2577367044
cRc:__ZN22BaseUnityConnectClient17InitializeSessionERKN4core12basic_stringIcNS0_20StringStorageDefaultIcEEEES6_N19CloudServiceHandler13InitModeFlagsE
ujh:_Enumerator_MoveNext_m1404007384_gshared
Sye:_NumberFormatter_get_IsZero_m1325357749
s0h:_Mesh_PrintErrorCantAccessIndices_m2990602703
Bvj:_emscripten_glDeleteBuffers__wrapper
qXg:__Z121RuntimeInvoker_Void_t1841601450_Single_t2076509932_Single_t2076509932_Single_t2076509932_Single_t2076509932_RuntimeObjectPFvvEPK10MethodInfoPvPS4_
hQd:_Enum_ToObject_m322320225
VHh:_Enumerator_get_Current_m2754383612_gshared
P9b:__ZN13MonoBehaviour34StopCoroutineFromEnumeratorManagedE18ScriptingObjectPtr
E$c:_X509Certificate__ctor_m3860837120
$xc:_gray_raster_reset
QZg:__Z109RuntimeInvoker_RuntimeObject_Ray_t2469606224_Single_t2076509932_Int32_t2071877448_RuntimeObject_RuntimeObjectPFvvEPK10MethodInfoPvPS4_
O1e:_ReadOnlyCollection_1_System_Collections_Generic_IListU3CTU3E_set_Item_m3663361643_gshared
YD:__ZN7mecanim9animation14AvatarConstant15InitializeClassEv
D8c:_EventTrigger_OnScroll_m626934407
a7a:__ZN30RuntimeInitializeOnLoadManager8TransferI18StreamedBinaryReadILb0EEEEvRT_
Eoh:_Dictionary_2__ctor_m1206668798_gshared
DTf:_TypeBuilder_not_supported_m3178173643
Kyc:_UNITY_tt_face_load_pclt
g9b:__ZL34GetComponentsImplementationRecurseILb1ELi0ELi2EEbR10GameObjectbRK17CompareParametersRK39GetComponentsImplementation_ReturnValue
Thj:__ZN6il2cpp6icalls8mscorlib6System9Threading5Mutex20CreateMutex_internalEbP12Il2CppStringPb
nyd:_ArrayListWrapper_Remove_m1105489978
VJb:__ZNK6Camera18WorldToScreenPointERK8Vector3fPb
sgi:_GUISkin__ctor_m2824039590
kud:_Boolean_CompareTo_m3691698947_AdjustorThunk
fzg:__ZL109PointerEventData_t1599784723_CustomAttributesCacheGenerator_PointerEventData_get_eligibleForClick_m2497780621P21CustomAttributesCache
dCd:_HashKeys_CopyTo_m3566668422
Pna:__Z18IsCompressedFormat14GraphicsFormat
Kzh:_InternalEnumerator_1_Dispose_m549215360_AdjustorThunk
uEh:_InternalEnumerator_1__ctor_m1815261138_gshared
iwd:_Convert_ToSByte_m2665932200
n$:__ZNSt3__227__insertion_sort_incompleteIRPFbRKN18AwakeFromLoadQueue4ItemES4_EPS2_EEbT0_S9_T_
ySf:_ILGenerator_label_fixup_m1325994348
alh:_ValueCollection_System_Collections_ICollection_get_IsSynchronized_m45572582_gshared
RGi:__ZN14dense_hash_mapI10KeyWrapperIN6il2cpp5utils13dynamic_arrayIPK10Il2CppTypeLj4EEEEPFvvENS1_8metadata19Il2CppSignatureHashENS8_14EqualsComparerINSB_22Il2CppSignatureCompareEEENSt3__29allocatorINSG_4pairIKS8_SA_EEEEE15set_deleted_keyERSJ_
z7g:_Navigation_Equals_m4214630671_AdjustorThunk
__e:_ReadOnlyCollection_1_System_Collections_Generic_IListU3CTU3E_set_Item_m257196015_gshared
hYf:_FieldInfo_GetPseudoCustomAttributes_m2500972355
uWa:__ZN26EnlightenSystemInformation8TransferI14SafeBinaryReadEEvRT_
q5d:_Array_InternalArray__get_Item_TisLink_t2723257478_m2281261655_gshared
tSc:__ZN11UnityEngine15PlatformWrapper20SetPlayerPrefsUInt64ERKN4core12basic_stringIcNS1_20StringStorageDefaultIcEEEEy
l2a:__ZN12MeshRendererD0Ev
aP:__ZN12AudioManager35GetCurrentSpatializerDefinitionNameEv
DSh:_ExpressionAssertion_IsComplex_m783019628
fBd:_Hashtable__ctor_m2702360557
wh:_utime
TKd:_DateTimeFormatInfo_get_RawAbbreviatedDayNames_m3998113647
Kdi:_Vector4_get_sqrMagnitude_m641641704_AdjustorThunk
lB:__Z28SetExposedSkeletonTransformsRKN7mecanim9animation14AvatarConstantERKN11UnityEngine9Animation30AnimatorGenericBindingConstantERKNS_8skeleton13SkeletonPoseTIN4math4trsXEEERKNSA_INSB_7affineXEEERNS5_21AvatarBindingConstantEy
brh:_DefaultComparer_GetHashCode_m2596628120_gshared
neg:__ZL94UTF32Encoding_t549530865_CustomAttributesCacheGenerator_UTF32Encoding_GetByteCount_m3183615393P21CustomAttributesCache
qVd:_PlayableHandle_IsPlayableOfType_TisAnimationLayerMixerPlayable_t3057952312_m2522157783_AdjustorThunk
C5e:_PrimalityTest_Invoke_m4058801829
mn:FUNCTION_TABLE_viiiiif
Gwf:_RemotingConfiguration_SetCustomErrorsMode_m1844153208
rn:FUNCTION_TABLE_viiiiii
DSd:_CultureInfo_GetFormat_m3560116485
KC:__ZN7mecanim9animation22DestroyAvatarWorkspaceEPNS0_15AvatarWorkspaceERNS_6memory9AllocatorE
Pjd:__ZN21InterfaceFuncInvoker0IiE6InvokeEjP11Il2CppClassP12Il2CppObject
FRh:_AnchorInfo_get_IsPosition_m3791659233
dRb:__ZN15LightmapSTCacheC2ER13BatchRendererR15RenderLoopStats
Aic:__ZNSt3__210__list_impIN10GUIManager12SortedScriptE11memory_poolIS2_EE5clearEv
ogg:__ZL76Convert_t2607082565_CustomAttributesCacheGenerator_Convert_ToInt64_m44696721P21CustomAttributesCache
aTa:__ZN14PlayableOutput17SetSourcePlayableEP8Playable
U6a:__ZNSt3__26vectorIN4core12basic_stringIcNS1_20StringStorageDefaultIcEEEE13stl_allocatorIS5_L18MemLabelIdentifier13ELi16EEE8__appendEj
Xwf:_TrackingServices__cctor_m3639412334
aC:__ZN7mecanim9animation29MotionOutputGetDeltaTransformEPKNS0_12MotionOutputE
k_b:__Z13RegisterClassI16GraphicsSettingsEvv
mlh:_ValueCollection_System_Collections_IEnumerable_GetEnumerator_m1773104428_gshared
tE:__ZN8Animator14OnAddComponentEPN5Unity9ComponentE
XNe:_List_1_CheckMatch_m1184924052_gshared
igc:__Z43Transform_CUSTOM_INTERNAL_get_localRotationP12Il2CppObjectP11Quaternionf
Jtj:_glGetShaderInfoLog__wrapper
$h:_emscripten_glGetTexParameteriv
EHe:_List_1_ToArray_m3752387798_gshared
fah:_ScrollRect_get_elasticity_m3987376518
Tjj:__ZN6il2cpp8metadata21Il2CppGenericInstHash4HashEPK17Il2CppGenericInst
Z7e:_RSAManaged_ImportParameters_m3060955884
Bfe:_DeriveBytes__ctor_m3089550878
$Kh:_ChannelData_CopyFrom_m4049054607
r_b:__Z13RegisterClassI4MeshEvv
Ayg:__ZL94AxisEventData_t1524870173_CustomAttributesCacheGenerator_AxisEventData_get_moveDir_m3968662359P21CustomAttributesCache
zSa:__ZN8PlayableD0Ev
FH:__ZN12AudioManager8TransferI19StreamedBinaryWriteILb0EEEEvRT_
gse:_WriteDelegate_Invoke_m2103848735
DIe:_List_1_get_Capacity_m4262042666_gshared
Sni:_GenericEqualityComparer_1_GetHashCode_m1950634276_gshared
Jwg:__ZL51TileBase_t4130003429_CustomAttributesCacheGeneratorP21CustomAttributesCache
uli:_Locale_GetText_m512920887
c2b:__ZNK32RendererMaterialAnimationBinding12GetPPtrValueERKN11UnityEngine9Animation10BoundCurveE
Hxb:__Z18Transfer_BlittableI18StreamedBinaryReadILb0EELb0E8Vector2fEvRK29SerializationCommandArgumentsR31RuntimeSerializationCommandInfo
owf:_RemotingConfiguration_get_ProcessId_m3870172209
sLc:__ZN2UI11CanvasGroup12CleanupClassEv
eje:_SortKey_ToString_m2406913228
nib:__ZN22LocalFileSystemHandler9MakeLocalER13FileEntryDatab
tbj:__ZN6il2cpp2vm8Profiler10AllocationEP12Il2CppObjectP11Il2CppClass
_Fd:_Convert_ToDateTime_m1020507389
Xog:__ZL78Sprite_t309593783_CustomAttributesCacheGenerator_Sprite_get_packed_m2366369914P21CustomAttributesCache
i6:__ZNK9HPlayable7IsValidEv
kwc:__ZNSt3__23mapIN20TextRenderingPrivate7FontRefENS1_6OSFontENS_4lessIS2_EENS_9allocatorINS_4pairIKS2_S3_EEEEEixERS8_
u$h:_Material_SetInt_m2847439171
B8:__Z13FormatOrderedPKcz
AOi:_RaycastHit_get_distance_m758224512
dqe:_Path_IsPathRooted_m1347207448
jyf:_ObjectManager_RegisterObjectInternal_m879109503
_Sd:_Array_get_swapper_TisVector4_t2243707581_m97441823_gshared
ztc:__ZN14SafeBinaryRead21TransferSTLStyleArrayI10vector_mapINSt3__24pairIttEEfN20TextRenderingPrivate8FontImpl14KerningCompareENS2_9allocatorINS3_IS4_fEEEEEEEvRT_17TransferMetaFlags
N_b:__Z13RegisterClassI15QualitySettingsEvv
baj:__ZN6il2cpp2vm6String21InitializeEmptyStringEP11Il2CppClass
OQb:__ZN25DeferredRenderLoopScratchD0Ev
gw:__ZN27AnimationLayerMixerPlayable14SetInputWeightEif
Ht:__ZN7mecanim9animation17EvaluateHumanPoseERKNS0_18ClipMuscleConstantERKNS0_15ClipMuscleInputEPKfRKNS0_12MotionOutputERNS_5human9HumanPoseE
seg:__ZL90UTF7Encoding_t741406939_CustomAttributesCacheGenerator_UTF7Encoding_GetHashCode_m359766848P21CustomAttributesCache
_Zh:_GameObject_AddComponent_m540062519
lbb:__ZN15dense_hashtableINSt3__24pairIKiN4core17string_with_labelILi1EEEEEi18SInt32HashFunctionN14dense_hash_mapIiS5_S7_NS0_8equal_toIiEE13stl_allocatorIS6_L18MemLabelIdentifier1ELi16EEE9SelectKeyESA_SD_E9copy_fromERKSG_j
oIa:__ZN6Camera11ResetAspectEv
nLf:_Type_get_IsGenericType_m3396841573
C5a:__ZN15ResourceManagerD0Ev
Lmf:_X509BasicConstraintsExtension_get_HasPathLengthConstraint_m3788532759
hMa:__ZNK17InstancedPropInfo22FillInstancePropertiesER19ShaderPropertySheetjPK17BatchInstanceDatajRK15RenderNodeQueue
lHa:__ZN22CreateGpuProgramOutputD2Ev
Zsb:__Z18Transfer_BlittableI19StreamedBinaryWriteILb0EELb1EsEvRK29SerializationCommandArgumentsR31RuntimeSerializationCommandInfo
kZc:_RSACryptoServiceProvider_EncryptValue_m802714447
Nfg:__ZL76Convert_t2607082565_CustomAttributesCacheGenerator_Convert_ToByte_m932798552P21CustomAttributesCache
JO:__ZN13ProduceHelperI13AudioListenerLb0EE7ProduceE18MemLabelIdentifier18ObjectCreationMode
Qhi:_InvokableCall_1__ctor_m2021220028_gshared
Kyi:_WillRenderCanvases_Invoke_m4267547094
jEe:_List_1_System_Collections_ICollection_get_SyncRoot_m1594235606_gshared
ZEd:_DateTimeFormatInfo_GetInstance_m3133223810
W4e:_ModulusRing_BarrettReduction_m2802101099
yhb:__ZN12HandlerChain4OpenER13FileEntryData14FilePermission16FileAutoBehavior
xth:_EqualityComparer_1_get_Default_m2134906921_gshared
XYf:_MonoMethodInfo_GetParametersInfo_m3456861922
iSi:__ZN15dense_hashtableINSt3__24pairIK10KeyWrapperINS1_IPK10MethodInfoP11Il2CppClassEEEjEES9_17ReflectionMapHashIS8_EN14dense_hash_mapIS9_jSD_NS9_14EqualsComparerINS0_8equal_toIS8_EEEENS0_9allocatorISB_EEE9SelectKeyESI_SK_E6insertERKSB_
vkh:_ValueCollection_System_Collections_Generic_ICollectionU3CTValueU3E_Remove_m4188992987_gshared
n2:__ZN14FileCacherReadD2Ev
M8a:__ZN13RendererScene23UpdatePreviousFrameDataEii
zZc:_RSAPKCS1SignatureDeformatter_VerifySignature_m1825067195
N8h:_RectTransform_remove_reapplyDrivenProperties_m52143263
Gsi:__ZL25UnresolvedVirtualCall_123P12Il2CppObjectffPK10MethodInfo
Ebc:__Z50Register_UnityEngine_CullingGroup_FinalizerFailurev
zAe:_KeyValuePair_2_ToString_m2613351884_gshared
u9a:__ZN27UnloadUnusedAssetsOperationD0Ev
_w:__ZN26AnimatorControllerPlayable6MemoryD2Ev
AAg:__ZL69ColorBlock_t2652774230_CustomAttributesCacheGenerator_m_DisabledColorP21CustomAttributesCache
X8e:_CipherSuite_get_Code_m3902213587
J8g:_Scrollbar__ctor_m2244981801
mzf:_ObjectRecord_get_HasPendingFixups_m670959802
sAi:_AnimationLayerMixerPlayable__ctor_m678972180
b_c:_SHA256Managed_HashCore_m4111458495
sSd:_CultureInfo_get_CompareInfo_m3085280862
qlg:__ZL89Application_t354826772_CustomAttributesCacheGenerator_Application_get_isEditor_m506138946P21CustomAttributesCache
kzf:_ObjectManager_RecordDelayedFixup_m1895730844
D1i:__ZNK15dense_hashtableINSt3__24pairIK10KeyWrapperIP14Il2CppIUnknownEjEES5_N6il2cpp5utils11PointerHashIS3_EEN14dense_hash_mapIS5_jSB_NS5_14EqualsComparerINS0_8equal_toIS4_EEEENS0_9allocatorIS7_EEE9SelectKeyESG_SI_E12test_deletedERK24dense_hashtable_iteratorIS7_S5_SB_SK_SG_SI_E
TJe:_List_1_System_Collections_IList_get_IsFixedSize_m3522184224_gshared
uF:__ZN9AudioClip23VirtualRedirectTransferER18StreamedBinaryReadILb0EE
obf:_ClientSessionInfo_CheckDisposed_m1394638186
aBf:_SByte_Parse_m2544167007
e3c:_Single_CompareTo_m2081476257
jOd:_StackFrame_GetILOffset_m115192054
pAf:_RuntimeTypeHandle_GetHashCode_m3697629454_AdjustorThunk
a9d:_BigInteger__ctor_m2945783161
_cf:_TlsClientHello_Update_m1723542631
j8h:_RectOffset_set_top_m1587840032
Vag:__ZL96ProxyAttribute_t4031752430_CustomAttributesCacheGenerator_ProxyAttribute_IsContextOK_m2391079277P21CustomAttributesCache
jke:_IndexOutOfRangeException__ctor_m3497760912
w0e:_ReadOnlyCollection_1_CopyTo_m1652036789_gshared
zj:_glCopyTexSubImage2D
gwf:_RealProxy_InternalGetTransparentProxy_m3415358600
l2b:__ZNK24RendererAnimationBinding13GetFloatValueERKN11UnityEngine9Animation10BoundCurveE
cT:__ZNK15DownloadHandler14HasPendingDataEv
rRe:_Collection_1_Insert_m3594407958_gshared
RBe:_Enumerator_System_Collections_IEnumerator_Reset_m2200349770_gshared
rbj:__ZN6il2cpp6icalls8mscorlib6System7Convert24InternalFromBase64StringEP12Il2CppStringb
e$c:_SymmetricAlgorithm_CreateDecryptor_m4240570785
xeh:_Text_get_preferredWidth_m3352156860
VAg:__ZL87U3CDelayedDestroyDropdownListU3Ec__Iterator0_t3461999471_CustomAttributesCacheGeneratorP21CustomAttributesCache
cQf:_AssemblyCompanyAttribute__ctor_m1217508649
vLc:__ZN2UI13CanvasManager14GetRenderOrderEPKNS_6CanvasE
rlb:__Z18Transfer_BlittableI14SafeBinaryReadLb0E5RectTIfEEvRK29SerializationCommandArgumentsR31RuntimeSerializationCommandInfo
QTc:__ZNK20UnityWebRequestProtoI24UnityWebRequestTransport16AtomicRefCounter14RedirectHelper14ResponseHelper15DownloadHandler13UploadHandler12HeaderHelper14AsyncOperationE14GetUploadBytesEv
c0e:_ReadOnlyCollection_1_System_Collections_Generic_IListU3CTU3E_RemoveAt_m878653284_gshared
OSd:_DateTimeFormatInfo_GetFormat_m3676195179
Xga:__ZN14GfxContextGLES14GetFramebufferEv
Svj:_emscripten_glGenVertexArrays__wrapper
Kja:__ZN6prcoreL21CreateRemapAnyBlitterE13TextureFormatS0_
Gjj:__ZN6il2cpp2os5Event4WaitEjb
l7b:__ZN17AnimationCurveTplIfE16StripInvalidKeysEv
CZd:_Array_InternalArray__ICollection_Add_TisKeyValuePair_2_t3716250094_m2381539361_gshared
UYh:_InvokableCall_add_Delegate_m1994890856
kge:_X509Extension_WriteLine_m2850991173
lKc:__ZNK2UI6Canvas17GetSortingLayerIDEv
E1f:__ZL40UIntPtr_t_CustomAttributesCacheGeneratorP21CustomAttributesCache
uNi:_il2cpp_method_has_attribute
j_b:__Z13RegisterClassI17GlobalGameManagerEvv
bYa:__ZN8Renderer24SetupNewRendererForSceneEv
AEg:__ZL70GridLayoutGroup_t1515633077_CustomAttributesCacheGenerator_m_StartAxisP21CustomAttributesCache
yUd:_Array_InternalArray__ICollection_Remove_TisInt64_t909078037_m2653583130_gshared
Nxi:_TextGenerator_Populate_Internal_m65392018
KGf:_Thread_get_ExecutionContext_m922067206
C4d:_BaseInvokableCall_ThrowOnInvalidArg_TisInt32_t2071877448_m2823200566_gshared
Hpc:__Z35Transfer_Blittable_FixedBufferFieldI8JSONReadtEvRK29SerializationCommandArgumentsR31RuntimeSerializationCommandInfo
_af:_RecordProtocol_get_Context_m2688493529
MJa:__ZN4PPtrI7TextureE8TransferI14SafeBinaryReadEEvRT_
M4b:__ZN14PlayableOutput6HandleEv
LZa:__ZNK6Sprite22GetTypeVirtualInternalEv
nah:_ScrollRect_get_viewport_m3177057249
ln:FUNCTION_TABLE_iiiiiiiiiiiiii
jSg:__Z100RuntimeInvoker_Void_t1841601450_SByte_t454417549_SByte_t454417549_Int32_t2071877448_SByte_t454417549PFvvEPK10MethodInfoPvPS4_
QSc:__ZN19UnityConnectService18OnPlayerQuitStaticEPS_
Bzc:_UNITY_tt_get_cmap_info
t6c:_DecoderExceptionFallback_GetHashCode_m2972426052
csb:__Z29Transfer_Blittable_ArrayFieldI24GenerateTypeTreeTransfer5RectTIiEEvRT_R9ArrayInfoRK23StaticTransferFieldInfo
xNa:__ZN16ReflectionProbes8ScheduleEN18ReflectionProbeJob7JobTypeEP15ReflectionProbei
VVe:_Collection_1_IsFixedSize_m3675221982_gshared
xgg:__ZL77Convert_t2607082565_CustomAttributesCacheGenerator_Convert_ToSByte_m883113940P21CustomAttributesCache
_Ce:_Enumerator_MoveNext_m3293920409_AdjustorThunk
Sya:__Z18IsDirectoryCreatedRKN4core12basic_stringIcNS_20StringStorageDefaultIcEEEE
hVf:_GenericTypeParameterBuilder_get_DeclaringType_m1652924692
gJc:__ZN2UI13CanvasManagerD2Ev
NGh:_Comparer_1__cctor_m3112251759_gshared
mDg:__ZL73ScrollRect_t1199013257_CustomAttributesCacheGenerator_m_VerticalScrollbarP21CustomAttributesCache
Vlf:_X509KeyUsageExtension_ToString_m1992050580
Rvc:_UNITY_FT_GlyphLoader_Done
KOf:_ValueType_DefaultEquals_m2245650968
SRh:_BalancingGroup__ctor_m2474435406
L0g:__Z49RuntimeInvoker_Int32_t2071877448_Byte_t3683104436PFvvEPK10MethodInfoPvPS4_
osf:_ConstructionCall__ctor_m1143766850
Nqg:__ZL108DefaultExecutionOrder_t2717914595_CustomAttributesCacheGenerator_DefaultExecutionOrder_get_order_m3383619944P21CustomAttributesCache
OGh:_Comparer_1_System_Collections_IComparer_Compare_m3203078743_gshared
vyf:_ObjectReader_ReadArrayOfString_m3752210963
hwg:__ZL67GUISkin_t1436893342_CustomAttributesCacheGenerator_m_verticalSliderP21CustomAttributesCache
evi:_Terminal_WriteLine_m3165006896
ASb:__ZNK21IntermediateRenderers16GetBoundingBoxesEv
pAc:_tt_cmap14_char_var_index
Fyb:__Z35Transfer_Blittable_FixedBufferFieldI18StreamedBinaryReadILb0EEdEvRK29SerializationCommandArgumentsR31RuntimeSerializationCommandInfo
KBc:_psh_globals_new
Wre:_FileStream_Seek_m950719389
pbd:_StandaloneInputModule_set_allowActivationOnMobileDevice_m2631121618
jGd:_Decimal_stripStyles_m294582157
N9:__ZN9GfxDevice20SetMaxBufferedFramesEi
wIe:_List_1_RemoveAll_m4125997475_gshared
O_g:__Z72RuntimeInvoker_Boolean_t3825574718_TypeU26_t1535498077_Int32_t2071877448PFvvEPK10MethodInfoPvPS4_
bLg:__Z98RuntimeInvoker_Void_t1841601450_Int32_t2071877448_Int32_t2071877448_RuntimeObject_SByte_t454417549PFvvEPK10MethodInfoPvPS4_
oK:__ZN24AudioScriptBufferManagerD2Ev
Ypj:dynCall_vdd
WKc:__ZN2UIL17UnloadAllCanvasesEv
lYb:__Z23ConvertIntegerToTypePtrIsEbPvR14SafeBinaryRead
G9f:__ZL54_MethodBase_t1935530873_CustomAttributesCacheGeneratorP21CustomAttributesCache
tth:_EqualityComparer_1__ctor_m99476293_gshared
g5e:_BigInteger_Incr2_m505983313
oxd:_ArrayList_get_Count_m523955479
INg:__Z96RuntimeInvoker_Void_t1841601450_SByte_t454417549_RuntimeObject_SByte_t454417549_SByte_t454417549PFvvEPK10MethodInfoPvPS4_
Kyd:_FixedSizeArrayListWrapper_Remove_m1359458911
sWh:_CameraCallback_Invoke_m2640212610
abi:_Touch_get_position_m261108426_AdjustorThunk
Sja:__ZN6prcoreL29inner_stretch_rgb565_bilinearEPKNS_9InnerInfoE
mTh:_Uri__ctor_m3927533881
vQi:__ZNK15dense_hashtableINSt3__24pairIK10KeyWrapperINS1_IPK14Il2CppAssemblyP11Il2CppClassEEEjEES9_17ReflectionMapHashIS8_EN14dense_hash_mapIS9_jSD_NS9_14EqualsComparerINS0_8equal_toIS8_EEEENS0_9allocatorISB_EEE9SelectKeyESI_SK_E12test_deletedEj
dNc:__Z33Canvas_Get_Custom_PropWorldCameraP12Il2CppObject
Ldh:_Text_get_mainTexture_m813502234
tjj:__ZN6il2cpp8metadata19Il2CppSignatureHash4HashERKNS_5utils13dynamic_arrayIPK10Il2CppTypeLj4EEE
ZPb:__ZNK14RenderSettings19GetFlatAmbientColorEv
kja:__ZN6prcoreL10inner_flipILj4EEEvPhS1_j
n4a:__ZN18StreamedBinaryReadILb0EE21TransferSTLStyleArrayI10vector_mapIPKN5Unity4TypeE7Hash128NSt3__24lessIS6_EENS8_9allocatorINS8_4pairIS6_S7_EEEEEEEvRT_17TransferMetaFlags
cy:__ZNK27StateMachineBehaviourPlayer15IsSenderEnabledEv
GHh:_Enumerator_VerifyState_m2118679243_gshared
_ld:_InputField_get_shouldHideMobileInput_m3694613599
Ggc:__Z40Register_UnityEngine_Transform_SetParentv
Qff:_SslClientStream_get_HaveRemoteValidation2Callback_m3555576758
PRg:__Z56RuntimeInvoker_TimeSpan_t3430258949_TimeSpan_t3430258949PFvvEPK10MethodInfoPvPS4_
C$a:__ZN14Texture2DArray17UploadToGfxDeviceEv
y$e:_ReadOnlyCollection_1_System_Collections_Generic_IListU3CTU3E_Insert_m4216310986_gshared
kYe:_ReadOnlyCollection_1_System_Collections_Generic_IListU3CTU3E_set_Item_m1532495847_gshared
lJ:__Z14FMODMemoryFreePvjPKc
_lg:__ZL103Camera_t189460977_CustomAttributesCacheGenerator_Camera_INTERNAL_CALL_ScreenToViewportPoint_m2554844623P21CustomAttributesCache
svh:_InternalEnumerator_1_System_Collections_IEnumerator_Reset_m3731327620_AdjustorThunk
rzg:__ZL104PointerEventData_t1599784723_CustomAttributesCacheGenerator_PointerEventData_get_worldNormal_m1704987468P21CustomAttributesCache
bei:_YieldInstruction_t3462875981_marshal_pinvoke_cleanup
Bld:_Image_AddQuad_m1600600902
$Cc:_cf2_glyphpath_moveTo
Ccd:_AnimationTriggers_set_disabledTrigger_m609579531
g6f:__ZL47File_t1930543328_CustomAttributesCacheGeneratorP21CustomAttributesCache
lLd:_DateTimeOffset__ctor_m1796624924
NNh:_Identity_get_ChannelSink_m3989446673
P7c:_BaseRaycaster_OnDisable_m1716508791
Gu:__ZN7mecanim23TransformValueArrayLoopEiiiRKN4math4trsXES3_RNS_10ValueArrayEf
b6e:_ASN1Convert_ToInt32_m2121135414
XBh:_InternalEnumerator_1_MoveNext_m1741571735_gshared
Zic:__ZN5IMGUI14GUIWindowStateD2Ev
K1f:__ZL82Enum_t2459695545_CustomAttributesCacheGenerator_Enum_GetUnderlyingType_m3513899012P21CustomAttributesCache
wfj:_GC_is_heap_ptr
zdf:_TlsServerSettings_set_CertificateRequest_m3419519893
gbi:_TouchScreenKeyboard_Open_m2033426733
nB:__ZN7mecanim5human10RetargetToEPKNS0_5HumanEPKNS0_9HumanPoseES6_RKN4math4trsXEPS4_PNS_8skeleton13SkeletonPoseTIS8_EESF_
yu:__ZN7mecanim9animation8SeekClipERKNS0_12StreamedClipERNS0_18StreamedClipMemoryEf
rLf:_Type_get_IsGenericParameter_m161434704
MVf:_MethodBuilder_get_Attributes_m3678061338
em:_emscripten_glIsTexture
qyd:_ArrayListWrapper_CopyTo_m793444109
Lgg:__ZL79Convert_t2607082565_CustomAttributesCacheGenerator_Convert_ToUInt16_m3265369225P21CustomAttributesCache
Lk:_emscripten_glHint
R3g:__Z33RuntimeInvoker_Color32_t874517518PFvvEPK10MethodInfoPvPS4_
gGc:_ft_var_readpackeddeltas
vKd:_DateTime_AddMilliseconds_m1813199744_AdjustorThunk
IAf:_SByte_System_IConvertible_ToSByte_m108774324_AdjustorThunk
QVf:_MethodBuilder_GetParameterCount_m467267889
Zbj:__ZThn4_N6il2cpp2vm13CachedCCWBaseINS0_13ManagedObjectEE6AddRefEv
gvb:__Z35Transfer_Blittable_FixedBufferFieldI18StreamedBinaryReadILb1EEtEvRK29SerializationCommandArgumentsR31RuntimeSerializationCommandInfo
jpf:_X509ChainStatus_t4278378721_marshal_pinvoke
J8h:_RectTransform_INTERNAL_get_pivot_m4220117653
P7e:_RSAManaged__ctor_m1680944437
hm:_SDL_UpperBlit
tNa:__Z35GetTextureDecodeValuesWithIntensity16TextureUsageMode17TextureColorSpace10ColorSpacef
uvd:_Byte_GetHashCode_m2885528842_AdjustorThunk
yWi:__ZN15dense_hashtableINSt3__24pairIK10KeyWrapperINS1_IPK9EventInfoP11Il2CppClassEEEjEES9_17ReflectionMapHashIS8_EN14dense_hash_mapIS9_jSD_NS9_14EqualsComparerINS0_8equal_toIS8_EEEENS0_9allocatorISB_EEE9SelectKeyESI_SK_E15set_deleted_keyERKSB_
$lh:_Dictionary_2_OnDeserialization_m2092139626_gshared
eZh:_PersistentCall__ctor_m3653852388
XAb:__ZN14SafeBinaryRead20OverrideRootTypeNameEPKc
iBi:__ZNK10KeyWrapperIPK22Il2CppGenericParameterE14EqualsComparerINSt3__28equal_toIS2_EEEclERKS3_SA_
r2:__ZN14FileCacherRead16UnlockCacheBlockEj
pfe:_X509Certificate_GetUnsignedBigInteger_m3491353542
Mob:__Z18Transfer_BlittableI17RemapPPtrTransferLb1E8Vector3fEvRK29SerializationCommandArgumentsR31RuntimeSerializationCommandInfo
f7f:__ZL57StackBehaviour_t1390406961_CustomAttributesCacheGeneratorP21CustomAttributesCache
Ic:_emscripten_glUniform1f
WHi:__ZNK15dense_hashtableINSt3__24pairIK10KeyWrapperIPKcEP11Il2CppClassEES5_N6il2cpp5utils11StringUtils12StringHasherIS4_EEN14dense_hash_mapIS5_S8_SE_NS5_14EqualsComparerINSB_13VmStringUtils21CaseSensitiveComparerEEENS0_9allocatorIS9_EEE9SelectKeyESJ_SL_E12test_deletedERK24dense_hashtable_iteratorIS9_S5_SE_SN_SJ_SL_E
Hhb:__ZNK12HandlerChain4SizeERK13FileEntryData
qwc:__Z20ParseImageParametersR11UTF16StringRiRN20TextRenderingPrivate16TextFormatChangeE
_0h:_NativeClassAttribute__ctor_m3728148471
Nc:_emscripten_glUniform1i
_zh:_InternalEnumerator_1_System_Collections_IEnumerator_Reset_m651165750_AdjustorThunk
Aqb:__Z18Transfer_BlittableI24GenerateTypeTreeTransferLb1EN4math12int3_storageEEvRK29SerializationCommandArgumentsR31RuntimeSerializationCommandInfo
tY:__Z33UnregisterDeviceEventCallbackImplPFv23UnityGfxDeviceEventTypeE
R8g:__Z14bankers_roundff
Qcb:__ZN9ShaderLab16SerializedTagMapaSERKS0_
EVd:_SetPropertyUtility_SetStruct_TisFillMethod_t1640962579_m1867757822_gshared
yR:__ZN11UnityEngine15CloudWebService16SessionContainer20RestoreSessionHeaderERKN4core12basic_stringIcNS2_20StringStorageDefaultIcEEEES8_RNS0_13SessionHeaderE
$Kd:_DateTime_ToString_m1117481977
iUc:__ZN22UnityWebRequestManager13BackendRetainEv
_7b:__ZN8Material28ApplyMaterialPropertyDrawersEv
lVf:_GenericTypeParameterBuilder_GetGenericArguments_m277381309
p4g:__Z63RuntimeInvoker_KeyValuePair_2_t888819835_IntPtr_t_RuntimeObjectPFvvEPK10MethodInfoPvPS4_
yC:__ZN11UnityEngine9Animation27CreateAvatarBindingConstantER9TransformPKN7mecanim9animation14AvatarConstantERNS3_6memory9AllocatorE
fng:__ZL77Gradient_t3600583008_CustomAttributesCacheGenerator_Gradient_Init_m3042650694P21CustomAttributesCache
ANf:_UInt64_System_IConvertible_ToDateTime_m2412118561
bac:__ZN9BlobWriteC2ER13dynamic_arrayIhLj16EE24TransferInstructionFlags19BuildTargetPlatform
sQf:_AssemblyName_get_Version_m3495645648
B0:__ZN14MessageHandler3GetEv
$c:_emscripten_glAttachShader
p_e:_ReadOnlyCollection_1__ctor_m1539890895_gshared
M9:__ZN9GfxDevice13SetActiveTierE12GraphicsTier
KBe:_Enumerator_System_Collections_IEnumerator_get_Current_m3079057684_AdjustorThunk
MLe:_List_1_System_Collections_ICollection_get_SyncRoot_m1804424478_gshared
W2a:__ZNSt3__26vectorIN4core12basic_stringIcNS1_20StringStorageDefaultIcEEEENS_9allocatorIS5_EEE6assignIPS5_EENS_9enable_ifIXaasr21__is_forward_iteratorIT_EE5valuesr16is_constructibleIS5_NS_15iterator_traitsISC_E9referenceEEE5valueEvE4typeESC_SC_
fce:_KeyPairPersistence_get_UserPath_m3433052783
KSe:_Collection_1_ClearItems_m1410275009_gshared
V4g:__Z36RuntimeInvoker_Enumerator_t975728254PFvvEPK10MethodInfoPvPS4_
c1f:__ZL58Decimal_t724701077_CustomAttributesCacheGenerator_MinusOneP21CustomAttributesCache
IWd:_Array_InternalArray__IEnumerable_GetEnumerator_TisKeyframe_t1449471340_m3949799719_gshared
_kb:__Z18Transfer_BlittableI14SafeBinaryReadLb0E11QuaternionfEvRK29SerializationCommandArgumentsR31RuntimeSerializationCommandInfo
nyb:__Z18Transfer_BlittableI18StreamedBinaryReadILb0EELb1E12PropertyNameEvRK29SerializationCommandArgumentsR31RuntimeSerializationCommandInfo
Wmd:_InputField_get_inputType_m2187991661
VV:_tlsf_walk_heap
Pee:_PKCS12_Decode_m731190390
LYi:__ZNK15dense_hashtableINSt3__24pairIK10KeyWrapperIP11Il2CppClassES4_EES5_N6il2cpp8metadata16SZArrayClassHashEN14dense_hash_mapIS5_S4_SA_NS5_14EqualsComparerINS9_19SZArrayClassCompareEEENS0_9allocatorIS7_EEE9SelectKeyESE_SG_E10test_emptyERK24dense_hashtable_iteratorIS7_S5_SA_SI_SE_SG_E
Bfi:_GUIContent_set_image_m3266329364
ABh:_InternalEnumerator_1_get_Current_m1550231132_gshared
RRh:_Reference_get_IgnoreCase_m2810892634
QOf:_Version_CheckedSet_m76493673
jb:invoke_vif
Wth:_U3CGetEnumeratorU3Ec__Iterator0_Dispose_m2403602883_gshared
kb:invoke_vid
Xnj:__ZNSt3__212basic_stringIcNS_11char_traitsIcEENS_9allocatorIcEEE6insertEjPKc
Sdg:__ZL67UnverifiableCodeAttribute_t765455733_CustomAttributesCacheGeneratorP21CustomAttributesCache
lb:invoke_vii
uJb:__ZNK12ImageFilters8DoRenderER17ShaderPassContextP13RenderTextureS3_RKNSt3__26vectorI11ImageFilterNS4_9allocatorIS6_EEEE
pDg:__ZL82ScrollRect_t1199013257_CustomAttributesCacheGenerator_m_HorizontalScrollbarSpacingP21CustomAttributesCache
nkd:_LayoutGroup_get_padding_m1653511445
Fxa:__ZN12TLSAllocatorI14StackAllocatorE16ThreadInitializeEP13BaseAllocator
Oxd:_ArrayList_Sort_m2778059513
laa:__ZN9GfxDevice32UpdateStereoViewProjectionMatrixE21MonoOrStereoscopicEye
eGb:__ZN15dense_hashtableINSt3__24pairIKN4core12basic_stringIcNS2_20StringStorageDefaultIcEEEEP20ArchiveStorageReaderEES6_20StringHash32FunctionIS6_EN14dense_hash_mapIS6_S9_SC_NS0_8equal_toIS6_EE13stl_allocatorISA_L18MemLabelIdentifier55ELi16EEE9SelectKeyESF_SI_E12resize_deltaEjj
skd:_LayoutGroup_SetChildAlongAxis_m2732017156
kMc:__Z41CanvasRenderer_CUSTOM_DisableRectClippingP12Il2CppObject
G6e:_MD2_Create_m539024737
RCd:_SortedList_get_SyncRoot_m3299704254
aEe:_List_1_System_Collections_ICollection_CopyTo_m2020941110_gshared
rDd:_Slot_t2267560602_marshal_pinvoke
lTg:__Z112RuntimeInvoker_Void_t1841601450_RuntimeObject_Int32_t2071877448_Int32_t2071877448_RuntimeObject_SByte_t454417549PFvvEPK10MethodInfoPvPS4_
Vuf:_SoapAttribute_get_XmlNamespace_m1436066016
UBa:__ZN25SingleBlockMemoryFileDataD0Ev
Pxa:__ZNSt3__26vectorI14ConstantStringNS_9allocatorIS1_EEE6assignINS_11__wrap_iterIPS1_EEEENS_9enable_ifIXaasr21__is_forward_iteratorIT_EE5valuesr16is_constructibleIS1_NS_15iterator_traitsISA_E9referenceEEE5valueEvE4typeESA_SA_
tR:__ZN11UnityEngine15CloudWebService16SessionContainer21ConvertFromFolderTimeERKN4core12basic_stringIcNS2_20StringStorageDefaultIcEEEEPjPt
Lmb:__ZNSt3__26vectorI8GUIStyle13stl_allocatorIS1_L18MemLabelIdentifier1ELi16EEE7reserveEj
C_i:__ZN6il2cpp6icalls8mscorlib6System9Threading6Thread27GetSerializedCurrentCultureEP12Il2CppThread
QYd:_Array_InternalArray__IndexOf_TisUInt32_t2149682021_m3231515987_gshared
cli:_ListPool_1__cctor_m709904475_gshared
i0b:__Z31CalculateHierarchyTransformType23TransformAccessReadOnly
G_b:__Z13RegisterClassI11TimeManagerEvv
cJ:__ZN4FMOD8ChannelI11setPositionEjj
AMg:__Z136RuntimeInvoker_IntPtr_t_RuntimeObject_Int32_t2071877448_Int32_t2071877448_Int32_t2071877448_Int32_t2071877448_MonoIOErrorU26_t1029615899PFvvEPK10MethodInfoPvPS4_
eEg:__ZL75ToggleGroup_t1030026315_CustomAttributesCacheGenerator_U3CU3Ef__amU24cache1P21CustomAttributesCache
FNh:_SynchronizedClientContextSink__ctor_m978504596
oaa:__ZN9GfxDevice17SetStereoViewportE15StereoscopicEyeRK5RectTIiE
B7:__ZN17BaseObjectManager13StaticDestroyEPv
VLd:_DBNull_System_IConvertible_ToChar_m3344298044
qOh:_LinkStack_Push_m2660199875
XH:__ZN4FMOD6Reverb13setPropertiesEPK22FMOD_REVERB_PROPERTIES
SXi:__ZN15dense_hashtableINSt3__24pairIK10KeyWrapperIP11Il2CppClassES4_EES5_N6il2cpp8metadata16SZArrayClassHashEN14dense_hash_mapIS5_S4_SA_NS5_14EqualsComparerINS9_19SZArrayClassCompareEEENS0_9allocatorIS7_EEE9SelectKeyESE_SG_E5clearEv
gLb:__ZN9DepthPass13PrepareSubsetEjRK10RenderNodeifRK17ShaderReplaceData
N2h:_X509CertificateCollection_Add_m4008705157
luf:_MonoMethodMessage_set_Uri_m3218581120
Mng:__ZL108TouchScreenKeyboard_t601950206_CustomAttributesCacheGenerator_TouchScreenKeyboard_Open_m2033426733____alert5P21CustomAttributesCache
Uoi:_AudioMixerPlayable_GetHandle_m3697423575_AdjustorThunk
L6b:__Z35SetMeshComponentFromArrayFromScriptR4Mesh30InternalScriptingShaderChannel34InternalScriptingVertexChannelTypei17ScriptingArrayPtri
i0e:_ReadOnlyCollection_1_System_Collections_IList_Add_m3806843030_gshared
DLa:__ZN4PPtrI6ShaderE8TransferI19StreamedBinaryWriteILb0EEEEvRT_
bTe:_Collection_1_IsFixedSize_m1816795498_gshared
$p:__ZN4core20StringStorageDefaultIcE6assignEPKcj
ZNg:__Z111RuntimeInvoker_Void_t1841601450_RuntimeObject_SByte_t454417549_ObjectU26_t597476745_HeaderU5BU5DU26_t2818328198PFvvEPK10MethodInfoPvPS4_
H4i:__ZN15dense_hashtableINSt3__24pairIK10KeyWrapperIP12Il2CppObjectEN6il2cpp2gc9CachedCCWEEES5_NS7_5utils11PointerHashIS3_EEN14dense_hash_mapIS5_S9_SD_NS5_14EqualsComparerINS0_8equal_toIS4_EEEENS0_9allocatorISA_EEE9SelectKeyESI_SK_E3endEv
$ad:_MouseButtonEventData_ReleasedThisFrame_m482758300
z9h:_SceneManager_Internal_SceneLoaded_m1729738062
qXi:__ZN15dense_hashtableINSt3__24pairIK10KeyWrapperINS1_IP11Il2CppClassjEEES4_EES6_N6il2cpp8metadata14ArrayClassHashEN14dense_hash_mapIS6_S4_SB_NS6_14EqualsComparerINSA_17ArrayClassCompareEEENS0_9allocatorIS8_EEE9SelectKeyESF_SH_E9copy_fromERKSK_j
Pyd:_ReadOnlyArrayListWrapper_set_Item_m2199017141
pUb:__ZN6Camera6SetFarEf
I2h:_DeriveBytes_DeriveIV_m3343375195
_wc:_UNITY_FT_Init_Class_ft_bitmap_glyph_class
TYc:_RNGCryptoServiceProvider_GetBytes_m167497991
Aka:__ZN6prcoreL12RemapGenericI17TexFormatABGR888817TexFormatARGB8888EEvPKNS_9InnerInfoE
dDa:__ZN11GameManager17MainThreadCleanupEv
bai:_SetupCoroutine_InvokeMember_m170868586
RNc:__Z50Register_UnityEngine_UISystemProfilerApi_EndSamplev
JVg:__Z60RuntimeInvoker_Boolean_t3825574718_PlayableOutput_t988259697PFvvEPK10MethodInfoPvPS4_
lTf:_TypeBuilder_get_Assembly_m492491492
Hb:invoke_vffff
XUe:_Collection_1_InsertItem_m1225429801_gshared
e9e:_CipherSuite_set_Context_m4127897124
YEc:_UNITY_tt_slot_init
ZGb:__ZZ23InitPlayerLoopCallbacksvEN41PostLateUpdateUpdateResolutionRegistrator7ForwardEv
NXd:_Array_FindLastIndex_TisRuntimeObject_m986818300_gshared
Vzb:__Z25scripting_array_class_get17ScriptingClassPtrj
Jnc:__ZL22Transfer_ManagedObjectI9JSONWriteLb1EEvRK29SerializationCommandArgumentsR31RuntimeSerializationCommandInfo
cF:__ZNK10SampleClip22GetTypeVirtualInternalEv
tba:__ZN9GfxDevice20DestroyRenderSurfaceER12ObjectHandleI17RenderSurface_TagP17RenderSurfaceBaseE
r8:__ZN18SpriteAtlasManagerC2Ev
dua:__ZN9GfxDevice22UpdateComputeResourcesEjPK9TextureIDPK16TextureDimensionPKijPKjjPK15ComputeBufferIDS7_PK20ComputeBufferCounterjSC_S2_S5_S9_SF_
mGa:__ZN12_GLOBAL__N_15qAsinEff
X3d:_Dictionary_2_Do_ICollectionCopyTo_TisKeyValuePair_2_t3749587448_m2536766696_gshared
Gxa:__ZN12TLSAllocatorI14StackAllocatorE13ThreadCleanupEv
EF:__Z18GetAudioManagerPtrv
RXd:_Array_IndexOf_TisRuntimeObject_m1815604637_gshared
BEe:_List_1_GetEnumerator_m2837081829_gshared
bbj:__ZThn4_N6il2cpp2vm13ComObjectBase16MarshalInterfaceEP13Il2CppIStreamRK10Il2CppGuidPvjS7_j
P0a:__ZN4Mesh27SwizzleVertexColorsIfNeededEb
GCb:__Z27FindActiveTransformWithPathPKc
qFa:__ZN12BaseRendererD0Ev
cYb:__Z29StdTemplateConversionFunctionIbyEbPvR14SafeBinaryRead
uSg:__Z44RuntimeInvoker_X509KeyUsageFlags_t2461349531PFvvEPK10MethodInfoPvPS4_
b6h:_PropertyName_op_Inequality_m2830582941
tge:_SecurityParser_OnEndElement_m2909940377
Fxg:__ZL92CanvasRenderer_t261436805_CustomAttributesCacheGenerator_CanvasRenderer_set_cull_m3941605148P21CustomAttributesCache
QFa:__ZNK6Camera7GetNearEv
Ina:__ZN7ApiGLES11UnmapBufferEjN2gl12BufferTargetE
lbj:__ZN6il2cpp5utilsL24Utf32CharToSurrogatePairEjRA2_Ds
eVa:__Z25GetNextAllowedTextureSizeib13TextureFormat
yCb:__ZN20LocalFileSystemWebGL4CopyER13FileEntryDataS1_
pJe:_List_1_CheckIndex_m4231572822_gshared
UT:__ZN19CloudServiceHandler6RetainEv
fjj:__ZN6il2cpp2os9Semaphore4WaitEb
x1c:_StrongName_Equals_m67226644
Ijc:__Z36Event_CUSTOM_Internal_SetNativeEventPv
pGa:__ZN12BaseRenderer20FlattenToRenderQueueER15RenderNodeQueueRK20DeprecatedSourceData
nUf:_FieldBuilder_get_Attributes_m2174064290
Gve:_UnmanagedMemoryStream_get_Length_m587008850
M9a:__Z34scripting_liveness_calculation_endPv
yhc:__ZNK19RectangleCellLayout13GetCellCenterEv
N8i:__ZN6il2cpp2os6ThreadC2Ev
k2c:_SecurityFrame_InitFromRuntimeFrame_m45195821
A6f:__ZL53TextReader_t1561828458_CustomAttributesCacheGeneratorP21CustomAttributesCache
Znf:_X509Chain_IsSignedWith_m292245392
Ut:__ZN21AnimationClipPlayable22ProcessAnimationNoClipEPK35AnimationPlayableEvaluationConstantPK32AnimationPlayableEvaluationInputP33AnimationPlayableEvaluationOutput
C6i:__ZNK6il2cpp2os10SocketImpl12GetLastErrorEv
tUd:_Array_InternalArray__ICollection_Remove_TisDateTime_t693205669_m1275668216_gshared
_mh:_Dictionary_2__ctor_m871840915_gshared
t_e:_ReadOnlyCollection_1_System_Collections_Generic_ICollectionU3CTU3E_Remove_m3751131234_gshared
jpc:__Z18Transfer_BlittableI8JSONReadLb0E8Vector3fEvRK29SerializationCommandArgumentsR31RuntimeSerializationCommandInfo
dLh:_ChannelServices__cctor_m3534779830
TYi:__ZN6il2cpp2vm6Thread6DetachEP12Il2CppThread
o8h:_RectOffset_Finalize_m816260249
Lbi:_Transform_set_localRotation_m3053695533
YAc:_Render_Single_Pass
bHd:_Convert_ToInt16_m416789348
BCf:_EncoderExceptionFallback_Equals_m762170768
wri:__ZL24UnresolvedVirtualCall_59P12Il2CppObjectS0_aPK10MethodInfo
gni:_EqualityComparer_1__cctor_m2666196678_gshared
qsc:__GLOBAL__sub_I_runtime_dynamics_2_cpp
Qfh:_Enumerator_get_CurrentValue_m3147984131_AdjustorThunk
EC:__ZN7mecanim8skeleton30SkeletonBuildReverseIndexArrayEPiPKiPKNS0_8SkeletonES6_
Nhc:__Z19GetGUIBlendMaterialv
WWg:__Z69RuntimeInvoker_Boolean_t3825574718_TextGenerationSettings_t2543476768PFvvEPK10MethodInfoPvPS4_
$6i:__ZN6il2cpp2os10ThreadImpl5SleepEjb
_Eh:_InternalEnumerator_1_System_Collections_IEnumerator_Reset_m3669601605_AdjustorThunk
e5h:_X509ExtensionCollection_System_Collections_IEnumerable_GetEnumerator_m2600902401
IVe:_Collection_1_InsertItem_m1073626529_gshared
iji:_UnityEvent_1_GetDelegate_m2559549291_gshared
Ush:_EqualityComparer_1_System_Collections_IEqualityComparer_Equals_m2389655864_gshared
h7h:_Rect_get_center_m2903917731_AdjustorThunk
svj:_glBindSampler__wrapper
VCa:__ZNSt3__26vectorIN20ArchiveStorageHeader12StorageBlockE13stl_allocatorIS2_L18MemLabelIdentifier55ELi16EEE8__appendEj
Ff:_emscripten_set_mouseup_callback
Uta:__ZN9GfxDevice27SetRandomWriteTargetTextureEi9TextureID
nZg:__Z58RuntimeInvoker_Boolean_t3825574718_SpriteState_t1353336012PFvvEPK10MethodInfoPvPS4_
Oba:__ZN9GfxDevice47SwitchColorRenderSurfaceOutOfFastMemoryPlatformEP17RenderSurfaceBaseb
F4d:_BaseInvokableCall_ThrowOnInvalidArg_TisColor_t2020392075_m3638385415_gshared
mWb:__ZNK18ScreenManagerWebGL8GetWidthEv
Tpi:_AudioExtensionManager_GetListenerSpatializerExtensionEditorType_m165088149
IIi:__ZN6il2cpp2vm13MetadataCache33GetFieldDefaultValueDataFromIndexEi
$jd:_GridLayoutGroup_set_startAxis_m1635162426
$E:__ZN10SampleClipD2Ev
KNh:_SynchronizationAttribute_EnterContext_m2984912761
V1f:__ZL73Enum_t2459695545_CustomAttributesCacheGenerator_Enum_ToObject_m2601523252P21CustomAttributesCache
FSd:_CultureInfo_construct_internal_locale_from_name_m971766383
_6i:__ZN6il2cpp2os10ThreadImpl13SetWaitObjectEPNS0_5posix15PosixWaitObjectE
wvd:_Byte_Equals_m368616327_AdjustorThunk
d9a:__Z13GetGISettingsv
r_d:_Array_InternalArray__ICollection_Add_TisUIVertex_t1204258818_m3869382594_gshared
ET:__ZN11UnityEngine15CloudWebService20WebRequestRestClientC2Ev
sEc:_cff_cmap_unicode_init
cJb:__ZNSt3__224__buffered_inplace_mergeIRN10vector_mapIiN17InstancedPropInfo12PropertyTypeENS_4lessIiEE13stl_allocatorINS_4pairIiS3_EEL18MemLabelIdentifier1ELi16EEE13value_compareENS_11__wrap_iterIPS8_EEEEvT0_SH_SH_T_NS_15iterator_traitsISH_E15difference_typeESL_PNSK_10value_typeE
YPd:_Enum_ToObject_m2460371738
Z9d:_PrimalityTests_Test_m1088386156
u2:__ZN14FileCacherRead13GetFileLengthEv
Pdi:_Vector4_SqrMagnitude_m1060560279
qmj:_readlink
aUi:__ZN15dense_hashtableINSt3__24pairIK10KeyWrapperINS1_IPK9EventInfoP11Il2CppClassEEEjEES9_17ReflectionMapHashIS8_EN14dense_hash_mapIS9_jSD_NS9_14EqualsComparerINS0_8equal_toIS8_EEEENS0_9allocatorISB_EEE9SelectKeyESI_SK_E12resize_deltaEjj
A2d:_Array_Resize_TisVector3_t2243707580_m893658391_gshared
xxh:_InternalEnumerator_1_System_Collections_IEnumerator_get_Current_m4259662004_AdjustorThunk
X5d:_Array_InternalArray__get_Item_TisKeyframe_t1449471340_m1003508933_gshared
nhj:__ZN6il2cpp8metadata14Il2CppTypeHash4HashEPK10Il2CppType
zij:__ZN6il2cpp2os13SemaphoreImplC2Eii
msg:__ZL123UnitySynchronizationContext_t1205147244_CustomAttributesCacheGenerator_UnitySynchronizationContext_ExecuteTasks_m1920809885P21CustomAttributesCache
OPg:__Z50RuntimeInvoker_Double_t4078015681_Int64_t909078037PFvvEPK10MethodInfoPvPS4_
Jee:_StrongName_get_PublicKeyToken_m1968460885
M2a:__ZNK6Sprite9GetBoundsE8Vector2fbb
mJa:__ZNK19RenderEventsContext21CleanupCommandBuffersEv
efa:__ZN11ContextGLES6CreateEi
npe:_BinaryReader_Dispose_m4249456877
W4h:_X509CrlEntry_get_Extensions_m1330698752
gGd:_Double_ToString_m1085043609
bzb:__Z19TransferField_ArrayI18StreamedBinaryReadILb0EE27Converter_SimpleNativeClassI17AnimationCurveTplIfEEEvRK23StaticTransferFieldInfoR31RuntimeSerializationCommandInfoRT0_
i9e:_CipherSuite_createEncryptionCipher_m1926075645
J1h:_Plane__ctor_m730644932
jxa:__ZN14StackAllocator16FrameMaintenanceEb
ujd:_Graphic_Raycast_m3582517890
mza:__Z18ReadStringFromFilePN4core17string_with_labelILi1EEERKNS_12basic_stringIcNS_20StringStorageDefaultIcEEEE
b3:__ZNK10GameObject20QueryComponentByTypeEPKN5Unity4TypeE
Rei:_GUISkin_MakeCurrent_m1547433985
PCe:_Enumerator_MoveNext_m1367380970_AdjustorThunk
EWf:_OpCode_GetHashCode_m2974727122
OCd:_Enumerator_Reset_m466659019
j9e:_CipherSuite_createDecryptionCipher_m1118350455
vPh:_PatternCompiler_EmitReference_m1381860071
OOd:_Double_System_IConvertible_ToInt16_m4200640326
pUa:__ZN11TextureData5ResetEv
pqg:__ZL105RectTransform_t3349966182_CustomAttributesCacheGenerator_RectTransform_INTERNAL_get_anchorMin_m3722367822P21CustomAttributesCache
lcc:__Z53Register_UnityEngine_GameObject_get_activeInHierarchyv
pVf:_GenericTypeParameterBuilder_get_IsGenericType_m1883522222
U8:__ZN15dense_hashtableINSt3__24pairIKN4core12basic_stringIcNS2_20StringStorageDefaultIcEEEE13dynamic_arrayI4PPtrI6SpriteELj4EEEES6_20StringHash32FunctionIS6_EN14dense_hash_mapIS6_SC_SF_NS0_8equal_toIS6_EE13stl_allocatorISD_L18MemLabelIdentifier81ELi16EEE9SelectKeyESI_SL_EC2ERKSO_j
n_:__ZL30InitializeCoreScriptingClassesv
TVe:_Collection_1_CheckWritable_m3938993573_gshared
Bg:_glBlitFramebuffer
wAa:__ZN17ArchiveFileSystem5TouchER13FileEntryData
Jdf:_SecurityParameters_set_Cipher_m3888132335
fae:_BigInteger_GeneratePseudoPrime_m2606361440
JLd:_DateTimeFormatInfo_get_ShortTimePattern_m20923983
xob:__Z35Transfer_Blittable_SingleValueFieldI14SafeBinaryReadhEvRT_R17GeneralMonoObjectRK23StaticTransferFieldInfo
wCg:__ZL140U3CMouseDragOutsideRectU3Ec__Iterator1_t2599668326_CustomAttributesCacheGenerator_U3CMouseDragOutsideRectU3Ec__Iterator1_Dispose_m2134284531P21CustomAttributesCache
B5b:__ZN12CachedWriter15CompleteWritingEv
wde:_EncryptedPrivateKeyInfo_get_Algorithm_m2779196942
Ruf:_RemotingServices_GetRealProxy_m620317996
uLb:__ZN13dynamic_arrayI11CulledLightLj4EE6insertEPS0_PKS0_S4_
Wuh:_ArrayReadOnlyList_1_RemoveAt_m2270349795_gshared
tTa:__ZNK12CubemapArray22GetTypeVirtualInternalEv
nwi:_Predicate_1_Invoke_m2060780095_gshared
EIi:__ZN6il2cpp2vm13MetadataCache23GetInterfaceOffsetIndexEi
In:FUNCTION_TABLE_vif
Jn:FUNCTION_TABLE_vid
Kn:FUNCTION_TABLE_vii
X9a:__Z40scripting_liveness_calculation_from_root18ScriptingObjectPtrPv
aQa:__ZN7Texture23VirtualRedirectTransferER24GenerateTypeTreeTransfer
Wuc:_UNITY_FT_Set_Transform
b2b:__ZNK32RendererMaterialAnimationBinding12SetPPtrValueERKN11UnityEngine9Animation10BoundCurveEi
V3i:__ZN6il2cpp8metadata15GenericMetadata20RegisterGenericClassEP18Il2CppGenericClass
LSg:__Z101RuntimeInvoker_OpFlags_t378191910_SByte_t454417549_SByte_t454417549_SByte_t454417549_SByte_t454417549PFvvEPK10MethodInfoPvPS4_
Zuj:_glDeleteFramebuffers__wrapper
Tkd:_Image_get_overrideSprite_m706080347
D0g:__Z54RuntimeInvoker_Int32_t2071877448_LabelData_t3712112744PFvvEPK10MethodInfoPvPS4_
J4e:_BigInteger_ModInverse_m1881894572
OLi:__ZN6il2cpp2vm7Runtime17GetDelegateInvokeEP11Il2CppClass
A2b:__ZZN12MeshRenderer15InitializeClassEvEN29FunctorImpl_134kDidDeleteMesh4CallEPviR11MessageData
LDg:__ZL59Slider_t297367283_CustomAttributesCacheGenerator_m_FillRectP21CustomAttributesCache
RVi:__ZN30dense_hashtable_const_iteratorINSt3__24pairIK10KeyWrapperIPK22Il2CppGenericParameterEPK24MonoGenericParameterInfoEES6_N6il2cpp5utils11PointerHashIS4_EEN14dense_hash_mapIS6_SA_SF_NS6_14EqualsComparerINS0_8equal_toIS5_EEEENS0_9allocatorISB_EEE9SelectKeyESK_SM_E30advance_past_empty_and_deletedEv
vWa:__ZN28EnlightenRendererInformation8TransferI14SafeBinaryReadEEvRT_
aSg:__Z88RuntimeInvoker_RuntimeObject_RuntimeObject_Int32_t2071877448_RuntimeObject_RuntimeObjectPFvvEPK10MethodInfoPvPS4_
J8f:__ZL69DefaultDependencyAttribute_t3858269114_CustomAttributesCacheGeneratorP21CustomAttributesCache
iCa:__ZNK15Lz4Decompressor16DecompressMemoryEPKvPjPvS2_
u7h:_Rect_get_height_m1231429410
X0e:_ReadOnlyCollection_1_System_Collections_IList_get_Item_m887129009_gshared
PRa:__Z35UnityPropertySheet_MakeSortedColorsRKNSt3__23mapIN9ShaderLab16FastPropertyNameE10ColorRGBAfNS_4lessIS2_EENS_9allocatorINS_4pairIKS2_S3_EEEEEER10vector_mapIS2_S3_S5_NS6_INS7_IS2_S3_EEEEE
tMd:_Decimal_System_IConvertible_ToType_m3828527724_AdjustorThunk
hnd:_InputField_get_caretPositionInternal_m3011712053
Eyc:_UNITY_tt_face_load_os2
y6e:_HMAC_get_Key_m2528863640
FWe:_Collection_1_IsSynchronized_m1366278230_gshared
jeg:__ZL93StringBuilder_t1221177846_CustomAttributesCacheGenerator_StringBuilder_AppendLine_m1686706871P21CustomAttributesCache
Pnb:__Z29Transfer_Blittable_ArrayFieldI14SafeBinaryRead8Vector4fEvRT_R9ArrayInfoRK23StaticTransferFieldInfo
PSd:_Array_get_swapper_TisInt32_t2071877448_m2837069166_gshared
D9g:_Selectable_Navigate_m915280351
C_g:__Z77RuntimeInvoker_Boolean_t3825574718_AspectModeU26_t218518220_Int32_t2071877448PFvvEPK10MethodInfoPvPS4_
OLh:_ConfigHandler_CheckPath_m2296459741
tad:_PointerEventData_IsScrolling_m1971908975
q3g:__Z56RuntimeInvoker_ContentType_t1028629049_Int32_t2071877448PFvvEPK10MethodInfoPvPS4_
yvi:_Keyboard_WarnIfTerminalNotConneced_m4209930749
QGb:__ZZ23InitPlayerLoopCallbacksvEN51PostLateUpdateUpdateCustomRenderTexturesRegistrator7ForwardEv
Ctg:__ZL53UILineInfo_t3621277874_CustomAttributesCacheGeneratorP21CustomAttributesCache
FMd:_Decimal_System_IConvertible_ToInt16_m3159038792
qu:__ZN7mecanim9animation12EvaluateClipEPKNS0_4ClipEPKNS0_9ClipInputEPNS0_10ClipMemoryEPNS0_10ClipOutputE
b6a:__ZNSt3__26vectorIN15ResourceManager10DependencyE13stl_allocatorIS2_L18MemLabelIdentifier52ELi16EEEC2INS_11__wrap_iterIPS2_EEEET_SB_RKS5_PNS_9enable_ifIXaasr21__is_forward_iteratorISB_EE5valuesr16is_constructibleIS2_NS_15iterator_traitsISB_E9referenceEEE5valueEvE4typeE
GWa:__ZN4PPtrI11LightProbesE8TransferI18StreamedBinaryReadILb0EEEEvRT_
JJh:_ComVisibleAttribute__ctor_m1789587486
d_f:_MonoMethodInfo_GetReturnType_m2864247130
EQg:__Z39RuntimeInvoker_DateTimeKind_t2186819611PFvvEPK10MethodInfoPvPS4_
fTb:__ZN13RenderManager29SetCurrentCameraAndStackStateEP6CameraP25CameraStackRenderingState
Ibi:_Transform_INTERNAL_get_rotation_m1873681960
cFa:__ZNSt3__26__treeINS_12__value_typeIjN4core12basic_stringIcNS2_20StringStorageDefaultIcEEEEEENS_19__map_value_compareIjS7_NS_4lessIjEELb1EEE13stl_allocatorIS7_L18MemLabelIdentifier7ELi16EEE7destroyEPNS_11__tree_nodeIS7_PvEE
FYi:__ZN15dense_hashtableINSt3__24pairIK10KeyWrapperINS1_IP11Il2CppClassjEEES4_EES6_N6il2cpp8metadata14ArrayClassHashEN14dense_hash_mapIS6_S4_SB_NS6_14EqualsComparerINSA_17ArrayClassCompareEEENS0_9allocatorIS8_EEE9SelectKeyESF_SH_E12resize_deltaEjj
Qh:_JS_WebRequest_Release
Aqe:_DirectoryNotFoundException__ctor_m2242202556
TR:__ZN11UnityEngine15CloudWebService14DataErrorEventD0Ev
_$i:__ZN6il2cpp6icalls8mscorlib6System4Type20internal_from_handleEi
H5c:_String_CreateString_m2448464375
Epf:_X509SubjectKeyIdentifierExtension__ctor_m2959112706
Rfh:_Enumerator_Reset_m1147555085_AdjustorThunk
cYf:_FieldInfo_get_IsNotSerialized_m2322769148
Xhg:__ZL68Math_t2022911894_CustomAttributesCacheGenerator_Math_Max_m2671311541P21CustomAttributesCache
R3i:__ZN6il2cpp8metadata15GenericMetadata7InflateEPK19Il2CppGenericMethodPK20Il2CppGenericContext
SVa:__ZN19ShaderPropertySheet16SetArrayPropertyEN9ShaderLab16FastPropertyNameENS_12PropertyTypeEPKvj
YZf:_MonoGenericCMethod_get_ReflectedType_m2689239043
aMb:__ZN22PerThreadPageAllocatorC2Ev
GWe:_Collection_1_IsFixedSize_m499196375_gshared
jfd:_ColorTween_set_startColor_m3546206870_AdjustorThunk
B2f:__ZL67RuntimeArray_CustomAttributesCacheGenerator_Array_IndexOf_m77084779P21CustomAttributesCache
L0f:__ZL63String_t_CustomAttributesCacheGenerator_String_Split_m394273024P21CustomAttributesCache
XIc:__ZN2UI11CanvasGroup23VirtualRedirectTransferER19StreamedBinaryWriteILb0EE
EAh:_InternalEnumerator_1_get_Current_m4083613828_gshared
RNi:__ZN6il2cpp2os4File11GetStdErrorEv
Oxi:_TextGenerator_INTERNAL_CALL_Populate_Internal_cpp_m106350432
sZh:_UnityAction__ctor_m3825983746
fjc:__ZN8GUIState8EndOnGUIEv
iFf:_UnicodeEncoding_GetString_m542738941
dFc:_UNITY_TT_Get_VMetrics
$pe:_Path_InsecureGetFullPath_m2635272425
JDd:_Enumerator_Clone_m1124749523
aKd:_DateTime_System_IConvertible_ToUInt32_m1363211018
v6h:_Quaternion_ToString_m1042358501
aAf:_RuntimeMethodHandle__ctor_m1162528746
Owi:_Predicate_1__ctor_m3243601712_gshared
GOe:_Enumerator_Dispose_m3300818037_AdjustorThunk
YLe:_List_1_AsReadOnly_m4108578222_gshared
hVc:_DSA__ctor_m613430209
zVd:_SetPropertyUtility_SetStruct_TisSingle_t2076509932_m3849235084_gshared
Zha:__ZN7Texture21GetMasterTextureLimitEv
XUb:__Z12CanAddScriptR10GameObject17ScriptingClassPtrPS1_S2_
$Wi:__ZN6il2cpp2vm10Reflection12HasAttributeEP12Il2CppObjectP11Il2CppClass
O$c:_X509Certificate_GetExpirationDateString_m2351894475
jZ:__ZN9ShaderLabL25StaticInitializeShaderLabEPv
yoh:_Dictionary_2_ContainsKeyValuePair_m3818021458_gshared
U:Math_max
PWe:_Collection_1_System_Collections_IList_Insert_m1511106741_gshared
uog:__ZL93Mesh_t1356156583_CustomAttributesCacheGenerator_Mesh_GetAllocArrayFromChannelImpl_m1559282939P21CustomAttributesCache
bsi:__ZL24UnresolvedVirtualCall_92P12Il2CppObjectPK10MethodInfo
AMi:_il2cpp_class_get_methods
cqe:_Path_CanonicalizePath_m383914732
EHh:_Enumerator_System_Collections_IEnumerator_get_Current_m1631145297_gshared
Dqb:__Z18Transfer_BlittableI24GenerateTypeTreeTransferLb0EN4math12int2_storageEEvRK29SerializationCommandArgumentsR31RuntimeSerializationCommandInfo
Txd:_ArrayList_Synchronized_m2395071980
T8i:__ZN6il2cpp2os6Thread16GetCurrentThreadEv
r2f:__ZL81RuntimeArray_CustomAttributesCacheGenerator_Array_SetValue_m169741241____indices1P21CustomAttributesCache
_3b:__ZN10GameObject13ComponentPair15SetComponentPtrEPN5Unity9ComponentE
Ave:_UnexceptionalStreamWriter_Write_m3206913035
s_b:__Z13RegisterClassI10MeshFilterEvv
kFa:__ZN10TagManager8TransferI19StreamedBinaryWriteILb0EEEEvRT_
n9a:__ZN11PreloadData23VirtualRedirectTransferER18StreamedBinaryReadILb0EE
Q_a:__ZN13sorted_vectorI4PPtrI11SpriteAtlasENSt3__24lessIS2_EE13stl_allocatorIS2_L18MemLabelIdentifier1ELi16EEE21sort_clear_duplicatesEv
Ez:__Z17dynamic_pptr_castIP10MonoScript6ObjectET_RK4PPtrIT0_E
Oaj:__ZN6il2cpp6icalls8mscorlib6System10ReflectionL40il2cpp_class_get_generic_type_definitionEP11Il2CppClass
fVc:_DESTransform_ProcessBlock_m2826669227
Qke:_Int16_CompareTo_m3493496879
jpg:__ZL56RenderTexture_t2666733923_CustomAttributesCacheGeneratorP21CustomAttributesCache
krg:__ZL56ColorWriteMask_t926634530_CustomAttributesCacheGeneratorP21CustomAttributesCache
JZa:__ZN6Sprite17MainThreadCleanupEv
Ujg:__ZL56OidCollection_t3790243618_CustomAttributesCacheGeneratorP21CustomAttributesCache
cdg:__ZL61SignatureDescription_t89145500_CustomAttributesCacheGeneratorP21CustomAttributesCache
Mzh:_InternalEnumerator_1_MoveNext_m3389738333_AdjustorThunk
FK:__ZN10AudioMixer14UpdateMuteSoloEv
cIb:__Z17GetMonoManagerPtrv
qPe:_Stack_1_System_Collections_ICollection_get_SyncRoot_m3151629354_gshared
oEa:__ZN9Transform35SetLocalPositionWithoutNotificationERKN4math7_float3Ey
a7g:_MaskableGraphic_UnityEngine_UI_IClippable_get_gameObject_m954171032
Qi:_JS_Eval_ClearTimeout
Mga:__ZN7ApiGLES16SetPatchVerticesEi
Yse:_MonoIOStat_t1621921065_marshal_pinvoke
EBa:__ZN10MemoryFileC2E18MemLabelIdentifierP14MemoryFileData14FilePermission
Ovf:_TrackingServices_NotifyUnmarshaledObject_m1794048369
EBi:__ZN6il2cpp2vm5Class20FromGenericParameterEPK22Il2CppGenericParameter
lbg:__ZL59RemotingServices_t2399536837_CustomAttributesCacheGeneratorP21CustomAttributesCache
rU:__ZN19CloudServiceHandler11FlushEventsEv
c7:__ZN15GlobalCallbacksC2Ev
c1d:_Array_InternalArray__set_Item_TisLabelFixup_t4090909514_m565370771_gshared
mej:_GC_print_static_roots
vwc:_UNITY_FT_New_Memory_Face
Ikg:__ZL74X509Crl_t1699034837_CustomAttributesCacheGenerator_U3CU3Ef__switchU24map13P21CustomAttributesCache
yzf:_SerializationEntry__ctor_m1619256036_AdjustorThunk
nuc:__ZN20TextRenderingPrivate21TextMeshGeneratorImpl5FlushEv
m1c:__Z15CastclassSealedP12Il2CppObjectP11Il2CppClass
XZb:__ZN15ApplicationInfo14GetSandboxTypeEv
bKg:__Z41RuntimeInvoker_TypeAttributes_t2229518203PFvvEPK10MethodInfoPvPS4_
Eob:__Z18Transfer_BlittableI17RemapPPtrTransferLb1EhEvRK29SerializationCommandArgumentsR31RuntimeSerializationCommandInfo
k9i:__ZNSt3__26vectorIjNS_9allocatorIjEEE26__swap_out_circular_bufferERNS_14__split_bufferIjRS2_EE
PTb:__ZN16ReflectionProbes40UpdateRealtimeReflectionProbesTimeslicedEv
Qki:_ListPool_1_Get_m529219189_gshared
W2i:__ZNSt3__26__treeINS_12__value_typeIP24Il2CppReflectionAssemblyPvEENS_19__map_value_compareIS3_S5_NS_4lessIS3_EELb1EEENS_9allocatorIS5_EEE16__insert_node_atEPNS_16__tree_node_baseIS4_EERSF_SF_
OVf:_MethodBuilder_GetBaseDefinition_m774166361
Hxf:_FormatterConverter__ctor_m3958982477
q6a:__ZNK30RuntimeInitializeOnLoadManager22GetTypeVirtualInternalEv
kGi:__ZN15dense_hashtableINSt3__24pairIK10KeyWrapperIN6il2cpp5utils13dynamic_arrayIPK10Il2CppTypeLj4EEEEPFvvEEESA_NS3_8metadata19Il2CppSignatureHashEN14dense_hash_mapISA_SD_SG_NSA_14EqualsComparerINSF_22Il2CppSignatureCompareEEENS0_9allocatorISE_EEE9SelectKeyESK_SM_E12resize_deltaEjj
I1b:__ZN16ReflectionProbes15InitializeClassEv
Bgj:__ZN6il2cpp5utils5MatchENSt3__212basic_stringIcNS1_11char_traitsIcEENS1_9allocatorIcEEEEjRKS7_j
sxc:_UNITY_FT_Destroy_Class_psnames_module_class
zHi:__ZNK15dense_hashtableINSt3__24pairIK10KeyWrapperIPK11Il2CppClassEPKcEES6_N6il2cpp5utils11PointerHashIS3_EEN14dense_hash_mapIS6_S9_SE_NS6_14EqualsComparerINS0_8equal_toIS5_EEEENS0_9allocatorISA_EEE9SelectKeyESJ_SL_E12test_deletedEj
ZOh:_MRUList_Evict_m2430323183
X_e:_ReadOnlyCollection_1_System_Collections_Generic_ICollectionU3CTU3E_Remove_m1060547576_gshared
oWg:__Z68RuntimeInvoker_Boolean_t3825574718_Rect_t3681755626_SByte_t454417549PFvvEPK10MethodInfoPvPS4_
A5d:_Array_InternalArray__get_Item_TisRuntimeObject_m371871810_gshared
nve:_NullTextWriter_Write_m2306984725
Kz:__ZN8Animator13BatchedFKPassERK13dynamic_arrayIP14PlayableOutputLj4EE
ref:_RecordProtocol_ProcessChangeCipherSpec_m3233959862
Fid:_Graphic_set_raycastTarget_m1229173591
t3d:_Array_Sort_TisVector4_t2243707581_m474199742_gshared
S3:__ZN13RuntimeStaticINSt3__23mapIN4core12basic_stringIcNS2_20StringStorageDefaultIcEEEES6_NS0_4lessIS6_EE13stl_allocatorINS0_4pairIKS6_S6_EEL18MemLabelIdentifier13ELi16EEEELb0EE13StaticDestroyEPv
ive:_TextWriter_Write_m576684782
Oj:_glIsVertexArray
SBa:__ZN25SingleBlockMemoryFileDataC2E18MemLabelIdentifierPvjb
Ava:__ZN5Unity9Component8TransferI18StreamedBinaryReadILb0EEEEvRT_
ea:invoke_fff
beh:_Text_get_fontSize_m3105730761
gsj:b14
Idf:_TlsServerHello_Update_m1740270635
fIc:__ZN2UI6Canvas17MainThreadCleanupEv
ika:__ZN6prcoreL12RemapGenericI17TexFormatARGB155517TexFormatRGBA8888EEvPKNS_9InnerInfoE
Jah:_ScrollRect_Rebuild_m3423824761
aMe:_List_1_Find_m3862454845_gshared
_ig:__ZL85Locale_t4255929015_CustomAttributesCacheGenerator_Locale_GetText_m1445803604____args1P21CustomAttributesCache
OOh:_MatchCollection_get_Item_m2609281578
gsa:__ZN7ApiGLES13CreateProgramEv
RKa:__ZN11HaloManager7AddHaloEv
cGf:_UTF8Encoding__ctor_m100325490
mia:__ZN4crnd12crn_unpackerD2Ev
Gdh:_StencilMaterial_ClearAll_m1372779118
_j:_emscripten_glTexImage2D
ruf:_ObjRefSurrogate_SetObjectData_m1873902916
QEc:_tt_driver_class_pic_init
c_:__ZN18ScriptingArguments9AddStringEPKc
Aej:_setup_header
eRg:__Z99RuntimeInvoker_RuntimeObject_DateTime_t693205669_Nullable_1_t1693325264_RuntimeObject_RuntimeObjectPFvvEPK10MethodInfoPvPS4_
aZe:_ReadOnlyCollection_1_System_Collections_IList_get_IsReadOnly_m1367736517_gshared
Zoj:runPostSets
Byg:__ZL93AxisEventData_t1524870173_CustomAttributesCacheGenerator_AxisEventData_set_moveDir_m254243794P21CustomAttributesCache
qja:__ZL23stbir__resize_arbitraryPvPKviiiS_iiiffffPfiij14stbir_datatype12stbir_filterS4_10stbir_edgeS5_16stbir_colorspace
UHe:_List_1_System_Collections_IList_Insert_m848656350_gshared
Xqb:__Z18Transfer_BlittableI24GenerateTypeTreeTransferLb1E8Vector4fEvRK29SerializationCommandArgumentsR31RuntimeSerializationCommandInfo
vme:_Int16_ToString_m3971652088_AdjustorThunk
jk:_pthread_detach
lJi:__ZN6il2cpp2vm19SocketPollingThread7RunLoopEv
ypf:_X509ExtensionEnumerator_Reset_m3200687545
Ltf:_MethodDictionary_AllocInternalProperties_m3261295876
v4b:__ZN15DirectorManager20ScheduleGraphDestroyERK14HPlayableGraph
Pzb:__ZNSt3__213__stable_sortIRN10vector_mapI17ScriptingClassPtrPKN5Unity4TypeENS_4lessIS2_EENS_9allocatorINS_4pairIS2_S6_EEEEE13value_compareENS_11__wrap_iterIPSB_EEEEvT0_SJ_T_NS_15iterator_traitsISJ_E15difference_typeEPNSM_10value_typeEi
Vkg:__ZL77U3CPrivateImplementationDetailsU3E_t1486305139_CustomAttributesCacheGeneratorP21CustomAttributesCache
Cdb:__ZN9ShaderLab25SerializedTextureProperty8TransferI24GenerateTypeTreeTransferEEvRT_
o3e:_Comparison_1_Invoke_m2645957248_gshared
Jzj:_emscripten_glIsShader__wrapper
TUi:__ZN6il2cpp2gc19AppendOnlyGCHashMapINSt3__24pairIPK14Il2CppAssemblyP11Il2CppClassEEP24Il2CppReflectionAssembly17ReflectionMapHashIS9_ENS2_8equal_toIS9_EEEC2Ev
oAc:_tt_cmap14_char_next
H7f:__ZL69AssemblyTrademarkAttribute_t3740556705_CustomAttributesCacheGeneratorP21CustomAttributesCache
jda:__ZN13GfxDeviceGLES28GetNativeVertexBufferPointerEP9GfxBuffer
Lwa:__ZN11NamedObject8TransferI18StreamedBinaryReadILb0EEEEvRT_
bra:__ZNK17GPUSkinPoseBuffer12GetBoneCountEv
pzf:_DelegatePInvokeWrapper_CallbackHandler_t362827733
sig:__ZL59ResolveEventArgs_t1859808873_CustomAttributesCacheGeneratorP21CustomAttributesCache
o1i:__ZNK15dense_hashtableINSt3__24pairIK10KeyWrapperIP14Il2CppIUnknownEjEES5_N6il2cpp5utils11PointerHashIS3_EEN14dense_hash_mapIS5_jSB_NS5_14EqualsComparerINS0_8equal_toIS4_EEEENS0_9allocatorIS7_EEE9SelectKeyESG_SI_E12test_deletedEj
WXf:_EventInfo_get_MemberType_m3337516651
hqc:__Z18Transfer_BlittableI8JSONReadLb1EyEvRK29SerializationCommandArgumentsR31RuntimeSerializationCommandInfo
Gk:_emscripten_glMatrixMode
cs:__ZN8Animator23VirtualRedirectTransferER18StreamedBinaryReadILb0EE
k7f:__ZL93TypeBuilder_t3308873219_CustomAttributesCacheGenerator_TypeBuilder_GetConstructors_m774120094P21CustomAttributesCache
mre:_NotSupportedException__ctor_m836173213
buf:_MethodReturnDictionary__ctor_m756139344
nR:__ZN11UnityEngine15CloudWebService14DataDispatcher16PrepareDataBlockERNS0_16SessionContainerE
Jsa:__ZN18GfxFramebufferGLES5ClearE13GfxClearFlagsRK10ColorRGBAffib
$Me:_List_1_GetIndex_m2513359832_gshared
fQg:__Z52RuntimeInvoker_Single_t2076509932_Double_t4078015681PFvvEPK10MethodInfoPvPS4_
syb:__ZL26Transfer_SimpleNativeClassI18StreamedBinaryReadILb0EE10RectOffsetLb0EEvRK29SerializationCommandArgumentsR31RuntimeSerializationCommandInfo
pxc:_UNITY_ft_destroy_default_module_classes
wFe:_List_1_CheckMatch_m1772343151_gshared
RKb:__ZL12DepthPassJobPN21GfxDeviceAsyncCommand10ArgScratchEPKNS_3ArgE
bcb:__ZNSt3__26vectorIN9ShaderLab20SerializedSubProgram16TextureParameterENS_9allocatorIS3_EEE6assignINS_11__wrap_iterIPS3_EEEENS_9enable_ifIXaasr21__is_forward_iteratorIT_EE5valuesr16is_constructibleIS3_NS_15iterator_traitsISC_E9referenceEEE5valueEvE4typeESC_SC_
Elc:__ZN5Unity9rapidjson6WriterI16TempBufferWriterNS0_4UTF8IcEES4_13JSONAllocatorE11WriteDoubleEd
Moe:_IntPtr_Equals_m1214967011_AdjustorThunk
UKe:_List_1_Add_m3591975577_gshared
Qna:__ZN14GfxDeviceStats16CopyAllDrawStatsERKS_
T_b:__Z13RegisterClassI19LowerResBlitTextureEvv
Hyg:__ZL100PointerEventData_t1599784723_CustomAttributesCacheGenerator_U3CpointerPressRaycastU3Ek__BackingFieldP21CustomAttributesCache
Jm:FUNCTION_TABLE_iiiiiiiiiiii
kfi:_GUIUtility_Internal_GetPixelsPerPoint_m1075452981
aKa:__ZN16GraphicsSettingsD0Ev
JXb:__Z29StdTemplateConversionFunctionIshEbPvR14SafeBinaryRead
Rwj:_pthread_mutex_init__wrapper
n:cttz_i8
Zwc:_UNITY_FT_GlyphLoader_Add
Lwh:_InternalEnumerator_1_System_Collections_IEnumerator_get_Current_m1004764375_AdjustorThunk
sYh:_Display_FireDisplaysUpdated_m2197288612
OFd:_DateTimeFormatInfo_get_FullDateTimePattern_m2607507656
gef:_HttpsClientStream_RaiseServerCertificateValidation_m3356770426
v8h:_RectTransform_INTERNAL_set_anchorMin_m3893342226
L3d:_Array_swap_TisUIVertex_t1204258818_TisUIVertex_t1204258818_m1163375424_gshared
Dl:_emscripten_glViewport
Qaj:__ZN6il2cpp6icalls8mscorlib6System15MonoCustomAttrs17IsDefinedInternalEP12Il2CppObjectP20Il2CppReflectionType
NMa:__ZN4Mesh21UnswizzleVertexColorsEb
h8:__ZN30dense_hashtable_const_iteratorINSt3__24pairIKN4core12basic_stringIcNS2_20StringStorageDefaultIcEEEEP11AssetBundleEES6_20StringHash32FunctionIS6_EN14dense_hash_mapIS6_S9_SC_NS0_8equal_toIS6_EENS0_9allocatorISA_EEE9SelectKeyESF_SH_EppEv
xdf:_TlsServerSettings_set_CertificateTypes_m264196087
Wxh:_InternalEnumerator_1__ctor_m4150855019_gshared
cLd:_DateTime_ToString_m2276663647_AdjustorThunk
NEc:_cff_parse_font_bbox
mac:__Z35Application_Get_Custom_PropIsEditorv
K4a:__ZN14PlayerSettings23VirtualRedirectTransferER18StreamedBinaryReadILb0EE
SSd:_Array_get_swapper_TisCustomAttributeTypedArgument_t1498197914_m2780757375_gshared
Gze:_KeyValuePair_2__ctor_m3201181706_AdjustorThunk
Ejj:__ZN6il2cpp2os5Event5ResetEv
sYe:_ReadOnlyCollection_1_System_Collections_IList_Insert_m1130110335_gshared
$li:_AesManaged__ctor_m2322442838
D3i:__ZN6il2cpp8metadata15GenericMetadata17InflateParametersEPK13ParameterInfohPK20Il2CppGenericContextb
$ne:_Int64_System_IConvertible_ToUInt32_m850395426_AdjustorThunk
i$:__ZN18AwakeFromLoadQueue28InvokePersistentManagerAwakeEPNS_4ItemEj17AwakeFromLoadMode
_Ha:__ZN6Camera13AwakeFromLoadE17AwakeFromLoadMode
QWc:_HMACSHA512__ctor_m2390736870
Xx:__ZNK17AnimationPlayable27GetNextCompatibleDescendantEi
Mwa:__ZN4PPtrI6SpriteE8TransferI18StreamedBinaryReadILb0EEEEvRT_
XTf:_TypeBuilder_GetInterfaces_m1818658502
Qle:_NumberFormatter_AppendIntegerString_m868842252
x4e:_BigInteger_op_Equality_m2683055762
lDb:__Z25SetNeedToPerformRenderingb
r_f:_MonoMethod_GetPseudoCustomAttributes_m466965107
pRh:__ZN21InterfaceFuncInvoker0IP19LinkRef_t2090853131E6InvokeEjP11Il2CppClassP12Il2CppObject
wDa:__ZN10GameObjectD2Ev
eLb:__ZN14qsort_internal30FindAndMovePivotToLastPositionIP15RODataDepthPassi17ROSorterDepthPassEEvT_S4_T0_T1_
r9h:_ResourceRequest_t2560315377_marshal_pinvoke
Fgh:_Enumerator_System_Collections_IDictionaryEnumerator_get_Value_m3005608231_gshared
Rqi:__ZL24UnresolvedVirtualCall_26P12Il2CppObjectS0_iiPK10MethodInfo
r6g:_MaskUtilities_NotifyStencilStateChanged_m1527407683
D2f:__ZL69RuntimeArray_CustomAttributesCacheGenerator_Array_IndexOf_m2447301431P21CustomAttributesCache
WSb:__ZN12CullingGroup10SendEventsEPK17CullingGroupEventj
Hbe:_DSAManaged_GenerateKeyPair_m2711647034
pXa:__ZThn32_NK8Renderer8GetLayerEv
XZd:_Array_InternalArray__ICollection_Add_TisResourceCacheItem_t333236149_m1151081240_gshared
V3g:__Z39RuntimeInvoker_RaycastHit2D_t4063908774PFvvEPK10MethodInfoPvPS4_
D$e:_ReadOnlyCollection_1_System_Collections_Generic_ICollectionU3CTU3E_get_IsReadOnly_m2197226755_gshared
rHd:_Convert_ToInt32_m2209788057
z2i:__ZN30dense_hashtable_const_iteratorINSt3__24pairIK10KeyWrapperINS1_IPKcS4_EEEiEES6_24NamespaceAndNamePairHashN14dense_hash_mapIS6_iS9_NS6_14EqualsComparerI26NamespaceAndNamePairEqualsEENS0_9allocatorIS8_EEE9SelectKeyESD_SF_E30advance_past_empty_and_deletedEv
$wf:_SoapServices_GetXmlTypeForInteropType_m3821579913
ini:_EqualityComparer_1_System_Collections_IEqualityComparer_Equals_m3601790950_gshared
Ixj:_emscripten_glTexParameterfv__wrapper
flb:__Z18Transfer_BlittableI14SafeBinaryReadLb1E9BoundsIntEvRK29SerializationCommandArgumentsR31RuntimeSerializationCommandInfo
rNi:_il2cpp_method_get_param_count
R7b:__ZN10systeminfo19ISOToSystemLanguageERN4core12basic_stringIcNS0_20StringStorageDefaultIcEEEE
MTi:__ZNK15dense_hashtableINSt3__24pairIK10KeyWrapperINS1_IPK12PropertyInfoP11Il2CppClassEEEjEES9_17ReflectionMapHashIS8_EN14dense_hash_mapIS9_jSD_NS9_14EqualsComparerINS0_8equal_toIS8_EEEENS0_9allocatorISB_EEE9SelectKeyESI_SK_E3endEv
Gkd:_HorizontalOrVerticalLayoutGroup_get_childForceExpandWidth_m227100883
FWg:__Z34RuntimeInvoker_LogType_t1559732862PFvvEPK10MethodInfoPvPS4_
ckg:__ZL68Uri_t19570940_CustomAttributesCacheGenerator_U3CU3Ef__switchU24map15P21CustomAttributesCache
mBc:_ps_dimension_done
Pcd:_LayoutRebuilder_MarkLayoutForRebuild_m640589351
VHc:__Z46Register_UnityEngine_TextGenerator_Dispose_cppv
vad:_PointerEventData_get_pressEventCamera_m724559964
E0c:_String_IndexOfUnchecked_m3356721554
fWa:__ZN16LightmapSettings8TransferI14SafeBinaryReadEEvRT_
E9:__ZN17BufferManagerGLES13ReleaseBufferEP14DataBufferGLES
Lui:_Display__ctor_m3803500957
eqc:__Z18Transfer_BlittableI8JSONReadLb1EjEvRK29SerializationCommandArgumentsR31RuntimeSerializationCommandInfo
hDg:__ZL63ScrollRect_t1199013257_CustomAttributesCacheGenerator_m_InertiaP21CustomAttributesCache
C2h:_PKCS12_Decrypt_m1557069392
teh:_VertexHelper_AddUIVertexQuad_m280792808
glf:_WebHeaderCollection_ToString_m1246460752
jyh:_InternalEnumerator_1_System_Collections_IEnumerator_get_Current_m2842514953_AdjustorThunk
Vti:__ZL25UnresolvedVirtualCall_192P12Il2CppObject19DateTime_t693205669S1_PK10MethodInfo
Wo:stackSave
HQc:__ZN5Unity9rapidjson15GenericDocumentINS0_4UTF8IcEE13JSONAllocatorNS0_12CrtAllocatorEE6StringEPKcjb
FBc:_ps_dimension_end
cec:__Z41Register_UnityEngine_Mesh_Internal_Createv
Tjb:__ZN16MemoryFileSystem5TouchER13FileEntryData
B3i:__ZNK15dense_hashtableI10KeyWrapperIP18Il2CppGenericClassES3_N6il2cpp8metadata22Il2CppGenericClassHashEN14dense_hash_setIS3_S6_NS3_14EqualsComparerINS5_25Il2CppGenericClassCompareEEENSt3__29allocatorIS3_EEE8IdentityESA_SD_E12test_deletedERK30dense_hashtable_const_iteratorIS3_S3_S6_SF_SA_SD_E
Wkf:_ServicePointManager_get_SecurityProtocol_m1445189298
eXc:_MACTripleDES_Initialize_m1318099802
k7e:_MD5SHA1_VerifySignature_m507888141
Jud:_Byte_System_IConvertible_ToChar_m4188836679
qme:_NumberFormatter_InitDecHexDigits_m2036076025
ihh:_Enumerator_get_CurrentKey_m3839846791_AdjustorThunk
wUb:__ZN6Camera9SetAspectEf
sfd:_ColorTween_get_ignoreTimeScale_m641454126_AdjustorThunk
va:invoke_viiffiii
BYe:_ReadOnlyCollection_1_Contains_m1800950533_gshared
Vzg:__ZL79TouchInputModule_t2561058385_CustomAttributesCacheGenerator_m_ForceModuleActiveP21CustomAttributesCache
Zyj:_emscripten_glBindVertexArray__wrapper
rZg:__Z52RuntimeInvoker_Vector2_t2243707579_Int32_t2071877448PFvvEPK10MethodInfoPvPS4_
O6e:_MD4__ctor_m2366413460
ioh:_Dictionary_2_InitArrays_m435313205_gshared
YE:__ZN10ObjectPoolIN4FMOD3DSPENS0_4DSPIEE7GetFreeEi
wEa:__ZN9Transform37InitializeTransformHierarchyRecursiveER18TransformHierarchyRii
h0b:__Z34DefaultPrepareDispatchBoundsUpdateR13RendererScene18MemLabelIdentifier
Gid:_Graphic_get_useLegacyMeshGeneration_m1366444625
Asa:__ZN26SinglePassStereoSupportExt23SetupStereoMatrixParamsE21MonoOrStereoscopicEye24BuiltinShaderMatrixParamRK10Matrix4x4f
Vkf:_ServicePointManager_get_CheckCertificateRevocationList_m4009410230
SBg:__ZL65InputField_t1631627530_CustomAttributesCacheGenerator_m_InputTypeP21CustomAttributesCache
Pri:__ZL24UnresolvedVirtualCall_78P12Il2CppObjectPK10MethodInfo
W9d:_ModulusRing_Pow_m1137250399
MEh:_InternalEnumerator_1_MoveNext_m2410670600_AdjustorThunk
oP:__Z46AudioListener_CUSTOM_GetNumExtensionPropertiesP12Il2CppObject
SLa:__ZN17MeshRenderingData4InitEP4MeshS1_iP15SharedGfxBufferS3_
Tnj:__ZNSt3__212basic_stringIcNS_11char_traitsIcEENS_9allocatorIcEEEpLEPKc
I_e:_ReadOnlyCollection_1_System_Collections_ICollection_get_SyncRoot_m2779904122_gshared
Ksh:_EqualityComparer_1_System_Collections_IEqualityComparer_Equals_m1682986002_gshared
oBd:_Hashtable__cctor_m2952659675
sFg:__ZL77LayoutUtility_t4076838048_CustomAttributesCacheGenerator_U3CU3Ef__amU24cache4P21CustomAttributesCache
pob:__ZN15SerializeTraitsI13dynamic_arrayIN4math12int3_storageELj4EEE19ResizeSTLStyleArrayERS3_i
V0c:_Evidence_get_HostEvidenceList_m2095478124
ygc:__Z57Register_UnityEngine_Transform_INTERNAL_set_localPositionv
paf:_Context_Clear_m4000337070
zda:__ZN13GfxDeviceGLES26SetRandomWriteTargetBufferEi15ComputeBufferID
Yrf:_IntervalCollection_Normalize_m538796191
DGb:__ZZ23InitPlayerLoopCallbacksvEN49EarlyUpdateResetFrameStatsAfterPresentRegistrator7ForwardEv
ODd:_Console_SetEncodings_m342145566
Bpg:__ZL77Object_t1021602117_CustomAttributesCacheGenerator_Object_get_name_m3369637820P21CustomAttributesCache
xid:_FontUpdateTracker_UntrackText_m3827316510
OSi:__ZN6il2cpp2gc19AppendOnlyGCHashMapINSt3__24pairIPK11Il2CppImageP11Il2CppClassEEP22Il2CppReflectionModule17ReflectionMapHashIS9_ENS2_8equal_toIS9_EEE10CopyValuesEPv
Jci:_Vector2_get_sqrMagnitude_m593717298_AdjustorThunk
O5d:_Array_InternalArray__get_Item_TisSingle_t2076509932_m1495809753_gshared
sxi:_Font_get_fontSize_m3125470578
A7b:__ZNK11ICallString6ToUTF8Ev
$Rh:_CaptureAssertion_get_Alternate_m2729005740
Fcj:_GC_number_stack_black_listed
B1i:__ZN24dense_hashtable_iteratorINSt3__24pairIK10KeyWrapperIP14Il2CppIUnknownEjEES5_N6il2cpp5utils11PointerHashIS3_EEN14dense_hash_mapIS5_jSB_NS5_14EqualsComparerINS0_8equal_toIS4_EEEENS0_9allocatorIS7_EEE9SelectKeyESG_SI_E30advance_past_empty_and_deletedEv
fLb:__ZNSt3__211__sift_downIR17ROSorterDepthPassP15RODataDepthPassEEvT0_S5_T_NS_15iterator_traitsIS5_E15difference_typeES5_
LQf:_Default_SelectMethod_m3081239996
bRa:__ZN18UnityPropertySheet11UnityTexEnvC2Ev
fac:__ZNSt3__214__split_bufferIPN9BlobWrite11TypeContextENS_9allocatorIS3_EEE10push_frontERKS3_
cA:__ZN8Animator17ApplyOnAnimatorIKEiRNS_11AnimatorJobE
C2:__ZN12FileAccessor4ReadEyyPvPy
jQa:__ZN13dynamic_arrayI16ShaderKeywordSetLj4EE6insertEPS0_PKS0_S4_
Azb:__Z29Transfer_Blittable_ArrayFieldI18StreamedBinaryReadILb0EE11QuaternionfEvRT_R9ArrayInfoRK23StaticTransferFieldInfo
Mtf:_MethodDictionary_IsOverridenKey_m3922224650
BCd:_SyncHashtable_Contains_m3042906549
KNe:_List_1_System_Collections_IList_set_Item_m4016273526_gshared
Dpf:_X509KeyUsageExtension_CopyFrom_m931530012
oui:__ZL25UnresolvedVirtualCall_213P12Il2CppObject40CustomAttributeTypedArgument_t1498197914PK10MethodInfo
YTb:__ZN13RenderTexture9SetHeightEi
Dt:__ZN7mecanim9animation17ClearMotionOutputEPNS0_18AnimationNodeStateE
mNa:__ZN16LevelGameManager8TransferI24GenerateTypeTreeTransferEEvRT_
f6g:_LayoutUtility_U3CGetMinHeightU3Em__4_m1769295917
Wgf:_SslStreamBase_Read_m1036897444
f8g:_RectMask2D_PerformClipping_m1232012832
P_i:__ZN6il2cpp6icalls8mscorlib6System2IO6MonoIO17GetFileAttributesEP12Il2CppStringPi
Yhh:_Transform_1_Invoke_m4020530914_gshared
Vzc:_tt_cmap8_char_index
C_:__Z24scripting_class_get_name17ScriptingClassPtr
k4:__ZN13RuntimeStaticI15GUIEventManagerLb0EE13StaticDestroyEPv
b9i:__ZN6il2cpp2os6Thread15CurrentThreadIdEv
Ymb:__Z29Transfer_Blittable_ArrayFieldI14SafeBinaryReadjEvRT_R9ArrayInfoRK23StaticTransferFieldInfo
ce:_emscripten_set_keydown_callback
ZBd:_Enumerator_get_Value_m3684748062
lFa:__ZN19StreamedBinaryWriteILb0EE21TransferSTLStyleArrayINSt3__26vectorI17SortingLayerEntryNS2_9allocatorIS4_EEEEEEvRT_17TransferMetaFlags
oMf:_UInt32_Parse_m3371984903
K2:__ZN12FileAccessorC2Ev
e4h:_X509CertificateCollection_Compare_m1014334435
vTe:_Collection_1_ClearItems_m1280157591_gshared
N3g:__Z33RuntimeInvoker_TypeTag_t141209596PFvvEPK10MethodInfoPvPS4_
RPh:_PatternLinkStack_GetCurrent_m2994645935
R2e:_Comparison_1__ctor_m2929820459_gshared
AJg:__Z59RuntimeInvoker_RuntimeObject_RuntimeObject_SByte_t454417549PFvvEPK10MethodInfoPvPS4_
YNh:_AsyncResult__ctor_m1183194429
LLi:__ZN6il2cpp2vm7Runtime12GetConfigDirEv
vD:__ZN4PPtrI13MonoBehaviourE8TransferI18StreamedBinaryReadILb0EEEEvRT_
Otf:_MethodDictionary_set_Item_m3475146889
B0g:__Z71RuntimeInvoker_Int32_t2071877448_CustomAttributeNamedArgument_t94157543PFvvEPK10MethodInfoPvPS4_
Fwg:__ZL54Tile_t429716126_CustomAttributesCacheGenerator_m_ColorP21CustomAttributesCache
rbg:__ZL62WellKnownObjectMode_t2630225581_CustomAttributesCacheGeneratorP21CustomAttributesCache
Jeh:_Toggle_PlayEffect_m3950629415
QXd:_Array_IndexOf_TisRuntimeObject_m214763038_gshared
Dji:_UnityEvent_1_GetDelegate_m3917909024_gshared
a2g:__Z79RuntimeInvoker_Void_t1841601450_Int32_t2071877448_ParameterModifier_t1820634920PFvvEPK10MethodInfoPvPS4_
zBb:__Z39WriteQueueForTransferSignatureIntoCacheRK31TransferFunctionScriptingTraitsRK24TransferRequestSignature17ScriptingClassPtrR23CachedSerializationDataRb
l8a:__ZN13RenderManager18UpdateAllRenderersEv
R0h:_Mesh_Clear_m239607636
cOc:__ZN22BaseUnityConnectClient30OnEnteringStatePausedOrStoppedEv
uVe:_Collection_1_System_Collections_ICollection_get_SyncRoot_m2157752542_gshared
vTi:__ZN15dense_hashtableINSt3__24pairIK10KeyWrapperINS1_IPK12PropertyInfoP11Il2CppClassEEEjEES9_17ReflectionMapHashIS8_EN14dense_hash_mapIS9_jSD_NS9_14EqualsComparerINS0_8equal_toIS8_EEEENS0_9allocatorISB_EEE9SelectKeyESI_SK_E12resize_deltaEjj
Qt:__ZN7mecanim5human12HumanPoseAddERNS0_9HumanPoseERKS1_S4_
Cfg:__ZL64AssemblyLoadEventArgs_t4233815743_CustomAttributesCacheGeneratorP21CustomAttributesCache
yUe:_Collection_1_IsFixedSize_m218241296_gshared
aEa:__Z24MergeTransformComponentsR9TransformS0_b
wmg:__ZL98DebugLogHandler_t865810509_CustomAttributesCacheGenerator_DebugLogHandler_Internal_Log_m3333167788P21CustomAttributesCache
gqi:_DelegatePInvokeWrapper_AudioConfigurationChangeHandler_t3743753033
Wse:_MonoIO_get_PathSeparator_m2635828107
kxf:_TypeInfo_get_TypeName_m1722081275
yEh:_InternalEnumerator_1_get_Current_m889125315_gshared
dye:_MonoType_get_Name_m865859211
eSd:_CultureInfo__cctor_m2290268677
tuh:_ArrayReadOnlyList_1_System_Collections_IEnumerable_GetEnumerator_m3039869667_gshared
p4c:_String_Trim_m3982520224
mwf:_RemotingConfiguration__cctor_m2129988840
PSe:_Collection_1_Insert_m44548038_gshared
oFh:_InternalEnumerator_1_MoveNext_m4175772187_AdjustorThunk
Evg:__ZL87GUIUtility_t3275770671_CustomAttributesCacheGenerator_U3CguiIsExitingU3Ek__BackingFieldP21CustomAttributesCache
Saj:__ZN6il2cpp2vm13ComObjectBase19GetRuntimeClassNameEPP15Il2CppHString__
Cyb:__Z35Transfer_Blittable_FixedBufferFieldI18StreamedBinaryReadILb0EEyEvRK29SerializationCommandArgumentsR31RuntimeSerializationCommandInfo
Mj:_emscripten_glVertexAttribPointer
Hoj:__ZNSt11logic_errorD0Ev
PLa:__ZNK20IntermediateRenderer12GetSceneMaskEv
m7a:__ZN14PreloadManager26UpdatePreloadingSingleStepENS_21UpdatePreloadingFlagsEi
A_c:_SHA512Managed_Initialize_m891287980
n1c:_SecurityException__ctor_m1484114982
DLh:_SinkProviderData_get_Children_m100594762
L4h:_X509Crl_GetHashName_m183504634
wrd:_Array_GetValue_m1507415734
Iec:__Z57Register_UnityEngine_RectTransform_INTERNAL_set_anchorMinv
Aie:_Object_MemberwiseClone_m2655589444
FZe:_ReadOnlyCollection_1_System_Collections_IList_get_Item_m375043207_gshared
Rja:__ZN6prcoreL25inner_stretch_i8_bilinearEPKNS_9InnerInfoE
E9a:__ZL30RegisterFilteredObjectCallbackPP12Il2CppObjectiPv
zqe:_DirectoryInfo_ToString_m4208086799
z_f:_MonoMethod_get_IsGenericMethod_m4276550811
vih:_Transform_1_BeginInvoke_m3826027984_gshared
JR:__ZN11UnityEngine15CloudWebService16SessionContainer24GetSessionHeaderJsonDataERKN4core12basic_stringIcNS2_20StringStorageDefaultIcEEEERNS2_13StringBuilderE
tGd:_Decimal_op_Implicit_m2149927308
Z3:__ZN13RuntimeStaticI21AssetReferenceStorageLb0EE13StaticDestroyEPv
x6i:__ZN6il2cpp6icalls8mscorlib6System9AppDomain22InternalGetProcessGuidEP12Il2CppString
zCc:_cf2_builder_moveTo
dce:_KeyPairPersistence_get_UseMachineKeyStore_m560802076
TPe:_Collection_1_CopyTo_m1840908033_gshared
MHh:_Enumerator_System_Collections_IDictionaryEnumerator_get_Entry_m345330700_AdjustorThunk
fAa:__ZNK17FileSystemHandler10IsReadOnlyERK13FileEntryData
DKi:__ZNSt3__214__split_bufferIP9FieldInfoRNS_9allocatorIS2_EEEC2EjjS5_
B6c:_AbstractEventData__ctor_m3586111519
srb:__Z18Transfer_BlittableI24GenerateTypeTreeTransferLb1EjEvRK29SerializationCommandArgumentsR31RuntimeSerializationCommandInfo
Fqg:__ZL118AttributeHelperEngine_t958797062_CustomAttributesCacheGenerator_AttributeHelperEngine_GetRequiredComponents_m586474250P21CustomAttributesCache
J6e:_MD2Managed_Padding_m410163267
iTi:__ZNK15dense_hashtableINSt3__24pairIK10KeyWrapperINS1_IPK11Il2CppImageP11Il2CppClassEEEjEES9_17ReflectionMapHashIS8_EN14dense_hash_mapIS9_jSD_NS9_14EqualsComparerINS0_8equal_toIS8_EEEENS0_9allocatorISB_EEE9SelectKeyESI_SK_E10test_emptyERK30dense_hashtable_const_iteratorISB_S9_SD_SM_SI_SK_E
cfh:_Toggle_UnityEngine_UI_ICanvasElement_get_transform_m4177274032
ILa:__ZN11ColorRGBA328TransferI14SafeBinaryReadEEvRT_
Qgh:_Enumerator_Dispose_m401572848_AdjustorThunk
Hf:_emscripten_glClearDepth
f3b:__ZNK8GUILayer22GetTypeVirtualInternalEv
GSa:__ZN8Playable12SetPlayStateE9PlayState
CYa:__ZN14SafeBinaryRead21TransferSTLStyleArrayINSt3__26vectorIN15QualitySettings14QualitySettingENS1_9allocatorIS4_EEEEEEvRT_17TransferMetaFlags
O3d:_Array_swap_TisVector2_t2243707579_m3359959735_gshared
Oqe:_File_OpenText_m4058508963
j4a:__ZNSt3__26vectorINS_4pairIPKN5Unity4TypeE7Hash128EENS_9allocatorIS7_EEE8__appendEj
lxf:_WellKnownClientTypeEntry__ctor_m670594074
dBg:__ZL61FontData_t2614388407_CustomAttributesCacheGenerator_m_MinSizeP21CustomAttributesCache
Nti:__ZL25UnresolvedVirtualCall_184P12Il2CppObject19DateTime_t693205669S1_PK10MethodInfo
LJd:_DateTime_System_IConvertible_ToSingle_m3927769066_AdjustorThunk
$Dc:_cff_font_load
oef:_RecordProtocol_SendRecord_m2977889250
t8b:__Z13IsPathCreatedRKN4core12basic_stringIcNS_20StringStorageDefaultIcEEEE
wja:__ZL22stbir__encode_scanlineP11stbir__infoiPvPfiii
aOg:__Z136RuntimeInvoker_Void_t1841601450_Byte_t3683104436_RuntimeObject_Int64U26_t763825331_ObjectU26_t597476745_SerializationInfoU26_t4051840202PFvvEPK10MethodInfoPvPS4_
ctc:__ZN20QuadTreeNodeRenderer13StaticDestroyEPv
FS:__ZN11UnityEngine15CloudWebService20WebRequestRestClient5AbortEv
rhi:_InvokableCall_1_Invoke_m2228071798_gshared
X$b:__ZN9Transform12CleanupClassEv
HIg:__Z50RuntimeInvoker_Void_t1841601450_Double_t4078015681PFvvEPK10MethodInfoPvPS4_
bgi:_GUILayoutGroup_CalcWidth_m877887811
naf:_ClientContext_set_ClientHelloProtocol_m2246603449
Jai:_Texture_Internal_GetHeight_m3235768354
Wga:__ZNSt3__26vectorIN9GfxDevice14SubPassActionsENS_9allocatorIS2_EEE26__swap_out_circular_bufferERNS_14__split_bufferIS2_RS4_EE
Sod:_U3CMouseDragOutsideRectU3Ec__Iterator1_MoveNext_m2845491958
Scb:__ZNSt3__26vectorIN9ShaderLab19SerializedSubShaderENS_9allocatorIS2_EEE26__swap_out_circular_bufferERNS_14__split_bufferIS2_RS4_EE
Jz:__ZN11UnityEngine9Animation33SetGenericTransformPropertyValuesERKNS0_30AnimatorGenericBindingConstantERKN7mecanim10ValueArrayEP9Transformy
jKg:__Z116RuntimeInvoker_RuntimeObject_RuntimeObject_Int32_t2071877448_RuntimeObject_RuntimeObject_RuntimeObject_RuntimeObjectPFvvEPK10MethodInfoPvPS4_
Gbd:_StandaloneInputModule_IsModuleSupported_m623598506
SYi:__ZN6il2cpp2vmL24thread_cleanup_on_cancelEPv
BIh:_ResourceReader_Close_m3256966401
fBf:_SByte_ToString_m4105923225_AdjustorThunk
rzf:_StreamingContext_t1417235061_marshal_pinvoke_cleanup
iSd:_CultureInfo_ConstructCurrentUICulture_m3363349599
aOf:_UInt64_CompareTo_m2422461804_AdjustorThunk
sEg:__ZL75CanvasScaler_t2574720772_CustomAttributesCacheGenerator_m_FallbackScreenDPIP21CustomAttributesCache
Cxe:_MonoType_GetEvent_m4160342003
R7g:_RawImage_set_texture_m2400157626
uoi:_PrimeHelper_ToPrime_m1606935350_gshared
dMa:__Z30ProcessDynamicBatchGeometryJobP25DynamicVBOGeometryJobDataj
P$g:__Z59RuntimeInvoker_Boolean_t3825574718_RaycastHit2D_t4063908774PFvvEPK10MethodInfoPvPS4_
Hsh:_EqualityComparer_1__ctor_m81618677_gshared
BLb:__ZNSt3__27__sort4IRNS_6__lessI11CulledLightS2_EEPS2_EEjT0_S6_S6_S6_T_
LOi:__ZN6il2cpp2vm14TypeNameParser26ParseArrayModifierOptionalEv
q7d:_MSCompatUnicodeTable_Level3_m260824928
tpd:_LayoutElement_OnEnable_m3478706401
T$:__Z26scripting_object_get_class18ScriptingObjectPtr
d4e:_Func_3__ctor_m3917225629_gshared
S6a:__ZNSt3__26vectorIN4core12basic_stringIcNS1_20StringStorageDefaultIcEEEE13stl_allocatorIS5_L18MemLabelIdentifier13ELi16EEE7reserveEj
Hzi:_RectTransformUtility_GetTransposed_m1233793627
v$b:__ZNK28MonoBehaviourPropertyBinding15GenerateBindingERKN4core12basic_stringIcNS0_20StringStorageDefaultIcEEEEbRN11UnityEngine9Animation14GenericBindingE
ile:_Int32_FindExponent_m3187554672
pce:_KeyPairPersistence_Load_m1355205585
vah:_ScrollRect_get_horizontalScrollbarVisibility_m4152068235
sne:_Int32_ToString_m2960866144_AdjustorThunk
zwi:_Predicate_1_Invoke_m3539717340_gshared
i3c:_Single_CompareTo_m2081476257_AdjustorThunk
Fpi:_AudioExtensionManager_AddSpatializerExtension_m1881494443
W7i:__ZN6il2cpp6icalls8mscorlib6System11Environment15internalGetHomeEv
urj:dynCall_iiiiiiffiiiiiiiiiffffiiii
f3h:_PKCS12_get_Keys_m288413492
Fua:__ZNK5Unity9Component7GetNameEv
gLi:__ZNSt3__214__split_bufferIN6il2cpp6icalls8mscorlib6System12PropertyPairERNS_9allocatorIS5_EEEC2EjjS8_
Sgg:__ZL79Convert_t2607082565_CustomAttributesCacheGenerator_Convert_ToUInt16_m2130758075P21CustomAttributesCache
_yf:__ZN21InterfaceFuncInvoker4IP12Il2CppObjectS1_P28SerializationInfo_t22898743028StreamingContext_t1417235061S1_E6InvokeEjP11Il2CppClassS1_S1_S3_S4_S1_
Ohg:__ZL58IFormatProvider_t2849799027_CustomAttributesCacheGeneratorP21CustomAttributesCache
K1g:__Z75RuntimeInvoker_Void_t1841601450_Int32_t2071877448_KeyValuePair_2_t888819835PFvvEPK10MethodInfoPvPS4_
rli:_ObjectPool_1_Get_m3724675538_gshared
eZa:__ZN13ScreenManagerD0Ev
XA:__ZN7mecanim8skeleton26SkeletonPoseComputeGlobalQEPKNS0_8SkeletonEPKNS0_13SkeletonPoseTIN4math4trsXEEEPS7_ii
bRc:__ZN18UnityConnectClient19RegisterVRCallbacksEv
pIe:_List_1_GetEnumerator_m2672519407_gshared
eZb:__ZN10BootConfig4Data3SetEPKcjS2_j
xA:__ZN9BlobWrite8TransferI22OffsetPtrArrayTransferIiEEEvRT_PKc17TransferMetaFlags
pOg:__Z82RuntimeInvoker_Boolean_t3825574718_SByte_t454417549_RuntimeObject_SByte_t454417549PFvvEPK10MethodInfoPvPS4_
a7d:_ContractionComparer_Compare_m314873025
Gpb:__Z18Transfer_BlittableI17RemapPPtrTransferLb1EjEvRK29SerializationCommandArgumentsR31RuntimeSerializationCommandInfo
Kne:_Int64_System_IConvertible_ToDouble_m638786774
BJ:__ZN4FMOD6System7releaseEv
bCd:_HashKeys_get_IsSynchronized_m4207641174
qtb:__Z18Transfer_BlittableI19StreamedBinaryWriteILb0EELb1E8BitFieldEvRK29SerializationCommandArgumentsR31RuntimeSerializationCommandInfo
f2:__Z18PathToAbsolutePathRKN4core12basic_stringIcNS_20StringStorageDefaultIcEEEE
GTg:__Z44RuntimeInvoker_HashAlgorithmType_t1654661965PFvvEPK10MethodInfoPvPS4_
LAe:_Enumerator_MoveNext_m3078170540_AdjustorThunk
c$c:_SymmetricAlgorithm_get_Padding_m718051685
Wfj:__ZN6il2cpp6icalls8mscorlib6System10Reflection16MonoPropertyInfo16GetTypeModifiersEPvb
Tli:_Action_Invoke_m3801112262
TIg:__Z79RuntimeInvoker_Decimal_t724701077_RuntimeObject_Int32_t2071877448_RuntimeObjectPFvvEPK10MethodInfoPvPS4_
_ia:__ZL13BlitImageImplR14ImageReferenceiiRKS_NS_10ColorSpaceENS_8BlitModeEb
x4b:__ZN15DirectorManager17AcquireOutputNodeEv
ZBb:__ZN10MonoScript23VirtualRedirectTransferER17RemapPPtrTransfer
Pfg:__ZL76Convert_t2607082565_CustomAttributesCacheGenerator_Convert_ToChar_m541258017P21CustomAttributesCache
hIg:__Z64RuntimeInvoker_RuntimeObject_Int16_t4041245914_Int16_t4041245914PFvvEPK10MethodInfoPvPS4_
zra:__ZN16GeometryJobTasks20ScheduleGeometryJobsER9GfxDevicePFvP15GeometryJobDataEPK22GeometryJobInstructionjb
HH:__ZN12AudioManager29ShutdownReinitializeAndReloadEv
m2h:_NetscapeCertTypeExtension_Decode_m2210025005
b_g:__Z56RuntimeInvoker_Void_t1841601450_KeyValuePair_2_t38854645PFvvEPK10MethodInfoPvPS4_
uxf:_BaseFixupRecord_DoFixup_m1821597450
HBi:__ZN15dense_hashtableINSt3__24pairIK10KeyWrapperIPK22Il2CppGenericParameterEP11Il2CppClassEES6_N6il2cpp5utils11PointerHashIS4_EEN14dense_hash_mapIS6_S9_SE_NS6_14EqualsComparerINS0_8equal_toIS5_EEEENS0_9allocatorISA_EEE9SelectKeyESJ_SL_E6insertERKSA_
Sqe:_FileLoadException__ctor_m1356374414
bii:_InvokableCall_4_Invoke_m1140294390_gshared
s9e:_TlsStream_Reset_m1504601050
vDe:__ZN23InterfaceActionInvoker2IP23Int32U5BU5D_t3030399641iE6InvokeEjP11Il2CppClassP12Il2CppObjectS1_i
rga:__ZN14DataBufferGLES16RecreateWithDataEjPKv
ava:__Z29GetGlobalAllowNameConversionsv
FVb:__ZN8Material8SetColorEN9ShaderLab16FastPropertyNameERK10ColorRGBAf
OYf:_Module_GetCustomAttributes_m3581287913
r3f:__ZL67Type_t_CustomAttributesCacheGenerator_Type_IsSubclassOf_m2450899481P21CustomAttributesCache
qL:__ZN11AudioSource23VirtualRedirectTransferER18StreamedBinaryReadILb0EE
a4:__ZN21AssetReferenceStorageC2Ev
Xtb:__ZN10RectOffset8TransferI19StreamedBinaryWriteILb0EEEEvRT_
G_:__ZL41AssemblyNameMatchesWithOrWithoutExtensionPKcS0_
K$g:__Z53RuntimeInvoker_Boolean_t3825574718_Color32_t874517518PFvvEPK10MethodInfoPvPS4_
voa:__ZN14GfxContextGLES43AddRenderSurfaceToDeferredFBOInvalidateListEPK17RenderSurfaceGLES
s_i:__ZN6il2cpp6icalls8mscorlib6System9Threading6Thread15Thread_internalEP12Il2CppThreadP14Il2CppDelegate
bxa:__ZN11NamedObject23VirtualRedirectTransferER14SafeBinaryRead
s2f:__ZL74RuntimeArray_CustomAttributesCacheGenerator_Array_BinarySearch_m3522310993P21CustomAttributesCache
Lpi:_AudioListener_GetNumExtensionProperties_m2652400521
nwc:__ZNSt3__26vectorIN20TextRenderingPrivate8FontImpl13CharacterInfoE13stl_allocatorIS3_L18MemLabelIdentifier1ELi16EEE6insertENS_11__wrap_iterIPKS3_EERS9_
Xxa:__ZN23PreloadManagerOperation6IsDoneEv
ULi:__ZN6il2cpp2vm7Runtime15InvokeWithThrowEPK10MethodInfoPvPS5_
Wfe:_X509Certificate_get_RawData_m3000055075
lCi:__ZNSt3__26vectorIPK10Il2CppTypeNS_9allocatorIS3_EEE21__push_back_slow_pathIRKS3_EEvOT_
m5b:__Z33GetHasChangedDeprecatedSystemMaskv
saj:__ZN6il2cpp5utils11StringUtils11Utf16ToUtf8ERKNSt3__212basic_stringIDsNS2_11char_traitsIDsEENS2_9allocatorIDsEEEE
y3g:__Z30RuntimeInvoker_Link_t865133271PFvvEPK10MethodInfoPvPS4_
pgh:_Enumerator_VerifyState_m1165543189_AdjustorThunk
xKd:_DateTime_AddSeconds_m722082155_AdjustorThunk
qzd:_SynchronizedArrayListWrapper_CopyTo_m956887031
sGh:_Comparer_1__ctor_m1202126643_gshared
L8a:__ZN21LightProbeProxyVolume18HasHardwareSupportEv
dzi:_CanvasRenderer_set_materialCount_m1703953120
AOb:__ZN26LightProbeProxyVolumeCacheC2ER13BatchRendererR15RenderLoopStats
Mja:__ZN6prcoreL31inner_stretch_argb8888_bilinearEPKNS_9InnerInfoE
svb:__Z18Transfer_BlittableI18StreamedBinaryReadILb1EELb1E8BitFieldEvRK29SerializationCommandArgumentsR31RuntimeSerializationCommandInfo
Olg:__ZL84Behaviour_t955675639_CustomAttributesCacheGenerator_Behaviour_set_enabled_m602406666P21CustomAttributesCache
iyc:_UNITY_FT_Outline_Decompose
zcf:_TlsClientCertificate_get_ClientCertificate_m3062440489
L0c:_StrongNamePublicKeyBlob_ToString_m3721281223
Rej:_GC_init_size_map
Bxh:_InternalEnumerator_1_get_Current_m198513457_AdjustorThunk
RBh:_InternalEnumerator_1__ctor_m1240086835_AdjustorThunk
gJa:__Z20scripting_object_new17ScriptingClassPtr
fje:_TextInfo__ctor_m2782608694
MOe:_Queue_1_System_Collections_ICollection_CopyTo_m772787461_gshared
vRi:__ZN24dense_hashtable_iteratorINSt3__24pairIK10KeyWrapperINS1_IPK9FieldInfoP11Il2CppClassEEEjEES9_17ReflectionMapHashIS8_EN14dense_hash_mapIS9_jSD_NS9_14EqualsComparerINS0_8equal_toIS8_EEEENS0_9allocatorISB_EEE9SelectKeyESI_SK_E30advance_past_empty_and_deletedEv
oje:_TextInfo_ToUpper_m299550697
qoc:__ZN9JSONWrite8TransferI13dynamic_arrayI8BitFieldLj4EEEEvRT_PKc17TransferMetaFlags
cya:__ZN23PreloadManagerOperation21MustCompleteNextFrameEv
Mid:_Graphic_OnRectTransformDimensionsChange_m1610753363
qId:_Convert_ToUInt16_m3265369225
P:Math_exp
hxe:_MonoEnumInfo_get_Cache_m3551569711
yo:FUNCTION_TABLE_iiifi
l6i:__ZN6il2cpp2os5posix13PosixAutoLockD2Ev
cUd:_Array_InternalArray__ICollection_Contains_TisVector3_t2243707580_m3625701788_gshared
Zoa:__ZNSt3__26vectorINS_4pairIyP17VertexDeclarationEENS_9allocatorIS4_EEE6insertENS_11__wrap_iterIPKS4_EERS9_
eIh:_TypeFilter_BeginInvoke_m2395188690
msc:__GLOBAL__sub_I_modules_physics2d_public_0_cpp
S2f:__ZL66RuntimeArray_CustomAttributesCacheGenerator_Array_Sort_m1999601238P21CustomAttributesCache
AOe:_Enumerator__ctor_m1424070651_AdjustorThunk
nCc:_cff_get_advances
WAb:__ZN13MonoBehaviour9SetScriptERK4PPtrI10MonoScriptE18ScriptingObjectPtr
UTd:_Array_InternalArray__ICollection_Contains_TisPlayableBinding_t2498078091_m4267109606_gshared
Qxc:_UNITY_FT_Create_Class_sfnt_module_class
ueh:_Text_CalculateLayoutInputHorizontal_m1578553982
g1i:__ZNSt3__218uninitialized_copyIPNS_4pairIK10KeyWrapperIP14Il2CppIUnknownEjEES8_EET0_T_SA_S9_
eNd:_Decimal_IsZero_m3557909184_AdjustorThunk
Xwd:_Char_ToString_m1401375624
mXc:_MD5CryptoServiceProvider__cctor_m3309191799
HCa:__ZNK10FileSystem16LastErrorMessageEv
Y_h:_Logger_set_filterLogType_m3982626604
urf:_InterpreterFactory_get_NamesMapping_m3186583301
sWg:__Z74RuntimeInvoker_Vector2_t2243707579_Vector2_t2243707579_Vector2_t2243707579PFvvEPK10MethodInfoPvPS4_
lCe:_Enumerator_System_Collections_IEnumerator_Reset_m3052395060_gshared
S4e:_Kernel_DwordDivMod_m3728402123
lAb:__ZN13MonoBehaviour13AwakeFromLoadE17AwakeFromLoadMode
zpb:__ZL26Transfer_SimpleNativeClassI17RemapPPtrTransfer8GradientLb1EEvRK29SerializationCommandArgumentsR31RuntimeSerializationCommandInfo
A5b:__ZN12CachedWriter9InitWriteER15CacheWriterBase
r4b:__Z21UnsignedInt64ToStringy
XFf:_UTF7Decoder__ctor_m549434986
$Dh:_InternalEnumerator_1_get_Current_m1025321669_AdjustorThunk
s1h:_Object_t1021602117_marshal_pinvoke
Jgc:__Z66Register_UnityEngine_Transform_INTERNAL_CALL_InverseTransformPointv
x6:__ZZN15DirectorManager15InitializeClassEvEN41FixedUpdateDirectorFixedUpdateRegistrator7ForwardEv
Zyh:_InternalEnumerator_1_MoveNext_m2720582493_gshared
oqf:_Group__ctor_m4103922028
QJi:__ZNSt3__214__split_bufferI6pollfdRNS_9allocatorIS1_EEEC2EjjS4_
Iyj:_glLinkProgram__wrapper
vhb:__ZN18ScriptingArguments8AddInt64Ex
uka:__ZN6prcoreL12RemapGenericI17TexFormatARGB888815TexFormatBGR888EEvPKNS_9InnerInfoE
aib:__ZN12HandlerChain4LockER13FileEntryData12FileLockMode
sXc:_MD5CryptoServiceProvider_ProcessFinalBlock_m1052610785
Gzd:_BitArray_Set_m2878881714
cui:__ZL25UnresolvedVirtualCall_201P12Il2CppObjectPK10MethodInfo
eSc:__ZN28UnityConnectScriptingClasses23CallSessionStateChangedEixxbP21ScriptingExceptionPtr
Sje:_Guid_CompareTo_m2203922782_AdjustorThunk
Mbh:_Selectable_get_colors_m3501193396
P1i:__ZN6il2cpp6icalls8mscorlib6System13Globalization11CultureInfo35construct_internal_locale_from_nameEP17Il2CppCultureInfoP12Il2CppString
Hrb:__ZL22Transfer_ManagedObjectI24GenerateTypeTreeTransferLb1EEvRK29SerializationCommandArgumentsR31RuntimeSerializationCommandInfo
Qpg:__ZL72SceneManager_t90660965_CustomAttributesCacheGenerator_activeSceneChangedP21CustomAttributesCache
R8f:__ZL55COMException_t1790481504_CustomAttributesCacheGeneratorP21CustomAttributesCache
Mae:_ASN1_get_Count_m404940548
nNh:_ContextAttribute_Equals_m53324298
Uj:_emscripten_set_main_loop_timing
kWh:_Camera_ScreenToViewportPoint_m3458250415
kPf:_WeakReference_AllocateHandle_m1783929473
mga:__ZN14DataBufferGLES12RecordRenderEv
M2d:_Array_Sort_TisRuntimeObject_m3674422195_gshared
kVb:__ZN14ImageReference10FlipImageYEv
uIa:__Z32TransferEnumWithNameForceIntSizeI14SafeBinaryRead13TargetEyeMaskEvRT_RT0_PKc17TransferMetaFlags
jjc:__Z14GetDefaultSkini
lSd:_CultureInfo_get_Name_m3316229893
nKd:_DateTime_get_Ticks_m310281298_AdjustorThunk
VE:__ZN4FMOD3DSP9setBypassEb
VWe:_Collection_1_System_Collections_IList_get_Item_m287847793_gshared
IYb:__Z19NormalizeWheelInputf
aqf:_CaptureCollection_CopyTo_m1982767892
KXb:__Z29StdTemplateConversionFunctionIsaEbPvR14SafeBinaryRead
kUd:_Array_InternalArray__ICollection_Remove_TisLink_t865133271_m1984184141_gshared
fsc:__Z29Transfer_Blittable_ArrayFieldI8JSONReadhEvRT_R9ArrayInfoRK23StaticTransferFieldInfo
aqd:_LayoutRebuilder_IsDestroyed_m3442208294
Sfh:_Enumerator_VerifyState_m1547102902_AdjustorThunk
ljj:__ZN6il2cpp2os20ThreadLocalValueImpl8SetValueEPv
JJa:__ZN22RenderingCommandBuffer20CleanupCommandBufferEv
COg:__Z165RuntimeInvoker_Void_t1841601450_UInt32U26_t2197289955_Int32_t2071877448_UInt32U26_t2197289955_Int32_t2071877448_Int32_t2071877448_Int32_t2071877448_Int32_t2071877448PFvvEPK10MethodInfoPvPS4_
u2g:__Z99RuntimeInvoker_Void_t1841601450_CustomAttributeTypedArgumentU5BU5DU26_t4216645529_Int32_t2071877448PFvvEPK10MethodInfoPvPS4_
Wmc:__Z18Transfer_BlittableI9JSONWriteLb1EtEvRK29SerializationCommandArgumentsR31RuntimeSerializationCommandInfo
Tqe:_FileLoadException__ctor_m918124939
Tpg:__ZL106SceneManager_t90660965_CustomAttributesCacheGenerator_SceneManager_Internal_ActiveSceneChanged_m1940652884P21CustomAttributesCache
lk:___syscall85
Z8:__ZN15dense_hashtableINSt3__24pairIKN4core12basic_stringIcNS2_20StringStorageDefaultIcEEEE13dynamic_arrayI4PPtrI6SpriteELj4EEEES6_20StringHash32FunctionIS6_EN14dense_hash_mapIS6_SC_SF_NS0_8equal_toIS6_EE13stl_allocatorISD_L18MemLabelIdentifier81ELi16EEE9SelectKeyESI_SL_E5clearEv
kJb:__ZNSt3__26__sortIRPFbP10GUIElementS2_EPS2_EEvT0_S7_T_
z5e:_SequentialSearchPrimeGeneratorBase_GenerateSearchBase_m2930465198
l3b:__ZN16GraphicsSettings12CleanupClassEv
c9i:__ZN6il2cpp2os6Thread19DetachCurrentThreadEv
aCi:__ZN6il2cpp2vmL21SetupInterfacesLockedEP11Il2CppClassRKNS_2os12FastAutoLockE
lkb:__ZN11MonoManager23VirtualRedirectTransferER24GenerateTypeTreeTransfer
dMg:__Z102RuntimeInvoker_Int32_t2071877448_RuntimeObject_Int32_t2071877448_Int32_t2071877448_Int32U26_t455636984PFvvEPK10MethodInfoPvPS4_
Gy:__ZN23AnimationPlayableOutput17SetSourcePlayableEP8Playable
Qpf:_Capture__ctor_m885749277
Tld:_SubmitEvent__ctor_m222860306
FR:__ZN11UnityEngine15CloudWebService14DataDispatcher15SetupWebRequestEv
$ue:_TextWriter__cctor_m4047845042
Lef:_ReceiveRecordAsyncResult_get_Record_m1336421357
jPc:__ZN11UnityEngine15PlatformWrapper13GetShaderCapsEv
C1h:_Object_ToString_m2938729670
TQb:__ZNSt3__211__sift_downIR26RenderDeferredObjectSorterP16RenderObjectDataEEvT0_S5_T_NS_15iterator_traitsIS5_E15difference_typeES5_
Mfg:__ZL76Convert_t2607082565_CustomAttributesCacheGenerator_Convert_ToByte_m509311047P21CustomAttributesCache
zmh:_Dictionary_2_System_Collections_Generic_IEnumerableU3CSystem_Collections_Generic_KeyValuePairU3CTKeyU2CTValueU3EU3E_GetEnumerator_m1742521661_gshared
qWg:__Z87RuntimeInvoker_Void_t1841601450_RuntimeObject_StringU26_t638738783_StringU26_t638738783PFvvEPK10MethodInfoPvPS4_
lmd:_InputField_CaretBlink_m3960486606
Xj:_emscripten_glGetProgramiv
kbi:_TouchScreenKeyboard_set_hideInput_m962370792
Pce:_SmallXmlParser_ReadCharacters_m1966365555
ugf:_InternalAsyncResult_get_CompletedWithError_m3993955322
V3b:__ZN21FixedBehaviourManager6UpdateEv
h8b:__ZN9Transform9SetParentEPS_NS_15SetParentOptionE
Zjd:_GridLayoutGroup_set_startCorner_m1660251450
vHa:__ZN19ShaderPropertySheet8SetFloatEN9ShaderLab16FastPropertyNameEfNS_8SetFlagsE
TBg:__ZL68InputField_t1631627530_CustomAttributesCacheGenerator_m_AsteriskCharP21CustomAttributesCache
A7a:__ZN19RuntimeSceneManager24BeginIntegrateMainThreadEP10UnityScene
z7i:__ZNSt3__2plIcNS_11char_traitsIcEENS_9allocatorIcEEEENS_12basic_stringIT_T0_T1_EERKS9_S6_
Sve:_LocalDataStoreSlot__cctor_m1192669356
vcb:__ZN9ShaderLab20SerializedSubProgramaSERKS0_
qpj:_roundf
J5c:_String_CreateString_m2556700934
jFa:__ZN18StreamedBinaryReadILb0EE21TransferSTLStyleArrayINSt3__26vectorI17SortingLayerEntryNS2_9allocatorIS4_EEEEEEvRT_17TransferMetaFlags
Sbh:_Selectable_get_targetGraphic_m137842753
ks:__ZN8Animator15SetPrepareStageEv
fdh:_Slider_get_axis_m162140813
AZf:_MonoEventInfo_t2190036573_marshal_pinvoke
bCi:__ZN6il2cpp2vmL24SetupTypeHierarchyLockedEP11Il2CppClassRKNS_2os12FastAutoLockE
QYb:__ZL11TextHandleriPK23EmscriptenKeyboardEventPv
lqd:_LayoutRebuilder_U3Cs_RebuildersU3Em__0_m3768099182
Dbh:_ScrollRect_SetLayoutHorizontal_m3486408020
Nvc:_destroy_face
coi:_GenericEqualityComparer_1_GetHashCode_m116190842_gshared
p$h:_Material_SetIntImpl_m1039479734
zfh:_Enumerator_VerifyState_m1547102902_gshared
Xuj:_glBlendEquationSeparate__wrapper
xsc:__ZN5physx19PxAllocatorCallbackD2Ev
lgj:__ZN6il2cpp6icalls8mscorlib6System8Security12Cryptography24RNGCryptoServiceProvider13RngInitializeEP11Il2CppArray
LLe:_List_1_System_Collections_ICollection_get_IsSynchronized_m227393674_gshared
kRg:__Z99RuntimeInvoker_Void_t1841601450_Int32_t2071877448_Int16_t4041245914_Int16_t4041245914_RuntimeObjectPFvvEPK10MethodInfoPvPS4_
_jf:_IPAddress__cctor_m3624830012
zL:__ZN20SoundChannelInstance7setMuteEb
UNa:__ZN4PPtrI5LightE8TransferI19StreamedBinaryWriteILb0EEEEvRT_
Klf:_AsnEncodedData_EnhancedKeyUsageExtension_m1452131166
rwb:__Z19TransferField_ArrayI18StreamedBinaryReadILb1EE27Converter_SimpleNativeClassI17AnimationCurveTplIfEEEvRK23StaticTransferFieldInfoR31RuntimeSerializationCommandInfoRT0_
V9h:_SendMouseEvents__cctor_m1448404407
vqf:_GroupCollection_get_IsSynchronized_m1100663675
aha:__ZN18GfxFramebufferGLES22MakeCurrentFramebufferENS_7BuiltinE
bgj:__ZN6il2cpp2vm12MarshalAlloc4FreeEPv
Wqf:_Interpreter_Close_m1500459069
pk:_JS_SystemInfo_GetWidth
aDa:__ZN12CachedReader4ReadEPvj
ICc:_cf2_blues_init
Fxh:_InternalEnumerator_1_System_Collections_IEnumerator_get_Current_m3600601141_gshared
QZc:_SHA1Internal_HashFinal_m3188468925
Cwd:_Char_GetHashCode_m2343577184
BNb:__Z24CalculateLightShadowFadeRK6CamerafffR8Vector4f
M_:__ZN19RuntimeSceneManagerD2Ev
Pig:__ZL55HeaderHandler_t324204131_CustomAttributesCacheGeneratorP21CustomAttributesCache
_Kh:_ChannelData_get_CustomProperties_m1470957369
Nog:__ZL99Material_t193706927_CustomAttributesCacheGenerator_Material_Internal_CreateWithMaterial_m1941547384P21CustomAttributesCache
Y3d:_Dictionary_2_Do_ICollectionCopyTo_TisRuntimeObject_m545661084_gshared
VS:__ZN11UnityEngine15CloudWebService25WebRequestDownloadHandler17OnCompleteContentEv
Lja:__ZN6prcore17GetIntegerBlitterE13TextureFormatS0_N14ImageReference8BlitModeE
KSi:__ZN6il2cpp2gc19AppendOnlyGCHashMapINSt3__24pairIPK11Il2CppImageP11Il2CppClassEEP22Il2CppReflectionModule17ReflectionMapHashIS9_ENS2_8equal_toIS9_EEE11TryGetValueERKS9_PSB_
Ogh:_Enumerator_VerifyState_m3173176371_AdjustorThunk
y2g:__Z84RuntimeInvoker_Void_t1841601450_RaycastResultU5BU5DU26_t2399554255_Int32_t2071877448PFvvEPK10MethodInfoPvPS4_
gjf:_TypeConverterAttribute__cctor_m506796812
eDf:_Encoding_get_IsReadOnly_m3729101432
jac:__ZN9BlobWrite14ReduceCopyImplERK14ReduceCopyDataj
qY:__ZNSt3__26__treeI19RepeatingLogMessageNS_4lessIS1_EE13stl_allocatorIS1_L18MemLabelIdentifier73ELi16EEE12__find_equalIS1_EERPNS_16__tree_node_baseIPvEESD_RKT_
dP:__ZN11AudioSource18IsPlayingScriptingEv
GOf:_ValueType_t3507792607_marshal_pinvoke_back
yGh:_Comparer_1_System_Collections_IComparer_Compare_m1790257529_gshared
F0g:__Z55RuntimeInvoker_Int32_t2071877448_ILTokenInfo_t149559338PFvvEPK10MethodInfoPvPS4_
JYf:_MethodInfo_get_ContainsGenericParameters_m572340060
ybh:_ScrollRect_get_flexibleWidth_m3410614750
Ntj:_glShaderSource__wrapper
iBa:__ZN25MultiBlocksMemoryFileData17AdjustBlocksCountEj
c_i:__ZNSt3__214__split_bufferIN6il2cpp2vm22EmbeddedResourceRecordERNS_9allocatorIS3_EEED2Ev
uaf:_TlsClientHello__ctor_m1699671541
Ttc:__ZN13TextRendering4Font8TransferI24GenerateTypeTreeTransferEEvRT_
IMh:_Context_NotifyGlobalDynamicSinks_m2916447645
Bbc:__Z27CullingGroup_CUSTOM_DisposeP12Il2CppObject
DSc:__ZNSt3__26vectorIP19BaseConnectSettings13stl_allocatorIS2_L18MemLabelIdentifier6ELi16EEE21__push_back_slow_pathIKS2_EEvRT_
SVg:__Z69RuntimeInvoker_Color_t2020392075_Color_t2020392075_Single_t2076509932PFvvEPK10MethodInfoPvPS4_
uIb:__ZN13ComputeShader15SetTextureParamEjRKN9ShaderLab16FastPropertyNameE9TextureID16TextureDimension
wch:_Shadow_set_effectDistance_m1951993364
qoh:_Dictionary_2_ContainsKey_m416495915_gshared
nUe:_Collection_1_Remove_m1798559666_gshared
vm:_glStencilMask
QOg:__Z70RuntimeInvoker_Boolean_t3825574718_Int16_t4041245914_Int32_t2071877448PFvvEPK10MethodInfoPvPS4_
b7i:__ZN6il2cpp2os10ThreadImpl16GetCurrentThreadEv
kBd:_Hashtable__ctor_m2337481811
tgh:_Enumerator_System_Collections_IEnumerator_get_Current_m2010873149_gshared
Hgd:_Resources_t2975512894_marshal_pinvoke_cleanup
w3f:__ZL88Type_t_CustomAttributesCacheGenerator_Type_MakeGenericType_m2765875033____typeArguments0P21CustomAttributesCache
TDg:__ZL74SpriteState_t1353336012_CustomAttributesCacheGenerator_m_HighlightedSpriteP21CustomAttributesCache
Vvf:_RealProxy__ctor_m2505535530
Sdj:_GC_push_conditional_with_exclusions
_Mf:_UInt32_System_IConvertible_ToUInt16_m2798641702_AdjustorThunk
Txf:_BinaryFormatter_get_DefaultSurrogateSelector_m219714691
bv:__ZN21AnimationPosePlayableD0Ev
wB:__ZN12_GLOBAL__N_121ProcessAnimationBeginER35AnimationPlayableEvaluationConstantR32AnimationPlayableEvaluationInputR33AnimationPlayableEvaluationOutput
_Kg:__Z136RuntimeInvoker_Void_t1841601450_Int32_t2071877448_RuntimeObject_RuntimeObject_RuntimeObject_RuntimeObject_RuntimeObject_SByte_t454417549PFvvEPK10MethodInfoPvPS4_
X6e:_MD4Managed_Encode_m2097839378
TWe:_Collection_1_System_Collections_IList_get_IsFixedSize_m3252091801_gshared
Ofd:_FloatTween_get_ignoreTimeScale_m4161298485_AdjustorThunk
c$f:_MonoProperty_GetOptionalCustomModifiers_m3827844355
nmj:_strrchr
ZLh:__ZN21InterfaceFuncInvoker1IP8String_tS1_E6InvokeEjP11Il2CppClassP12Il2CppObjectS1_
Y7d:_SimpleCollator_GetSortKey_m2188419329
LEg:__ZL56LayoutElement_t2808691390_CustomAttributesCacheGeneratorP21CustomAttributesCache
W8g:_Scrollbar_Set_m244028386
eOa:__ZN14RenderSettings27UpdateIndirectSpecularColorEv
s5g:__Z102RuntimeInvoker_RuntimeObject_UILineInfo_t3621277874_UILineInfo_t3621277874_RuntimeObject_RuntimeObjectPFvvEPK10MethodInfoPvPS4_
h5a:__ZN14PlayerSettings8TransferI18StreamedBinaryReadILb0EEEEvRT_
oJh:_FixedBufferAttribute__ctor_m2048050068
OKi:__ZN6il2cpp6icalls8mscorlib6System8MonoType16GetMethodsByNameEP20Il2CppReflectionTypeP12Il2CppStringibS5_
c$h:_Logger_Log_m302200299
OJh:_GCHandle__ctor_m2952050298
Z4d:_LayoutGroup_SetProperty_TisAxis_t1431825778_m2174054513_gshared
PXa:__ZN4PPtrI10GameObjectE8TransferI14SafeBinaryReadEEvRT_
v6g:_Mask_IsRaycastLocationValid_m62488857
XEb:__ZNSt3__27__sort3IRNS_4lessIN22BuiltinResourceManager8ResourceEEEPS3_EEjT0_S7_S7_T_
OFh:_DefaultComparer_Compare_m3472472212_gshared
D3g:__Z31RuntimeInvoker_Slot_t2022531261PFvvEPK10MethodInfoPvPS4_
pre:_MonoIO_GetLength_m2812344043
uBc:_ps_hints_t2mask
ftg:__ZL68UsedByNativeCodeAttribute_t3212052468_CustomAttributesCacheGeneratorP21CustomAttributesCache
hXi:__ZN14dense_hash_mapI10KeyWrapperINSt3__24pairIP11Il2CppClassjEEES4_N6il2cpp8metadata14ArrayClassHashENS6_14EqualsComparerINS8_17ArrayClassCompareEEENS1_9allocatorINS2_IKS6_S4_EEEEEC2EjRKS9_RKSC_
L1a:__ZN10BlendShape8TransferI19StreamedBinaryWriteILb0EEEEvRT_
zF:__Z32TransferEnumWithNameForceIntSizeI14SafeBinaryReadN10SampleClip8LoadTypeEEvRT_RT0_PKc17TransferMetaFlags
Koe:__Z21il2cpp_codegen_sizeofP11Il2CppClass
Tna:__Z19GetTimeSinceStartupv
q2c:_SecurityFrame_get_Assembly_m2816566490
T6i:__ZN6il2cpp2os10ThreadImpl11SetPriorityENS0_14ThreadPriorityE
bzi:_CanvasRenderer_set_hasPopInstruction_m3302400555
yGc:_TT_Load_Composite_Glyph
Xlg:__ZL84Camera_t189460977_CustomAttributesCacheGenerator_Camera_get_targetTexture_m505846373P21CustomAttributesCache
P2f:__ZL66RuntimeArray_CustomAttributesCacheGenerator_Array_Sort_m2323017822P21CustomAttributesCache
Xrd:_Array_Sort_m2994254654
uNe:_List_1__ctor_m593058937_gshared
GWd:_Array_InternalArray__IEnumerable_GetEnumerator_TisColor32_t874517518_m2198639025_gshared
ULb:__ZN29RenderNodeQueuePrepareContextC2Ev
bO:__ZN10SampleClipC2E18MemLabelIdentifier18ObjectCreationMode
xdb:__ZN9ShaderLab20SerializedSubProgram16TextureParameter8TransferI24GenerateTypeTreeTransferEEvRT_
saa:__ZN9GfxDevice19SaveStereoConstantsEv
SHf:_Thread_set_Name_m1343706609
Kgj:__ZN6il2cpp2os11MutexHandle4WaitEj
Y8b:__ZL34GetComponentsImplementationRecurseILb1ELi1ELi1EEbR10GameObjectbRK17CompareParametersRK39GetComponentsImplementation_ReturnValue
Jgj:__ZN6il2cpp2os11MutexHandle4WaitEv
qxd:_ArrayList_set_Capacity_m592558035
Ela:__ZN6prcoreL17RemapGenericFloatI15TexFormatRGHalf18TexFormatARGBFloatEEvPKNS_9InnerInfoE
$we:_MonoEnumInfo_t2335995564_marshal_pinvoke_cleanup
kPa:__ZNK13RenderTexture13GetDataHeightEv
ADb:__Z18SimulateMouseInputi
OHb:__ZN13RenderManager23AddRemoveCamerasDelayedEv
$nc:__ZN9JSONWrite8TransferI13dynamic_arrayIdLj8EEEEvRT_PKc17TransferMetaFlags
Zxa:__ZN23PreloadManagerOperation11GetPriorityEv
NQd:_Exception_get_InnerException_m3722561235
OWh:_Color_op_Multiply_m2110750533
FUd:_Array_InternalArray__ICollection_Remove_TisILTokenInfo_t149559338_m1523907845_gshared
ywh:_InternalEnumerator_1_System_Collections_IEnumerator_Reset_m138745466_AdjustorThunk
CXg:__Z105RuntimeInvoker_Void_t1841601450_Vector2U26_t3911752445_RuntimeObject_RuntimeObject_Vector2U26_t3911752445PFvvEPK10MethodInfoPvPS4_
jKe:_List_1_GetEnumerator_m4053501645_gshared
uJi:__ZN6il2cpp2gc9AllocatorIP17Il2CppAsyncResultE10deallocateEPvj
DBd:_Hashtable_Rehash_m2877670513
XTb:__ZN13RenderTexture8SetWidthEi
jod:_InputField_Insert_m1593238693
J$b:__ZNK28RectTransformPropertyBinding12SetPPtrValueERKN11UnityEngine9Animation10BoundCurveEi
yxb:__Z18Transfer_BlittableI18StreamedBinaryReadILb0EELb0EfEvRK29SerializationCommandArgumentsR31RuntimeSerializationCommandInfo
X1a:__ZN10MeshFilterD0Ev
Ywc:_UNITY_FT_GlyphLoader_CheckSubGlyphs
wJi:__ZN6il2cpp2vm21ThreadPoolCompartment20SpawnNewWorkerThreadEv
QZd:_Array_InternalArray__ICollection_Add_TisCustomAttributeTypedArgument_t1498197914_m3260005285_gshared
eOb:__Z25SetupObjectBakedOcclusionbRK15SharedLightDataRK26SharedLightmapSettingsDataRK15LightmapIndicesR17ShaderPassContext
GOh:__ZN21InterfaceFuncInvoker4IP17Match_t3164245899P17Regex_t1803876613P8String_tiiE6InvokeEjP11Il2CppClassP12Il2CppObjectS3_S5_ii
Vje:_Guid_GetHashCode_m1401300871
dli:_ListPool_1_U3Cs_ListPoolU3Em__0_m1243609651_gshared
Vhd:_FontData__ctor_m3822008992
wqi:__ZL23UnresolvedVirtualCall_5P12Il2CppObjectsPK10MethodInfo
eD:__ZN4PPtrI6AvatarE8TransferI19StreamedBinaryWriteILb0EEEEvRT_
BY:__ZN9ShaderLab16FastPropertyName4InitEPKc
P_b:__Z13RegisterClassIN2UI13RectTransformEEvv
u7d:_MSCompatUnicodeTable_ToWidthCompat_m2299599532
Rye:_NumberFormatter_get_IsFloatingSource_m2830957202
E2b:__ZL31MeshRendererTransformChangedJobP13BoundsJobDatajPK23TransformAccessReadOnlyPKyj
ROc:__ZN11UnityEngine15PlatformWrapper19GetPhysicalMemoryMBEv
v_a:__ZN10VertexData8TransferI17RemapPPtrTransferEEvRT_
QOa:__ZN13RenderTexture9SetMipMapEb
YDi:__ZN15dense_hashtableINSt3__24pairIK10KeyWrapperIPK11Il2CppClassEPKcEES6_N6il2cpp5utils11PointerHashIS3_EEN14dense_hash_mapIS6_S9_SE_NS6_14EqualsComparerINS0_8equal_toIS5_EEEENS0_9allocatorISA_EEE9SelectKeyESJ_SL_E13set_empty_keyERKSA_
Dah:_ScrollRect_set_verticalScrollbarSpacing_m2356851539
f6:__Z18GetDirectorManagerv
s9h:_ResourceRequest_t2560315377_marshal_pinvoke_back
Fyg:__ZL92PointerEventData_t1599784723_CustomAttributesCacheGenerator_U3CpointerDragU3Ek__BackingFieldP21CustomAttributesCache
hgc:__Z38Transform_CUSTOM_INTERNAL_get_rotationP12Il2CppObjectP11Quaternionf
tPi:__ZNSt3__26vectorIN6il2cpp2vm17TypeNameParseInfoENS_9allocatorIS3_EEE8allocateEj
M8f:__ZL66CriticalFinalizerObject_t1920899984_CustomAttributesCacheGeneratorP21CustomAttributesCache
zSi:__ZNK15dense_hashtableINSt3__24pairIK10KeyWrapperINS1_IPK10MethodInfoP11Il2CppClassEEEjEES9_17ReflectionMapHashIS8_EN14dense_hash_mapIS9_jSD_NS9_14EqualsComparerINS0_8equal_toIS8_EEEENS0_9allocatorISB_EEE9SelectKeyESI_SK_E5beginEv
Jma:__ZN7ApiGLES19UploadBufferSubDataEjN2gl12BufferTargetEllPKv
L8:__ZNSt3__216__rotate_forwardINS_11__wrap_iterIPN4core12basic_stringIcNS2_20StringStorageDefaultIcEEEEEEEET_S9_S9_S9_
P3c:_String_System_IConvertible_ToInt32_m1927223638
aVd:_Array_InternalArray__ICollection_Remove_TisContentType_t1028629049_m3085152315_gshared
kih:_Transform_1_EndInvoke_m4121732147_gshared
TZh:_FailedToLoadScriptObject_t3605283378_marshal_pinvoke_back
X5c:_ASCIIEncoding__ctor_m4127831672
dXh:_GameObject_GetComponent_m724360550
Qyi:_CanvasGroup_get_alpha_m4171392097
Cmb:__Z19TransferField_ArrayI14SafeBinaryRead27Converter_SimpleNativeClassI8GUIStyleEEvRK23StaticTransferFieldInfoR31RuntimeSerializationCommandInfoRT0_
pRg:__Z63RuntimeInvoker_Void_t1841601450_RuntimeObject_Int16_t4041245914PFvvEPK10MethodInfoPvPS4_
XDf:_UTF8Encoding__ctor_m3336862259
N0i:__ZN15dense_hashtableINSt3__24pairIK10KeyWrapperIP14Il2CppIUnknownEjEES5_N6il2cpp5utils11PointerHashIS3_EEN14dense_hash_mapIS5_jSB_NS5_14EqualsComparerINS0_8equal_toIS4_EEEENS0_9allocatorIS7_EEE9SelectKeyESG_SI_ED2Ev
ygj:__ZN6il2cpp5utils10MemoryPoolC2Ej
dof:_X509Chain_GetAuthorityKeyIdentifier_m2607407678
ugj:__ZN6il2cpp5utils10MemoryPoolC2Ev
CNa:__ZN14RenderSettings5ResetEv
LZb:__ZN6Sprite9BindAtlasERK4PPtrI11SpriteAtlasE
Mkc:__ZN5Unity9rapidjson12GenericValueINS0_4UTF8IcEE13JSONAllocatorE10FindMemberIS4_EENS0_21GenericMemberIteratorILb0ES3_S4_EERKNS1_IS3_T_EE
p$i:__ZNSt3__212basic_stringIDsNS_11char_traitsIDsEENS_9allocatorIDsEEE6appendEPKDsj
hbd:_RaycastResult_set_gameObject_m1138581891_AdjustorThunk
llc:__ZN5Unity9rapidjson13GenericReaderINS0_4UTF8IcEES3_13JSONAllocatorE11ParseNumberILj1ENS0_25GenericInsituStringStreamIS3_EENS0_15GenericDocumentIS3_S4_S4_EEEEvRT0_RT1_
p4d:_Dictionary_2_Do_ICollectionCopyTo_TisKeyValuePair_2_t3716250094_m1740410536_gshared
Hph:_DefaultComparer__ctor_m580747638_gshared
N6i:__ZN6il2cpp2os10ThreadImplD2Ev
Vde:_RSAManaged_Dispose_m3018788098
cmc:__ZN8Gradient8TransferI9JSONWriteEEvRT_
eHf:_Monitor_Monitor_pulse_m2135582245
AFd:_DateTime_ToUniversalTime_m1815024752
X2h:_X509CertificateEnumerator_MoveNext_m1422952050
Eif:_NameObjectCollectionBase_get_Count_m2353593692
Cxa:__ZNK12TLSAllocatorI14StackAllocatorE22GetAllocatedMemorySizeEv
D7f:__ZL54AssemblyName_t894705941_CustomAttributesCacheGeneratorP21CustomAttributesCache
DId:_Convert_ToUInt32_m3394039268
yYh:_DisplaysUpdatedDelegate_EndInvoke_m1055876886
uva:__ZN17RemapPPtrTransfer12PushMetaFlagE17TransferMetaFlags
wM:__ZNK7WeakPtrI20SoundChannelInstanceE10SharedData9GetRawPtrEv
Nhb:__ZN12HandlerChain4NameEv
nob:__Z29Transfer_Blittable_ArrayFieldI14SafeBinaryReadN4math12int3_storageEEvRT_R9ArrayInfoRK23StaticTransferFieldInfo
v3a:__ZNSt3__26vectorI9InputAxisNS_9allocatorIS1_EEE10deallocateEv
Tke:_Int16_Equals_m3925135434_AdjustorThunk
TMc:__Z44Register_UnityEngine_CanvasRenderer_get_cullv
Pjh:_Enumerator_Dispose_m2532362830_AdjustorThunk
i5f:__ZL60IHashCodeProvider_t1980576455_CustomAttributesCacheGeneratorP21CustomAttributesCache
k$b:__ZN13ProduceHelperI13MonoBehaviourLb0EE7ProduceE18MemLabelIdentifier18ObjectCreationMode
BBe:_Enumerator_VerifyState_m1677639504_AdjustorThunk
kYb:__Z29StdTemplateConversionFunctionIbbEbPvR14SafeBinaryRead
T9i:__ZNK15dense_hashtableINSt3__24pairIK10KeyWrapperIPK19Il2CppGenericMethodEP10MethodInfoEES6_N6il2cpp8metadata23Il2CppGenericMethodHashEN14dense_hash_mapIS6_S9_SD_NS6_14EqualsComparerINSC_26Il2CppGenericMethodCompareEEENS0_9allocatorISA_EEE9SelectKeyESH_SJ_E12test_deletedEj
E9e:_CipherSuiteCollection_get_Item_m280627160
Fkb:__Z44InitializeTransferFunctionScriptingTraitsForI17RemapPPtrTransferEvR31TransferFunctionScriptingTraits
usf:_SerializationInfoEnumerator_MoveNext_m1876990879
wJf:_TimeSpan_Duration_m4205681645
TVb:__ZN14UnityWebStream24UpdateAllUnityWebStreamsEv
z$b:__ZNSt3__26vectorI16MessageForwarder13stl_allocatorIS1_L18MemLabelIdentifier7ELi8EEE6resizeEj
TRe:_Collection_1_System_Collections_IList_get_IsReadOnly_m2329986891_gshared
K3f:__ZL60ObsoleteAttribute_t3878847927_CustomAttributesCacheGeneratorP21CustomAttributesCache
zTh:_Uri_ParseAsWindowsAbsoluteFilePath_m1108586962
SR:__ZN11UnityEngine15CloudWebService14DataErrorEventD2Ev
q$d:_Array_InternalArray__ICollection_CopyTo_TisRaycastHit2D_t4063908774_m3837098618_gshared
y7a:__ZN18LoadSceneOperation21MustCompleteNextFrameEv
qai:_DataUtility_GetInnerUV_m593541260
AL:__ZNK12AudioManager16GetAudioListenerEv
HZf:_MonoField_get_FieldType_m598011426
SRe:_Collection_1_System_Collections_IList_get_IsFixedSize_m1624702704_gshared
Qlg:__ZL48Camera_t189460977_CustomAttributesCacheGeneratorP21CustomAttributesCache
DTb:__ZNSt3__26vectorI11CameraStackNS_9allocatorIS1_EEE8__appendEj
YZi:__ZNSt3__212basic_stringIcNS_11char_traitsIcEENS_9allocatorIcEEE6__initINS_11__wrap_iterIPcEEEENS_9enable_ifIXsr21__is_forward_iteratorIT_EE5valueEvE4typeESB_SB_
snd:_InputField_OnDisable_m1865339380
XMf:_UInt32_System_IConvertible_ToType_m747769316
Jt:__ZN7mecanim9animation12GetHumanPoseERKNS0_18ClipMuscleConstantEPKNS0_10ValueDeltaERNS_5human9HumanPoseE
yv:__ZN22AnimationMixerPlayable17ProcessRootMotionEP35AnimationPlayableEvaluationConstantP32AnimationPlayableEvaluationInputP33AnimationPlayableEvaluationOutput
aub:__Z29Transfer_Blittable_ArrayFieldI19StreamedBinaryWriteILb0EEjEvRT_R9ArrayInfoRK23StaticTransferFieldInfo
l2:__Z13GetFileSystemv
E3:__ZNK5Unity4Type21FindAllDerivedClassesER13dynamic_arrayIPKS0_Lj4EENS0_17TypeFilterOptionsE
j4:__ZN13RuntimeStaticI15GUIEventManagerLb0EE16StaticInitializeEPv
dmh:_Dictionary_2_ToTKey_m2900575080_gshared
Iyb:__ZL12InvokeMethodI18StreamedBinaryReadILb0EEEvRK29SerializationCommandArgumentsR31RuntimeSerializationCommandInfo
Jhe:_DaylightTime_get_Delta_m2316831491
_Td:_Array_InternalArray__ICollection_Contains_TisUILineInfo_t3621277874_m1175659630_gshared
TVg:__Z70RuntimeInvoker_Boolean_t3825574718_Color_t2020392075_Color_t2020392075PFvvEPK10MethodInfoPvPS4_
NIf:_WaitHandle_WaitOne_m370363697
czg:__ZL114PointerEventData_t1599784723_CustomAttributesCacheGenerator_PointerEventData_set_pointerCurrentRaycast_m2431897513P21CustomAttributesCache
jqf:_FactoryCache_Lookup_m1681894361
_Kd:_DateTime_Subtract_m698282245_AdjustorThunk
gGh:_DefaultComparer__ctor_m2470932885_gshared
HYd:_Array_InternalArray__IndexOf_TisResourceCacheItem_t333236149_m761772858_gshared
RXe:_Collection_1_InsertItem_m724820684_gshared
uhg:__ZL79Convert_t2607082565_CustomAttributesCacheGenerator_Convert_ToUInt64_m1896191125P21CustomAttributesCache
HIb:__ZN19ShaderPropertySheet9SetMatrixEN9ShaderLab16FastPropertyNameERK10Matrix4x4fNS_8SetFlagsE
pYc:_RIPEMD160Managed_Initialize_m3365407578
jVa:__Z29GetTextureSizeAllowedMultiple13TextureFormat
Zjf:_IPAddress_HostToNetworkOrder_m1092199707
OVd:_SetPropertyUtility_SetStruct_TisSpriteState_t1353336012_m2898060836_gshared
wGb:__ZZ23InitPlayerLoopCallbacksvEN52InitializationAsyncUploadTimeSlicedUpdateRegistrator7ForwardEv
x0c:_SecurityAttribute__ctor_m3425755778
j4b:__ZN21IntermediateRenderers3AddEP20IntermediateRenderer
oMi:_il2cpp_array_element_size
Uf:_glCheckFramebufferStatus
Etg:__ZL55TextGenerator_t647235000_CustomAttributesCacheGeneratorP21CustomAttributesCache
dXd:_Array_compare_TisInt32_t2071877448_m840310202_gshared
Vgh:_Enumerator_System_Collections_IEnumerator_get_Current_m229223308_AdjustorThunk
k2i:__ZN15dense_hashtableINSt3__24pairIK10KeyWrapperINS1_IPKcS4_EEEiEES6_24NamespaceAndNamePairHashN14dense_hash_mapIS6_iS9_NS6_14EqualsComparerI26NamespaceAndNamePairEqualsEENS0_9allocatorIS8_EEE9SelectKeyESD_SF_E12resize_deltaEjj
lFh:_InternalEnumerator_1_System_Collections_IEnumerator_get_Current_m442726479_AdjustorThunk
gVc:_DESTransform_ECB_m2629024873
tDh:_InternalEnumerator_1_System_Collections_IEnumerator_get_Current_m790514740_AdjustorThunk
u2f:__ZL74RuntimeArray_CustomAttributesCacheGenerator_Array_BinarySearch_m2287427837P21CustomAttributesCache
__g:__Z78RuntimeInvoker_Boolean_t3825574718_TransitionU26_t3012618447_Int32_t2071877448PFvvEPK10MethodInfoPvPS4_
i7d:__Z37il2cpp_codegen_get_executing_assemblyPK10MethodInfo
lhb:__ZN9Transform23VirtualRedirectTransferER17RemapPPtrTransfer
iVg:__Z72RuntimeInvoker_Boolean_t3825574718_Bounds_t3033363703_Bounds_t3033363703PFvvEPK10MethodInfoPvPS4_
e4f:__ZL57TypedReference_t1025199857_CustomAttributesCacheGeneratorP21CustomAttributesCache
fYd:_Array_InternalArray__IndexOf_TisByte_t3683104436_m3605266236_gshared
AXe:_Collection_1_System_Collections_IList_Insert_m435904526_gshared
G8g:_RaycastAllCallback_Invoke_m981876639
JDf:_UnicodeEncoding__ctor_m72484327
Oai:_Texture_INTERNAL_get_texelSize_m3335010007
Q0i:__ZN14dense_hash_mapI10KeyWrapperIP14Il2CppIUnknownEjN6il2cpp5utils11PointerHashIS1_EENS3_14EqualsComparerINSt3__28equal_toIS2_EEEENS9_9allocatorINS9_4pairIKS3_jEEEEE15set_deleted_keyERSF_
T3:__ZN22BuiltinResourceManager16StaticInitializeEPv
cme:_NumberFormatter_ScaleOrder_m1915154678
XYi:__ZN6il2cpp2gc9AllocatorIP12Il2CppThreadE10deallocateEPvj
aVi:__ZN13Il2CppHashMapIPK14Il2CppAssemblyPK22Il2CppMonoAssemblyNameN6il2cpp5utils11PointerHashIS1_EENSt3__28equal_toIS2_EENSA_9allocatorINSA_4pairIK10KeyWrapperIS2_ES5_EEEEEC2EjRKS9_RKSC_
zbf:_ClientSessionInfo_SetContext_m2649357891
W5h:_PropertyAttribute__ctor_m1714388149
Rme:_Int32_System_IConvertible_ToInt64_m3790029067_AdjustorThunk
f8c:_RaycasterManager_GetRaycasters_m1154876874
Mgf:_SslStreamBase_InternalReadCallback_m2524917586
q1:__ZN8Remapper6RemoveEi
AGe:_List_1_CheckCollection_m2608305187_gshared
KBa:__ZN10MemoryFile4ReadEyPvPy
jLf:_Type_get_ContainsGenericParameters_m505913180
y9b:__ZN9Scripting27CreateArgumentNullExceptionEPKc
uwc:__ZL36CleanupTextRenderingScriptingClassesv
fJg:__Z52RuntimeInvoker_UInt32_t2149682021_Decimal_t724701077PFvvEPK10MethodInfoPvPS4_
T_e:_ReadOnlyCollection_1__ctor_m3532148437_gshared
Drd:_Array_BinarySearch_m3270245097
Ydc:__Z34Mesh_CUSTOM_SetArrayForChannelImplP12Il2CppObject30InternalScriptingShaderChannel34InternalScriptingVertexChannelTypeiP11Il2CppArrayi
Fqe:_MonoIO_DeleteFile_m3273821223
e9d:_BigInteger_GenerateRandom_m2507308768
BJd:_DateTime_System_IConvertible_ToDouble_m1431748426_AdjustorThunk
NTd:_Array_InternalArray__ICollection_Contains_TisUInt16_t986882611_m510319131_gshared
u0d:_Array_InternalArray__Insert_TisRaycastHit2D_t4063908774_m3174907903_gshared
uNd:_Decimal_ToString_m541380585
Yqf:_RepeatContext_get_Previous_m808449037
FYg:__Z46RuntimeInvoker_CharacterValidation_t3437478890PFvvEPK10MethodInfoPvPS4_
iYf:_MemberFilter__ctor_m1775909550
GMi:_il2cpp_class_is_valuetype
GD:__ZN11UnityEngine9Animation28GenericAnimationBindingCache25RegisterIAnimationBindingEPKN5Unity4TypeEiP17IAnimationBinding
XMc:__Z70RectTransformUtility_CUSTOM_INTERNAL_CALL_RectangleContainsScreenPointP12Il2CppObjectRK13Vector2fIcallS0_
iQd:_Enum_ToObject_m2601523252
lgf:_InternalAsyncResult_get_FromWrite_m2893408424
UBi:__ZN6il2cpp2vm5Class15GetElementClassEP11Il2CppClass
Tpd:_U3CDelayedSetDirtyU3Ec__Iterator0_System_Collections_IEnumerator_get_Current_m851854792
uSb:__Z40ProcessCameraIndexListIsNodeVisibleInOutRK22SceneCullingParametersPK9SceneNodePK4AABBR9IndexList
z$h:_Mathf_Sqrt_m3274009347
rLa:__ZN16GraphicsSettings8TransferI17RemapPPtrTransferEEvRT_
s5e:_BigInteger_op_LessThanOrEqual_m3528380540
Kte:_StreamReader__ctor_m2654332332
zKc:__ZN2UI6Canvas13UpdateBatchesEb
U1h:_Playable__cctor_m3745623656
Dy:__ZNK23AnimationPlayableOutput11DerivesFromE17ScriptingClassPtr
iUa:__ZN7Texture19SupportsAsyncUploadI19StreamedBinaryWriteILb0EEEEbRT_
KWh:_Color_op_Implicit_m3487763211
GEe:_List_1_CheckCollection_m3968030679_gshared
gwi:_Predicate_1_BeginInvoke_m3556950370_gshared
DEf:_StringBuilder_ToString_m617673931
faa:__ZNK13GfxDeviceGLES12GetWireframeEv
CGf:_UTF8Encoding_GetString_m1836344205
N$e:_ReadOnlyCollection_1_System_Collections_ICollection_get_IsSynchronized_m3127987432_gshared
LPc:__ZN11UnityEngine7Connect13ConfigHandler12GetListenersERKN4core12basic_stringIcNS2_20StringStorageDefaultIcEEEE
Jug:__ZL110AudioSource_t1135106623_CustomAttributesCacheGenerator_AudioSource_INTERNAL_CALL_ReadExtensionName_m3515549821P21CustomAttributesCache
Kba:__ZN9GfxDevice18AllocRenderSurfaceEb
v8g:_GetRayIntersectionAllNonAllocCallback_BeginInvoke_m273046189
FZb:__ZN10TagManager32GetSortingLayerUniqueIDFromValueEi
ARh:_AnchorInfo_get_IsComplete_m1247624133
nhd:_Dropdown_Show_m324374589
o_:__ZL27CleanupCoreScriptingClassesv
pLg:__Z68RuntimeInvoker_RuntimeObject_RuntimeObject_DSAParameters_t1872138834PFvvEPK10MethodInfoPvPS4_
_Ye:_ReadOnlyCollection_1_System_Collections_ICollection_get_SyncRoot_m769863805_gshared
HZg:__Z101RuntimeInvoker_Void_t1841601450_RuntimeObject_Int32_t2071877448_Single_t2076509932_Single_t2076509932PFvvEPK10MethodInfoPvPS4_
Aad:_RaycastResult_get_isValid_m2482925612
Tdc:__Z26AnimationCurve_CUSTOM_InitP12Il2CppObjectP11Il2CppArray
oxj:_glUniform1uiv__wrapper
NUi:__ZN6il2cpp2vm10Reflection7IsEventEP12Il2CppObject
ajj:__ZNSt3__26__treeINS_12__value_typeIPFvvEPK10MethodInfoEENS_19__map_value_compareIS3_S7_NS_4lessIS3_EELb1EEENS_9allocatorIS7_EEE16__insert_node_atEPNS_16__tree_node_baseIPvEERSI_SI_
x$:__ZN17PersistentManager26GetStreamNameSpaceInternalEi
b7h:_Rect_set_y_m3273335367
IF:__ZN4FMOD6System11createSoundEPKcjP22FMOD_CREATESOUNDEXINFOPPNS_5SoundE
g4g:__Z72RuntimeInvoker_Int32_t2071877448_Vector2_t2243707579_Vector2_t2243707579PFvvEPK10MethodInfoPvPS4_
mUe:__ZN23InterfaceActionInvoker2Ii22UICharInfo_t3056636800E6InvokeEjP11Il2CppClassP12Il2CppObjectiS0_
Tn:FUNCTION_TABLE_iiifiiii
UPi:__ZN6il2cpp2vm4Type14IsSystemDBNullEPK10Il2CppType
vZ:__ZN9ShaderLab19CommonPropertyNames13StaticCleanupEPv
I0:__Z31scripting_method_get_returntype18ScriptingMethodPtr
Lah:_ScrollRect_UpdateBounds_m3266596336
yWa:__ZN15SerializeTraitsI12LightmapDataE8TransferI24GenerateTypeTreeTransferEEvRS0_RT_
Qbi:_Transform_INTERNAL_set_localScale_m1610244689
Sed:_ColorBlock_GetHashCode_m649325222
Ptj:_glStencilOpSeparate__wrapper
y6b:__ZN4Mesh5SetUvEiPKfjj
VYa:__ZN7Texture13SetAnisoLimitENS_20AnisotropicFilteringE
w8a:__ZN28LightProbeProxyVolumeManager25UpdateSHCoeffsTextureDataER21LightProbeProxyVolume
eCa:__Z18CreateDecompressor15CompressionType18MemLabelIdentifier
sN:__ZN11AudioModule16SetListenerPauseEb
Nh:_emscripten_glCompressedTexSubImage2D
koa:__ZN13GfxDeviceGLES22MemoryBarrierImmediateEyN2gl17MemoryBarrierTypeE
w8:__ZZN18SpriteAtlasManagerC1EvEN46EarlyUpdateSpriteAtlasManagerUpdateRegistrator7ForwardEv
Sla:__ZN6prcoreL26RemapGenericFloatToIntegerI18TexFormatARGBFloat17TexFormatARGB8888EEvPKNS_9InnerInfoE
S8b:__Z46GetShaderModelNumericValueFromRequirementsMask18ShaderRequirements
LEc:_cff_ps_has_glyph_names
Mih:_Transform_1_EndInvoke_m1025924012_gshared
J0e:_ReadOnlyCollection_1_System_Collections_Generic_ICollectionU3CTU3E_get_IsReadOnly_m2873538493_gshared
oPh:_PatternCompiler_EmitPosition_m3013268572
Hpf:_X509SubjectKeyIdentifierExtension__ctor_m1109455121
iri:__ZL24UnresolvedVirtualCall_45P12Il2CppObject19DateTime_t693205669PK10MethodInfo
zjd:_Graphic_CreateColorFromAlpha_m2614574534
pFf:_UnicodeEncoding_GetHashCode_m2443440683
ykc:__Z44Register_UnityEngine_GUIStyle_SetDefaultFontv
OUf:_GenericTypeParameterBuilder_GetPropertyImpl_m3566422383
Aub:__Z18Transfer_BlittableI18StreamedBinaryReadILb1EELb1EiEvRK29SerializationCommandArgumentsR31RuntimeSerializationCommandInfo
vA:__ZN9BlobWrite8TransferI22OffsetPtrArrayTransferIKN4math7_float3EEEEvRT_PKc17TransferMetaFlags
t$c:_TripleDES_IsWeakKey_m483013953
Vjh:_Enumerator__ctor_m3819430617_AdjustorThunk
CTi:__ZN15dense_hashtableINSt3__24pairIK10KeyWrapperINS1_IPK12PropertyInfoP11Il2CppClassEEEjEES9_17ReflectionMapHashIS8_EN14dense_hash_mapIS9_jSD_NS9_14EqualsComparerINS0_8equal_toIS8_EEEENS0_9allocatorISB_EEE9SelectKeyESI_SK_E12maybe_shrinkEv
FRg:__Z75RuntimeInvoker_RuntimeObject_RuntimeObject_Single_t2076509932_RuntimeObjectPFvvEPK10MethodInfoPvPS4_
$ub:__Z18Transfer_BlittableI18StreamedBinaryReadILb1EELb1EsEvRK29SerializationCommandArgumentsR31RuntimeSerializationCommandInfo
eZg:__Z54RuntimeInvoker_Void_t1841601450_ColorBlock_t2652774230PFvvEPK10MethodInfoPvPS4_
Eri:__ZL24UnresolvedVirtualCall_67P12Il2CppObject18OpCode_t2247480392PK10MethodInfo
U2c:_Single_System_IConvertible_ToSByte_m3757385387
Hbi:_Vector3_get_forward_m1316319684
Dre:_StreamAsyncResult_SetComplete_m2141125667
ZYa:__ZL21SetAnisoLimitEnumImplN7Texture20AnisotropicFilteringEb
$Nc:__ZN22BaseUnityConnectClient17OnEnterStateReadyEv
J_:__Z21GetManagerFromContexti
HJa:__ZN14GrowableBufferD2Ev
Sfi:_GUIStyle_get_stretchWidth_m813991504
hdc:__Z29Input_CUSTOM_GetMouseButtonUpi
mLi:__ZN6il2cpp6icalls8mscorlib6System8MonoType16InternalGetEventEP20Il2CppReflectionTypeP12Il2CppStringi
$Mf:_UInt32_System_IConvertible_ToUInt32_m1257480358_AdjustorThunk
v3g:__Z55RuntimeInvoker_CustomAttributeTypedArgument_t1498197914PFvvEPK10MethodInfoPvPS4_
bHf:_Interlocked_CompareExchange_m3339239614
Dyc:_UNITY_tt_face_load_maxp
wdc:__Z46Input_CUSTOM_INTERNAL_set_compositionCursorPosRK13Vector2fIcall
Ms:__ZN7mecanim5human12FullBodyMaskEv
nfg:__ZL98Activator_t1850728717_CustomAttributesCacheGenerator_Activator_CreateInstance_m1465989661____args1P21CustomAttributesCache
Q2a:__ZN19ShaderPropertySheet11ComputeHashEv
FFi:__ZN30dense_hashtable_const_iteratorI10KeyWrapperIPK19Il2CppGenericMethodES4_N6il2cpp8metadata23Il2CppGenericMethodHashEN14dense_hash_setIS4_S7_NS4_14EqualsComparerINS6_26Il2CppGenericMethodCompareEEENSt3__29allocatorIS4_EEE8IdentityESB_SE_EppEv
Xvb:__ZN4PPtrI6ObjectE8TransferI18StreamedBinaryReadILb1EEEEvRT_
ES:__ZN11UnityEngine15CloudWebService20WebRequestRestClient6IsDoneEv
Eug:__ZL93AudioSource_t1135106623_CustomAttributesCacheGenerator_AudioSource_Play_m1385529671____delay0P21CustomAttributesCache
mfd:_ColorTween_get_tweenMode_m2919867230_AdjustorThunk
Ji:_llvm_fabs_f32
Wdd:_CanvasScaler_HandleScaleWithScreenSize_m80056230
Yih:_Transform_1_EndInvoke_m687617772_gshared
hS:__ZN11UnityEngine15CloudWebService16SessionContainer16GetJsonDataBlockEjRKN4core12basic_stringIcNS2_20StringStorageDefaultIcEEEERS6_PjSA_
SAf:_SByte_System_IConvertible_ToUInt64_m2174352876_AdjustorThunk
$Uf:_GenericTypeParameterBuilder_get_AssemblyQualifiedName_m902593295
yVi:__ZN15dense_hashtableINSt3__24pairIK10KeyWrapperIPK14Il2CppAssemblyEPK22Il2CppMonoAssemblyNameEES6_N6il2cpp5utils11PointerHashIS4_EEN14dense_hash_mapIS6_SA_SF_NS6_14EqualsComparerINS0_8equal_toIS5_EEEENS0_9allocatorISB_EEE9SelectKeyESK_SM_E13set_empty_keyERKSB_
OFf:_UTF7Encoding_InternalGetBytes_m2772055844
$sh:_EqualityComparer_1__ctor_m831468288_gshared
nmh:_Dictionary_2_System_Collections_IDictionary_set_Item_m2290664072_gshared
wNg:__Z76RuntimeInvoker_Void_t1841601450_Int64_t909078037_ResourceInfoU26_t3126209420PFvvEPK10MethodInfoPvPS4_
G7d:_SimpleCollator__cctor_m2693747668
nNd:_Decimal_CompareTo_m2454501434_AdjustorThunk
N$:__ZN14SafeBinaryReadD2Ev
ILf:_UInt16_System_IConvertible_ToChar_m4055364664
I_b:__Z13RegisterClassI7TextureEvv
ESh:_ExpressionCollection_OnValidate_m1703610065
k6d:_Component_GetComponentInChildren_TisRuntimeObject_m2461586036_gshared
pwb:__ZN8Gradient8TransferI18StreamedBinaryReadILb1EEEEvRT_
ijh:_Enumerator_Dispose_m2369319718_AdjustorThunk
Qgg:__ZL79Convert_t2607082565_CustomAttributesCacheGenerator_Convert_ToUInt16_m3991499696P21CustomAttributesCache
nNf:_UInt32_ToString_m554020223_AdjustorThunk
kPe:_Enumerator_Dispose_m1520016780_AdjustorThunk
g_h:_GameObject_SendMessage_m3423113156
c0i:__ZN6il2cpp6icalls8mscorlib6System4Type15MakeGenericTypeEP20Il2CppReflectionTypeP11Il2CppArray
ij:_SDL_PauseAudio
LMi:_il2cpp_class_from_type
jsd:_Array_Sort_m2323017822
n9g:_Scrollbar_UpdateDrag_m3839695926
uZ:__ZN9ShaderLab19CommonPropertyNames16StaticInitializeEPv
owe:_MissingMemberException__ctor_m3710131950
I9a:__ZN13MemoryManager31DisallowAllocationsOnThisThreadEv
O6h:_Ray_get_direction_m4136268940_AdjustorThunk
xC:__ZN7mecanim9animation18CreateAvatarOutputEPKNS0_14AvatarConstantEbbRNS_6memory9AllocatorE
OTg:__Z91RuntimeInvoker_Void_t1841601450_RuntimeObject_Int32_t2071877448_RuntimeObject_RuntimeObjectPFvvEPK10MethodInfoPvPS4_
RBf:_CspParameters__ctor_m2546931874
sL:__ZN11AudioSource23VirtualRedirectTransferER24GenerateTypeTreeTransfer
k6b:__ZN7Texture11SetWrapModeE15TextureWrapMode
t$a:__ZN14Texture2DArray23VirtualRedirectTransferER14SafeBinaryRead
wNb:__ZNK6Camera21CalculateCanDoShadowsEv
_oh:_Dictionary_2_make_pair_m2631942124_gshared
Djd:_Graphic__cctor_m1643894470
X8i:__ZN6il2cpp2os6Thread12SetStackSizeEj
RHg:__Z99RuntimeInvoker_Void_t1841601450_Int32_t2071877448_RuntimeObject_Int32_t2071877448_Int32_t2071877448PFvvEPK10MethodInfoPvPS4_
qnf:_X509ChainElementEnumerator_get_Current_m2232618221
eYh:_DebugLogHandler_LogFormat_m2866699703
qNg:__Z54RuntimeInvoker_CallingConventions_t1097349142_IntPtr_tPFvvEPK10MethodInfoPvPS4_
sdd:_U3COnFinishSubmitU3Ec__Iterator0_Reset_m2080388334
d6b:__ZNK8Renderer16IsVisibleInSceneEv
Fah:_ScrollRect_set_onValueChanged_m3957749575
yX:__Z13VFormatBufferPciPKcz
wxb:__Z18Transfer_BlittableI18StreamedBinaryReadILb0EELb1EhEvRK29SerializationCommandArgumentsR31RuntimeSerializationCommandInfo
Lvi:_U3CCreateWhereIteratorU3Ec__Iterator1D_1_Dispose_m1879652802_gshared
o9f:__ZL90SafeHandle_t2733794115_CustomAttributesCacheGenerator_SafeHandle_get_IsInvalid_m3910183075P21CustomAttributesCache
wld:_Image_GenerateSimpleSprite_m4275440988
xMf:_UInt16_ToString_m3280699191
Wla:__ZN6prcoreL27StretchGenericFloatBilinearI15TexFormatRFloatEEvPKNS_9InnerInfoE
nag:__ZL62IDynamicMessageSink_t3056162262_CustomAttributesCacheGeneratorP21CustomAttributesCache
TVd:_Array_InternalArray__IEnumerable_GetEnumerator_TisBoolean_t3825574718_m798244337_gshared
cLe:_List_1_CopyTo_m158925060_gshared
Bv:__Z24ProcessAnimationMixBeginP35AnimationPlayableEvaluationConstantP32AnimationPlayableEvaluationInputP33AnimationPlayableEvaluationOutput
SXd:_Array_IndexOf_TisCustomAttributeNamedArgument_t94157543_m745056346_gshared
Zia:__Z14PadImageBorderR14ImageReferenceii
fSi:__ZN15dense_hashtableINSt3__24pairIK10KeyWrapperINS1_IPK10MethodInfoP11Il2CppClassEEEjEES9_17ReflectionMapHashIS8_EN14dense_hash_mapIS9_jSD_NS9_14EqualsComparerINS0_8equal_toIS8_EEEENS0_9allocatorISB_EEE9SelectKeyESI_SK_E4findERSA_
JIi:__ZN6il2cpp2vm13MetadataCache28GetFieldDefaultValueForFieldEPK9FieldInfo
ruh:_ArrayReadOnlyList_1_ReadOnlyError_m2289309720_gshared
dw:__ZN27AnimationLayerMixerPlayableD2Ev
ALi:__ZN6il2cpp2vm8basepathEPKc
Lqh:_DefaultComparer_GetHashCode_m320514092_gshared
cog:__ZL99Input_t1785128008_CustomAttributesCacheGenerator_Input_INTERNAL_set_compositionCursorPos_m144787813P21CustomAttributesCache
NH:__ZN12AudioManager39HandlePendingAudioConfigurationCallbackEv
QKg:__Z119RuntimeInvoker_Int32_t2071877448_RuntimeObject_RuntimeObject_Int32_t2071877448_Int32_t2071877448_BooleanU26_t3168250738PFvvEPK10MethodInfoPvPS4_
ek:_emscripten_glIsFramebuffer
lGa:__ZN12_GLOBAL__N_16qAtan2Eff
NHd:_Convert_ToInt64_m954367741
iti:__ZL25UnresolvedVirtualCall_153P12Il2CppObject40CustomAttributeTypedArgument_t1498197914S1_PK10MethodInfo
ik:_JS_Sound_SetLoopPoints
ixd:_ArrayList__ctor_m1467563650
EM:__ZN12AudioManager17ShouldSourcePauseEb
Qgj:__ZN6il2cpp2vm26MetadataAllocGenericMethodEv
Ara:__ZN19ConstantBuffersGLES12RecordRenderEv
Unc:__ZN9JSONWrite8TransferI10RectOffsetEEvRT_PKc17TransferMetaFlags
Eia:__ZN4crnd12symbol_codec11decode_bitsEj
hDc:_cf2_doFlex
Z2d:_Array_Sort_TisRaycastResult_t21186376_TisRaycastResult_t21186376_m38820193_gshared
U3b:__ZN21FixedBehaviourManagerD0Ev
yng:__ZL84RectOffset_t3387826427_CustomAttributesCacheGenerator_RectOffset_set_top_m1587840032P21CustomAttributesCache
rtg:__ZL55RaycastHit2D_t4063908774_CustomAttributesCacheGeneratorP21CustomAttributesCache
Pqe:_StreamReader__ctor_m3454466728
RH:__ZN4FMOD6System12createReverbEPPNS_6ReverbE
s8h:_RectTransform_get_anchorMin_m3466802567
Wv:__ZN7mecanim19ValueArrayBlendNodeILb1EEEvRKNS_10ValueArrayERKNS_14ValueArrayMaskERS1_RS4_RNS_16ValueArrayWeightEf
K9a:__Z16MarkDependenciesR27GarbageCollectorThreadStatej
ipf:_X509ChainElementEnumerator_Reset_m3832280427
$xg:__ZL75EventSystem_t3466835263_CustomAttributesCacheGenerator_U3CU3Ef__mgU24cache0P21CustomAttributesCache
uye:_MulticastDelegate_RemoveImpl_m2024746777
eed:_CanvasUpdateRegistry_ParentCount_m2367607495
oye:_MulticastDelegate_Equals_m3064081489
Pge:_Activator_CreateInstance_m1465989661
s9:__ZNK9Transform11GetPositionEv
$Sh:_PositionAssertion_GetWidth_m2294218483
tMa:__ZN23SharedMeshRenderingData18UnloadVertexStreamEi
i4b:__ZN31CanvasBatchIntermediateRenderer11AddSubBatchERK16DrawBuffersRangePK19ShaderPropertySheet
NJg:__Z99RuntimeInvoker_Void_t1841601450_RuntimeObject_Int32_t2071877448_Int32_t2071877448_Int32_t2071877448PFvvEPK10MethodInfoPvPS4_
S2b:__ZN19RenderEventsContextC2Ei
vQ:__Z6simd4fRKf
l$d:_Array_InternalArray__ICollection_CopyTo_TisColor32_t874517518_m379086718_gshared
ddh:_Slider_ClampValue_m2851810895
Mk:_emscripten_glEnable
F4i:__ZN6il2cpp2gc16GarbageCollector29RegisterFinalizerForNewObjectEP12Il2CppObject
OEa:__ZN10TagManager23VirtualRedirectTransferER14SafeBinaryRead
jKh:_MarshalAsAttribute__ctor_m1892084128
Zxc:_UNITY_FT_Init_Class_ft_grays_raster
h6:__ZN14PlayableOutput26ClearInvalidSourcePlayableEv
jQb:__Z15InitLightMeshesv
jfg:__ZL97WaitHandle_t677569169_CustomAttributesCacheGenerator_WaitHandle_t677569169____Handle_PropertyInfoP21CustomAttributesCache
Oze:_KeyValuePair_2_ToString_m1391611625_AdjustorThunk
wn:FUNCTION_TABLE_iifiii
jr:__ZN7mecanim9animation14HasHumanCurvesERKNS0_18ClipMuscleConstantE
RGd:_Double_Parse_m1617409931
CSg:__Z70RuntimeInvoker_Boolean_t3825574718_Int32_t2071877448_Int16_t4041245914PFvvEPK10MethodInfoPvPS4_
QYa:__ZN15QualitySettings8TransferI19StreamedBinaryWriteILb0EEEEvRT_
UFe:_List_1_System_Collections_Generic_IEnumerableU3CTU3E_GetEnumerator_m1503548298_gshared
Nsb:__Z18Transfer_BlittableI19StreamedBinaryWriteILb0EELb1E8Vector2fEvRK29SerializationCommandArgumentsR31RuntimeSerializationCommandInfo
PCc:_cf2_arrstack_init
U8f:__ZL65ClassInterfaceAttribute_t910653559_CustomAttributesCacheGeneratorP21CustomAttributesCache
tQi:__ZN15dense_hashtableINSt3__24pairIK10KeyWrapperINS1_IPK14Il2CppAssemblyP11Il2CppClassEEEjEES9_17ReflectionMapHashIS8_EN14dense_hash_mapIS9_jSD_NS9_14EqualsComparerINS0_8equal_toIS8_EEEENS0_9allocatorISB_EEE9SelectKeyESI_SK_E15insert_noresizeERKSB_
pW:__Z15CleanLogHandler7LogTypePKcz
$db:__ZN9ShaderLab19SerializedSubShader8TransferI19StreamedBinaryWriteILb0EEEEvRT_
lH:__ZN14AudioBehaviour15ThreadedCleanupEv
tFf:_UTF32Encoding_GetBytes_m2290150495
HAb:__ZN6Camera17RemoveImageFilterERK11ImageFilter
yna:__ZNSt3__218__insertion_sort_3IR25ValueParameterArraySorterPN20GpuProgramParameters14ValueParameterEEEvT0_S6_T_
Zzd:_CaseInsensitiveHashCodeProvider_AreEqual_m2456617355
cWg:__Z74RuntimeInvoker_Boolean_t3825574718_HitInfo_t1761367055_HitInfo_t1761367055PFvvEPK10MethodInfoPvPS4_
qLc:__ZZN2UI11CanvasGroup15InitializeClassEvEN38FunctorImpl_117kTransformParentChanged4CallEPviR11MessageData
U5g:_LayoutUtility_GetLayoutProperty_m4052007472
sqa:__ZNSt3__214__split_bufferI20ComputeShaderVariantRNS_9allocatorIS1_EEED2Ev
gsi:__ZL24UnresolvedVirtualCall_97P12Il2CppObjectS0_iS0_iPK10MethodInfo
Sxb:__Z18Transfer_BlittableI18StreamedBinaryReadILb0EELb1E9BoundsIntEvRK29SerializationCommandArgumentsR31RuntimeSerializationCommandInfo
Xbf:_Context_set_WriteSequenceNumber_m3356252710
Wbj:__ZN6il2cpp2vm13ManagedObject7GetIidsEPjPP10Il2CppGuid
eLc:__ZN2UI26InitializeDeviceForOverlayEi
Tje:_Guid_Equals_m2389236871
oY:__Z27LogRepeatingStringWithFlagsRKN4core12basic_stringIcNS_20StringStorageDefaultIcEEEE15LogMessageFlagsi
DCe:_Enumerator_MoveNext_m3483405135_gshared
mt:__ZN17AnimationPlayable28ComputeNeedsBindingRebuildedEv
ss:__ZN17AnimationPlayable23RequestAllocateBindingsEv
TFh:_DefaultComparer__ctor_m2859550749_gshared
UZd:_Array_InternalArray__ICollection_Add_TisMonoResource_t3127387157_m2070096275_gshared
IDe:_List_1_CheckIndex_m3609163576_gshared
Lpg:__ZL62PlayableOutputHandle_t551742311_CustomAttributesCacheGeneratorP21CustomAttributesCache
nJb:__ZNSt3__227__insertion_sort_incompleteIRPFbP10GUIElementS2_EPS2_EEbT0_S7_T_
zdc:__Z41Register_UnityEngine_Input_GetMouseButtonv
VQc:__ZN18UnityConnectClient33OnPlayerSessionStateChangedStaticEPS_jyy
O4f:__ZL74CaseInsensitiveHashCodeProvider_t2307530285_CustomAttributesCacheGeneratorP21CustomAttributesCache
oOf:_UIntPtr__ctor_m3900568171_AdjustorThunk
gxg:__ZL103UISystemProfilerApi_t845863050_CustomAttributesCacheGenerator_UISystemProfilerApi_EndSample_m3264820872P21CustomAttributesCache
mT:__ZNK11UnityEngine15CloudWebService23WebRequestUploadHandler11GetProgressEv
Cfa:__ZN7ApiGLES4LoadE16GfxDeviceLevelGL
MWa:__ZN18StreamedBinaryReadILb0EE21TransferSTLStyleArrayI13dynamic_arrayI31EnlightenSystemAtlasInformationLj8EEEEvRT_17TransferMetaFlags
Fri:__ZL24UnresolvedVirtualCall_68P12Il2CppObject18OpCode_t2247480392S0_PK10MethodInfo
xia:__ZN4crnd12crn_unpacker22decode_color_endpointsEv
M3i:__ZN15dense_hashtableI10KeyWrapperIP18Il2CppGenericClassES3_N6il2cpp8metadata22Il2CppGenericClassHashEN14dense_hash_setIS3_S6_NS3_14EqualsComparerINS5_25Il2CppGenericClassCompareEEENSt3__29allocatorIS3_EEE8IdentityESA_SD_E15insert_noresizeERKS3_
ZZe:_ReadOnlyCollection_1_System_Collections_IList_Clear_m3006875897_gshared
Z1b:__ZZL31RegisterOtherRendererPropertiesR22GenericPropertyBindingEN30Wrapper_RendererReceiveShadows13GetFloatValueEPv
DLg:__Z130RuntimeInvoker_Void_t1841601450_RuntimeObject_Int32U26_t455636984_ByteU26_t1147306860_Int32U26_t455636984_ByteU5BU5DU26_t790777611PFvvEPK10MethodInfoPvPS4_
VCe:_Enumerator_System_Collections_IEnumerator_get_Current_m3866069145_gshared
T8d:_PreviousInfo_t581002487_marshal_pinvoke_cleanup
TDb:__ZN8Material11SetPassFastEPN9ShaderLab4PassER17ShaderPassContextP6Shaderib
nZa:__ZNK13ScreenManager13GetLockCursorEv
TQc:__ZN11UnityEngine7Connect20BasePersistentValues10SaveValuesER9JSONWrite
Gpi:_AudioListener_AddExtension_m2954727157
f9c:_ExecuteEvents_get_pointerDownHandler_m1172742772
j7b:__Z14ScaleCurveTimeR17AnimationCurveTplIfEf
p4:__ZN22VirtualJoystickManagerC2Ev
sKb:__Z12SetupLODFadeR9GfxDeviceR17ShaderPassContextf
_Sa:__ZNK14PlayableOutput7GetTypeEv
WKg:__Z203RuntimeInvoker_Boolean_t3825574718_RuntimeObject_Int32U26_t455636984_Int32_t2071877448_Int32_t2071877448_RuntimeObject_SByte_t454417549_Int32_t2071877448_ContractionU26_t2019974048_ContextU26_t3131521781PFvvEPK10MethodInfoPvPS4_
YPb:__ZL24CollectForwardObjectsJobP27CollectForwardObjectsHeader
LHh:_Enumerator_System_Collections_IDictionaryEnumerator_get_Entry_m345330700_gshared
aIi:__ZNK15dense_hashtableINSt3__24pairIK10KeyWrapperIPK11Il2CppClassEPKcEES6_N6il2cpp5utils11PointerHashIS3_EEN14dense_hash_mapIS6_S9_SE_NS6_14EqualsComparerINS0_8equal_toIS5_EEEENS0_9allocatorISA_EEE9SelectKeyESJ_SL_E12test_deletedERK24dense_hashtable_iteratorISA_S6_SE_SN_SJ_SL_E
wcg:__ZL53HMACSHA256_t2622794722_CustomAttributesCacheGeneratorP21CustomAttributesCache
vTb:__ZNK25CameraStackRenderingState24ResolveTempToEyeTexturesEv
VRb:__Z13IsNodeVisibleRK9SceneNodeRK4AABBRK22SceneCullingParameters
TXf:_EventInfo__ctor_m1190141300
jwh:_InternalEnumerator_1_MoveNext_m3585886944_gshared
ZMc:__Z57RectTransformUtility_CUSTOM_INTERNAL_CALL_PixelAdjustRectP12Il2CppObjectS0_R5RectTIfE
TSb:__Z24ScheduleCullingAllGroupsR8JobFenceRK22SceneCullingParametersiRK13CullingOutputRK13dynamic_arrayIP12CullingGroupLj4EERKS_
zxf:_DelayedFixupRecord_FixupImpl_m4249966635
kzj:_emscripten_glStencilMask__wrapper
vFi:__ZN15dense_hashtableI10KeyWrapperIPK19Il2CppGenericMethodES4_N6il2cpp8metadata23Il2CppGenericMethodHashEN14dense_hash_setIS4_S7_NS4_14EqualsComparerINS6_26Il2CppGenericMethodCompareEEENSt3__29allocatorIS4_EEE8IdentityESB_SE_EC2ERKSH_j
q9d:_BigInteger_ToString_m3837784224
lNd:_Decimal_decimalCompare_m26009298
Tza:__ZNK17ArchiveFileSystem8PositionERK13FileEntryData
zsc:__ZN16NovodexAllocator8allocateEjPKcS1_i
zOd:_DllNotFoundException__ctor_m267198482
xPb:__Z17PrepareShadowMapsRK11CullResultsRK11ActiveLightRK10MinMaxAABB
sCg:__ZL81U3CMouseDragOutsideRectU3Ec__Iterator1_t2599668326_CustomAttributesCacheGeneratorP21CustomAttributesCache
QGf:_NativeEventCalls_CreateEvent_internal_m1605829321
AEe:_List_1_GetIndex_m3409004147_gshared
arg:__ZL73RuntimePlatform_t1869584967_CustomAttributesCacheGenerator_MetroPlayerX64P21CustomAttributesCache
Eqi:__ZL24UnresolvedVirtualCall_13P12Il2CppObjectaPK10MethodInfo
bAh:_InternalEnumerator_1_System_Collections_IEnumerator_get_Current_m3239681450_AdjustorThunk
Qbb:__ZNSt3__26vectorIN9ShaderLab20SerializedSubProgram15VectorParameterENS_9allocatorIS3_EEEC2ERKS6_
VPb:__ZN9ShaderLab10GrabPassesD2Ev
E$a:__ZN14Texture2DArray13UploadTextureEv
g2c:_SecurityFrame_t1002202659_marshal_pinvoke
mAc:_tt_cmap14_done
B7a:__ZN18AwakeFromLoadQueue25RegisterObjectInstanceIDsEv
amg:__ZL75Camera_t189460977_CustomAttributesCacheGenerator_Camera_get_main_m881971336P21CustomAttributesCache
Bud:_Buffer_BlockCopy_m1586717258
Wbg:__ZL93X509Certificate_t283079845_CustomAttributesCacheGenerator_X509Certificate_GetName_m2354987368P21CustomAttributesCache
iw:__ZNK27AnimationLayerMixerPlayable11DerivesFromE17ScriptingClassPtr
Duc:__ZN20TextRenderingPrivate19NativeTextGenerator15InsertCharacterEiPj
fyh:_InternalEnumerator_1__ctor_m3589241961_AdjustorThunk
RRd:_CompareInfo_GetSortKey_m3691382873
uwh:_InternalEnumerator_1_MoveNext_m1791963761_AdjustorThunk
hMd:_DBNull_ToString_m3228904745
kjc:__ZN5IMGUI20MoveWindowFromLayoutER8GUIStateiRK5RectTIfE
WZc:_SHA1Managed_HashCore_m2658295635
Ru:__ZN17AnimationPlayableD0Ev
M7e:_RC4_get_IV_m506011366
G4h:_X509Crl__ctor_m2469408229
Ftb:__Z18Transfer_BlittableI19StreamedBinaryWriteILb0EELb0EyEvRK29SerializationCommandArgumentsR31RuntimeSerializationCommandInfo
g9f:__ZL82SafeHandle_t2733794115_CustomAttributesCacheGenerator_SafeHandle_Close_m1146946803P21CustomAttributesCache
YHh:_Enumerator_get_CurrentValue_m3562053380_AdjustorThunk
Lti:__ZL25UnresolvedVirtualCall_182P12Il2CppObject6Guid_tPK10MethodInfo
Npf:_X509SubjectKeyIdentifierExtension_CopyFrom_m136762226
Psg:__ZL86Logger_t3328995178_CustomAttributesCacheGenerator_Logger_get_filterLogType_m3137240955P21CustomAttributesCache
bBe:_Enumerator_System_Collections_IEnumerator_Reset_m610822832_AdjustorThunk
Q5e:_ASN1_get_Length_m778823697
xwc:__ZN20TextRenderingPrivate15DynamicFontData21GetFontMetricsForFaceERK13dynamic_arrayIN4core17string_with_labelILi35EEELj4EEiRKS1_I4PPtrIN13TextRendering4FontEELj4EEPfSF_
xvc:_UNITY_FT_Open_Face
cvj:_glGenRenderbuffers__wrapper
lae:_BigInteger_op_Division_m1581119694
Nyf:_CallbackHandler_Invoke_m1498072969
sVc:_DSACryptoServiceProvider__ctor_m701823690
c2g:__Z74RuntimeInvoker_Void_t1841601450_Int32_t2071877448_ResourceInfo_t3933049236PFvvEPK10MethodInfoPvPS4_
gRf:_CustomAttributeData_GetCustomAttributes_m2421330738
hff:_SecurityParameters_set_ClientWriteMAC_m1970377285
Sxi:_TextGenerator_GetVerticesInternal_m514005870
y2i:__ZN30dense_hashtable_const_iteratorINSt3__24pairIK10KeyWrapperINS1_IPKcS4_EEEiEES6_24NamespaceAndNamePairHashN14dense_hash_mapIS6_iS9_NS6_14EqualsComparerI26NamespaceAndNamePairEqualsEENS0_9allocatorIS8_EEE9SelectKeyESD_SF_EppEv
sKf:_Type_get_IsEnum_m313908919
ybc:__Z44Register_UnityEngine_Component_get_transformv
pLe:_List_1_Reverse_m3395936565_gshared
tSe:_Collection_1_System_Collections_ICollection_CopyTo_m1335644572_gshared
zB:__ZN12_GLOBAL__N_120ProcessPlayableGraphERN8Animator11AnimatorJobER35AnimationPlayableEvaluationConstantR32AnimationPlayableEvaluationInputR33AnimationPlayableEvaluationOutputPFvS4_R17AnimationPlayableEPFvS4_S6_S8_EPFvS8_S4_S6_S8_fESE_MS9_FvPS3_PS5_PS7_E
kJe:_List_1_CheckMatch_m2830747427_gshared
dGb:__ZN17ArchiveFileSystem12MountArchiveEPKcS1_
kOd:_StackFrame_GetMethod_m72881026
Zmc:__Z18Transfer_BlittableI9JSONWriteLb1E8Vector4fEvRK29SerializationCommandArgumentsR31RuntimeSerializationCommandInfo
sn:FUNCTION_TABLE_viififiii
FFa:__Z30GetScriptableCullingParametersR6CameraR27ScriptableCullingParameters
_fh:_Enumerator_System_Collections_IEnumerator_Reset_m70453843_gshared
sXa:__ZThn32_NK8Renderer14GetSubsetIndexEi
BNg:__Z58RuntimeInvoker_Byte_t3683104436_IntPtr_t_Int32_t2071877448PFvvEPK10MethodInfoPvPS4_
h4d:_Dictionary_2_Do_CopyTo_TisKeyValuePair_2_t1174980068_TisRuntimeObject_m3279061992_gshared
ODg:__ZL59Slider_t297367283_CustomAttributesCacheGenerator_m_MinValueP21CustomAttributesCache
K0b:__ZN13ProduceHelperI15ResourceManagerLb0EE7ProduceE18MemLabelIdentifier18ObjectCreationMode
Dca:__ZN9GfxDevice15ImmediateVertexEfff
q_b:__Z13RegisterClassI8MaterialEvv
pdg:__ZL51Evidence_t1407710183_CustomAttributesCacheGeneratorP21CustomAttributesCache
$Va:__ZNK16LightmapSettings22GetTypeVirtualInternalEv
sfi:_WindowFunction_BeginInvoke_m87819360
bKa:__ZN16GraphicsSettings13AwakeFromLoadE17AwakeFromLoadMode
YQd:_FieldAccessException__ctor_m3893881490
yrc:__ZN8JSONRead21TransferSTLStyleArrayI13dynamic_arrayItLj2EEEEvRT_17TransferMetaFlags
Pp:__ZN6Object13AwakeFromLoadE17AwakeFromLoadMode
_9:__ZN13GfxDeviceGLES15SetStencilStateEPK18DeviceStencilStatei
ZUg:__Z107RuntimeInvoker_Void_t1841601450_Single_t2076509932_Single_t2076509932_Single_t2076509932_Single_t2076509932PFvvEPK10MethodInfoPvPS4_
qlj:_cycle
xkg:__ZL72PKCS12_t1362584795_CustomAttributesCacheGenerator_U3CU3Ef__switchU24map5P21CustomAttributesCache
Cd:_emscripten_glUniform1iv
Aeh:_Text_get_preferredHeight_m452532789
EAi:_AnimationOffsetPlayable_Equals_m1510591175
N3c:_String_System_IConvertible_ToDouble_m3860911722
hjb:__ZN16MemoryFileSystemD2Ev
tEh:_InternalEnumerator_1_get_Current_m3732458101_AdjustorThunk
inh:_Dictionary_2_System_Collections_Generic_ICollectionU3CSystem_Collections_Generic_KeyValuePairU3CTKeyU2CTValueU3EU3E_Contains_m842343255_gshared
e6e:_ARC4Managed__ctor_m2922048522
Ouc:__Z17dynamic_pptr_castIP9Texture2D7TextureET_RK4PPtrIT0_E
M_e:_ReadOnlyCollection_1_System_Collections_IList_set_Item_m1272038804_gshared
vvh:_InternalEnumerator_1_System_Collections_IEnumerator_get_Current_m1931522460_AdjustorThunk
t0c:_SecurityPermission_IsEmpty_m1869313067
hbc:__Z37Register_UnityEngine_Camera_get_depthv
yde:_EncryptedPrivateKeyInfo_get_Salt_m2734354394
M9h:_UsedByNativeCodeAttribute__ctor_m3185822159
I0e:_ReadOnlyCollection_1_System_Collections_Generic_IListU3CTU3E_set_Item_m1918537449_gshared
IRe:_Collection_1_System_Collections_ICollection_CopyTo_m3896480607_gshared
N9c:_PointerEventData_set_position_m794507622
yZh:_UnityEvent_GetDelegate_m1261032859
VZb:__ZN15ApplicationInfo16GetInstallerNameEv
mYb:__Z23ConvertIntegerToTypePtrItEbPvR14SafeBinaryRead
bC:__ZN7mecanim5human29HumanGetGoalOrientationOffsetENS0_4GoalE
Td:_emscripten_glStencilFunc
xqi:__ZL23UnresolvedVirtualCall_6P12Il2CppObjectiPK10MethodInfo
Lph:_DefaultComparer_GetHashCode_m3315096533_gshared
w_f:_MonoMethod_MakeGenericMethod_impl_m2063853616
h2c:__Z46il2cpp_codegen_get_marshal_directive_exceptionPKc
kfb:__ZN9ShaderLab20SerializedSubProgram14AddMatrixParamEPKcii15ShaderParamTypei
Zd:_glGetActiveUniformBlockName
qid:_FontData_set_verticalOverflow_m4211463083
If:_emscripten_glUniform1fv
$je:_Guid_AppendByte_m2890893073
Nvd:_Char_System_IConvertible_ToType_m3106771703_AdjustorThunk
Qrf:_Interval_Intersects_m3480157390_AdjustorThunk
Odc:__Z39Quaternion_CUSTOM_INTERNAL_CALL_InverseRK11QuaternionfRS_
VJh:_GCHandle_Alloc_m1063472408
LI:__ZN4FMOD7Channel20set3DConeOrientationEP11FMOD_VECTOR
Nzg:__ZL86StandaloneInputModule_t70867863_CustomAttributesCacheGenerator_m_InputActionsPerSecondP21CustomAttributesCache
jn:FUNCTION_TABLE_iiifii
dug:__ZL54SkeletonBone_t345082847_CustomAttributesCacheGeneratorP21CustomAttributesCache
EBf:_CryptoConfig_CreateFromName_m391442950
Bzi:_RectTransformUtility_INTERNAL_CALL_PixelAdjustRect_m3338747528
Q5i:__ZN6il2cpp2vm12GenericClass11SetupEventsEP11Il2CppClass
hGc:_tt_delta_interpolate
fAc:_tt_cmap12_get_info
Nhd:_U3CDelayedDestroyDropdownListU3Ec__Iterator0_Dispose_m3973609370
r1i:__ZN6il2cpp2vm15ReboxIReferenceEP14Il2CppIUnknownP11Il2CppClass
nue:_StreamWriter_LowLevelWrite_m4205372900
Wzi:__ZN6il2cpp6icalls8mscorlib6System7Decimal14decimalCompareEP19il2cpp_decimal_reprS5_
_bj:__ZThn4_N6il2cpp2vm13CachedCCWBaseINS0_13ManagedObjectEE7ReleaseEv
MYf:_Module__ctor_m3853650010
qAd:_CollectionBase_System_Collections_IList_get_Item_m2370387510
kbg:__ZL59RemotingException_t109604560_CustomAttributesCacheGeneratorP21CustomAttributesCache
R2d:_Array_Sort_TisCustomAttributeNamedArgument_t94157543_m3436077809_gshared
owj:_glCopyTexImage2D__wrapper
$od:_LayoutElement__ctor_m789941073
nyg:__ZL77ExecuteEvents_t1693084770_CustomAttributesCacheGenerator_U3CU3Ef__mgU24cache9P21CustomAttributesCache
x8f:__ZL68TargetInvocationException_t4098620458_CustomAttributesCacheGeneratorP21CustomAttributesCache
rig:__ZL56RankException_t1539875949_CustomAttributesCacheGeneratorP21CustomAttributesCache
RW:__GLOBAL__sub_I_runtime_graphics_billboard_0_cpp
_Db:__Z18ClearByDrawingQuad13GfxClearFlagsRK10ColorRGBAffjR17ShaderPassContext
CMh:_DynamicPropertyCollection_FindProperty_m1233265924
tla:__ZN6prcoreL17RemapGenericFloatI14TexFormatRHalf15TexFormatRFloatEEvPKNS_9InnerInfoE
hKb:__Z16ShouldUseShadowsb
a6:__ZN15DirectorManager21RebuildStageCallbacksEv
lEb:__ZN19RuntimeSceneManager9LoadSceneERKN4core12basic_stringIcNS0_20StringStorageDefaultIcEEEES6_S6_RK9UnityGUIDiNS_11LoadingModeE
Wqi:__ZL24UnresolvedVirtualCall_31P12Il2CppObjectiS0_S0_PK10MethodInfo
pxg:__ZL115CanvasRenderer_t261436805_CustomAttributesCacheGenerator_CanvasRenderer_INTERNAL_CALL_EnableRectClipping_m610385697P21CustomAttributesCache
Dma:__ZN7ApiGLES10DrawArraysE16GfxPrimitiveTypejjj
jG:__ZN10SampleClip13LoadBaseSoundEv
e8h:_RectOffset_get_left_m1496351507
PNg:__Z49RuntimeInvoker_TimeSpan_t3430258949_RuntimeObjectPFvvEPK10MethodInfoPvPS4_
CP:__Z57AudioSource_CUSTOM_INTERNAL_CALL_ClearExtensionPropertiesP12Il2CppObjectRK12PropertyName
T4i:__ZN15dense_hashtableINSt3__24pairIK10KeyWrapperIP12Il2CppObjectEN6il2cpp2gc9CachedCCWEEES5_NS7_5utils11PointerHashIS3_EEN14dense_hash_mapIS5_S9_SD_NS5_14EqualsComparerINS0_8equal_toIS4_EEEENS0_9allocatorISA_EEE9SelectKeyESI_SK_E15insert_noresizeERKSA_
DVe:_Collection_1_Contains_m643401393_gshared
vSa:__ZN22DeviceMVPMatricesStateC2ER9GfxDevice
ypg:__ZL111Object_t1021602117_CustomAttributesCacheGenerator_Object_DestroyImmediate_m3250094537____allowDestroyingAssets1P21CustomAttributesCache
F3c:_String__ctor_m372528291
Vm:FUNCTION_TABLE_iifii
YZa:__ZNSt3__26vectorI13dynamic_arrayI8Vector2fLj4EENS_9allocatorIS3_EEE6assignINS_11__wrap_iterIPS3_EEEENS_9enable_ifIXaasr21__is_forward_iteratorIT_EE5valuesr16is_constructibleIS3_NS_15iterator_traitsISC_E9referenceEEE5valueEvE4typeESC_SC_
PG:__GLOBAL__sub_I_runtime_video_0_cpp
iDf:_Encoding_SetFallbackInternal_m1682842442
AZh:_UnityEvent_FindMethod_Impl_m947332673
Fya:__ZNSt3__26__treeIiNS_4lessIiEE13stl_allocatorIiL18MemLabelIdentifier1ELi16EEE7destroyEPNS_11__tree_nodeIiPvEE
gc:invoke_viiifi
Eqg:__ZL139AttributeHelperEngine_t958797062_CustomAttributesCacheGenerator_AttributeHelperEngine_GetParentTypeDisallowingMultipleInclusion_m3087158272P21CustomAttributesCache
lxe:_LongComparer_Compare_m3981323622
wLi:__ZNSt3__214__split_bufferIP11Il2CppClassRNS_9allocatorIS2_EEEC2EjjS5_
Ved:_ContentSizeFitter_get_horizontalFit_m892469688
DFg:__ZL109LayoutUtility_t4076838048_CustomAttributesCacheGenerator_LayoutUtility_U3CGetFlexibleHeightU3Em__7_m947156537P21CustomAttributesCache
Oce:__ZN23InterfaceActionInvoker2IP8String_tP12Il2CppObjectE6InvokeEjP11Il2CppClassS3_S1_S3_
pdh:_Slider_FindSelectableOnUp_m15474611
Gya:__ZNK11AssetBundle14GetPreloadDataEiR13dynamic_arrayIiLj4EE
Gee:_EncryptedData_get_EncryptedContent_m2732115576
mpg:__ZL70Time_t31991979_CustomAttributesCacheGenerator_Time_get_time_m518788937P21CustomAttributesCache
Uci:_Vector3__ctor_m2761639014
gf:_JS_Sound_SetPosition
EQh:_Assertion_set_FalseExpression_m1781616372
Jpf:_X509SubjectKeyIdentifierExtension_FromHexChars_m2515150420
EOa:__ZN19RenderBufferManager13GetTempBufferEii17DepthBufferFormat19RenderTextureFormatj22RenderTextureReadWrite14VRTextureUsagei23RenderTextureMemoryless
jIi:__ZL13GetSharedInstPK17Il2CppGenericInst
A3f:__ZL51IReflect_t3412036974_CustomAttributesCacheGeneratorP21CustomAttributesCache
Nbd:_StandaloneInputModule_SendSubmitEventToSelectedObject_m3421155293
u6h:_Quaternion_Equals_m798965363_AdjustorThunk
sRb:__Z17PrepareSceneNodesP11CullResults
Cyi:_Canvas_get_sortingLayerID_m137448982
oOh:_CallContextRemotingData_Clone_m2226242476
k$:__Z63ThreadAndSerializationSafeCheckSetMonoBehaviourBeingTransferredP13MonoBehaviour
$Pb:__Z24SetupActiveLightsContextR21ActiveLightingContextRK12ActiveLightsRK11CullResultsP14ShadowMapCacheRK10MinMaxAABB
Znh:_Dictionary_2_System_Collections_Generic_ICollectionU3CSystem_Collections_Generic_KeyValuePairU3CTKeyU2CTValueU3EU3E_Contains_m3400497673_gshared
ofc:__Z38Sprite_CUSTOM_INTERNAL_get_textureRectP12Il2CppObjectP5RectTIfE
eMd:_DBNull_System_IConvertible_ToUInt32_m2681284284
OVi:__ZNK15dense_hashtableINSt3__24pairIK10KeyWrapperIPK22Il2CppGenericParameterEPK24MonoGenericParameterInfoEES6_N6il2cpp5utils11PointerHashIS4_EEN14dense_hash_mapIS6_SA_SF_NS6_14EqualsComparerINS0_8equal_toIS5_EEEENS0_9allocatorISB_EEE9SelectKeyESK_SM_E3endEv
P8b:__ZN9TextAsset7SetTextERKN4core12basic_stringIcNS0_20StringStorageDefaultIcEEEE
vIa:__ZN6Camera8TransferI24GenerateTypeTreeTransferEEvRT_
Dsh:_EqualityComparer_1__cctor_m416314417_gshared
Ha:invoke_iiiiiiif
Ea:invoke_iiiiiiii
aof:_X509ChainElementCollection_Contains_m3599995067
sTb:__ZN8Renderer17PendingAddToSceneEv
jAj:b123
iAj:b122
mAj:b125
kAj:b124
vAj:b127
rAj:b126
Gec:__Z52Register_UnityEngine_RectTransform_INTERNAL_get_rectv
b_:__Z21PostprocessStacktracePKcRN4core12basic_stringIcNS1_20StringStorageDefaultIcEEEE
vKe:_List_1_ToArray_m2390522926_gshared
p9f:__ZL70TypeLibImportClassAttribute_t2390314680_CustomAttributesCacheGeneratorP21CustomAttributesCache
n5a:__ZN18StreamedBinaryReadILb0EE21TransferSTLStyleArrayI13dynamic_arrayI16SplashScreenLogoLj4EEEEvRT_17TransferMetaFlags
Geb:__ZNSt3__26vectorIPN9ShaderLab9SubShaderENS_9allocatorIS3_EEE21__push_back_slow_pathIKS3_EEvRT_
NUd:_Array_InternalArray__ICollection_Remove_TisX509ChainStatus_t4278378721_m4127982424_gshared
rbc:__Z47Register_UnityEngine_Camera_get_allCamerasCountv
cxg:__ZL92Canvas_t209405766_CustomAttributesCacheGenerator_Canvas_GetDefaultCanvasMaterial_m4265316988P21CustomAttributesCache
qVc:___clang_call_terminate
Hx:__ZThn148_NK26AnimatorControllerPlayable24HasStateMachineBehaviourEv
kOc:__ZN22BaseUnityConnectClient20StartEventDispatcherEv
C6b:__ZNSt3__26vectorIj13stl_allocatorIjL18MemLabelIdentifier1ELi16EEE6assignIPKtEENS_9enable_ifIXaasr21__is_forward_iteratorIT_EE5valuesr16is_constructibleIjNS_15iterator_traitsIS9_E9referenceEEE5valueEvE4typeES9_S9_
RA:__ZN7mecanim9animation16EvaluateAvatarIKEPKNS0_14AvatarConstantEPKNS0_11AvatarInputEPNS0_12AvatarOutputEPNS0_12AvatarMemoryEPNS0_15AvatarWorkspaceEb
bna:__ZL25ProgramUniformMatrix4x3fvPK7ApiGLESjiihPKv
FXb:__Z29StdTemplateConversionFunctionIsiEbPvR14SafeBinaryRead
qHb:__ZN12InputManager13InputEndFrameEv
pCd:_SyncHashtable__ctor_m2029869827
JKi:__ZNSt3__26__treeIP11Il2CppClassNS_4lessIS2_EENS_9allocatorIS2_EEE25__emplace_unique_key_argsIS2_JRKS2_EEENS_4pairINS_15__tree_iteratorIS2_PNS_11__tree_nodeIS2_PvEEiEEbEERKT_DpOT0_
_Yi:__ZN6il2cpp2vm6Thread5SetupEP12Il2CppThread
X1e:_ReadOnlyCollection_1_System_Collections_IList_Remove_m2200089035_gshared
DRe:_Collection_1_CheckWritable_m2756357359_gshared
vmj:___munmap
umd:_InputField_get_characterLimit_m2386380888
zAg:__ZL68ColorBlock_t2652774230_CustomAttributesCacheGenerator_m_PressedColorP21CustomAttributesCache
zHd:_Convert_ToInt64_m1722087499
_f:_localtime_r
qfg:__ZL81AppDomain_t2719102437_CustomAttributesCacheGenerator_assembly_resolve_in_progressP21CustomAttributesCache
b9f:__ZL65InterfaceTypeAttribute_t4113096249_CustomAttributesCacheGeneratorP21CustomAttributesCache
bg:_strftime
tpa:__ZN7Texture33SetStoredColorSpaceNoDirtyNoApplyE17TextureColorSpace
L2:__ZN12FileAccessorD2Ev
yIa:__ZN10ColorRGBAf8TransferI18StreamedBinaryReadILb0EEEEvRT_
HMa:__ZN14VertexDataInfoC2Ev
e8i:__ZN6il2cpp2gc16GarbageCollector14CollectALittleEv
Myh:_InternalEnumerator_1_get_Current_m2415979394_gshared
Ovb:__ZL17Transfer_GUIStyleI18StreamedBinaryReadILb1EELb1EEvRK29SerializationCommandArgumentsR31RuntimeSerializationCommandInfo
pah:_ScrollRect_SetDirtyCaching_m1491302821
cLi:__ZN6il2cpp6icalls8mscorlib6SystemL9IsPrivateEPK12PropertyInfo
xug:__ZL122AudioListener_t1996719162_CustomAttributesCacheGenerator_AudioListener_INTERNAL_CALL_ReadExtensionPropertyName_m3421262708P21CustomAttributesCache
iRf:_CustomAttributeData_GetCustomAttributes_m3258419955
X$h:_Matrix4x4_GetColumn_m83396621
rZ:__ZN9shadertag10InitializeEv
uKb:__ZN13BatchRenderer20RenderSingleWithPassER17ShaderPassContextPK18SharedMaterialDataP6ShaderPN9ShaderLab4PassEiPKNS7_10GrabPassesEjib15BatchBreakCause
Y2g:__Z71RuntimeInvoker_CustomAttributeNamedArgument_t94157543_Int32_t2071877448PFvvEPK10MethodInfoPvPS4_
yCf:_EncoderFallback__ctor_m1639180960
HFh:_InternalEnumerator_1_MoveNext_m1441038493_gshared
NYa:__ZN15QualitySettings14QualitySetting8TransferI24GenerateTypeTreeTransferEEvRT_
__d:_Array_InternalArray__ICollection_CopyTo_TisParameterModifier_t1820634920_m4127516211_gshared
nCf:_DecoderReplacementFallback__ctor_m2344783488
Dze:_OutOfMemoryException__ctor_m239206850
gai:_Sprite_get_rect_m3985037234
Pid:_GraphicRegistry_UnregisterGraphicForCanvas_m820096873
DHc:__Z28Font_Get_Custom_PropMaterialP12Il2CppObject
dyg:__ZL65EventTrigger_t1967201810_CustomAttributesCacheGenerator_delegatesP21CustomAttributesCache
SSe:_Collection_1_Remove_m4136193368_gshared
z8c:_EventTrigger_OnPointerUp_m2791622548
O2g:__Z60RuntimeInvoker_DictionaryEntry_t3048875398_Int32_t2071877448PFvvEPK10MethodInfoPvPS4_
ych:_Shadow_set_useGraphicAlpha_m141905402
I5b:__ZN22BlockMemoryCacheWriter14LockCacheBlockEjPPhS1_
Y8i:__ZN6il2cpp2os6Thread10RunWrapperEPv
Ric:__ZNSt3__218__insertion_sort_3IRPFbPKN5IMGUI9GUIWindowES4_EPPS2_EEvT0_SA_T_
Zni:_GenericEqualityComparer_1_Equals_m1109000020_gshared
dwg:__ZL61GUISkin_t1436893342_CustomAttributesCacheGenerator_m_textAreaP21CustomAttributesCache
PUf:_GenericTypeParameterBuilder_HasElementTypeImpl_m2592272488
Jqc:__Z22TransferField_NonArrayI8JSONRead27Converter_SimpleNativeClassI8GUIStyleEEvRK23StaticTransferFieldInfoR31RuntimeSerializationCommandInfoRT0_
xFi:__ZN15dense_hashtableI10KeyWrapperIPK19Il2CppGenericMethodES4_N6il2cpp8metadata23Il2CppGenericMethodHashEN14dense_hash_setIS4_S7_NS4_14EqualsComparerINS6_26Il2CppGenericMethodCompareEEENSt3__29allocatorIS4_EEE8IdentityESB_SE_E16reset_thresholdsEv
rEe:__ZN23InterfaceActionInvoker2IP24ObjectU5BU5D_t3614634134iE6InvokeEjP11Il2CppClassP12Il2CppObjectS1_i
Hg:_llvm_eh_typeid_for
h_b:__Z13RegisterClassI10GameObjectEvv
CGi:__ZNK15dense_hashtableINSt3__24pairIK10KeyWrapperIN6il2cpp5utils13dynamic_arrayIPK10Il2CppTypeLj4EEEEPFvvEEESA_NS3_8metadata19Il2CppSignatureHashEN14dense_hash_mapISA_SD_SG_NSA_14EqualsComparerINSF_22Il2CppSignatureCompareEEENS0_9allocatorISE_EEE9SelectKeyESK_SM_E5beginEv
c5f:__ZL53HashValues_t2390200547_CustomAttributesCacheGeneratorP21CustomAttributesCache
Mmf:_X509BasicConstraintsExtension_get_PathLengthConstraint_m3004531343
Cy:__ZNK23AnimationPlayableOutput7GetTypeEv
O6f:__ZL125GenericTypeParameterBuilder_t1370236603_CustomAttributesCacheGenerator_GenericTypeParameterBuilder_GetConstructors_m103067670P21CustomAttributesCache
Ugi:_GUIUtility_BeginGUI_m2381890998
uwe:_MissingMemberException__ctor_m4277447068
yEe:_List_1_Find_m1881447651_gshared
J7b:__Z26scripting_class_has_parent17ScriptingClassPtrS_
byb:__Z18Transfer_BlittableI18StreamedBinaryReadILb0EELb1E8Vector4fEvRK29SerializationCommandArgumentsR31RuntimeSerializationCommandInfo
fni:_EqualityComparer_1__ctor_m3155445483_gshared
n7i:__ZN6il2cpp2vm6Method8GetParamEPK10MethodInfoj
coe:_Int64_CompareTo_m1953686218
uni:_GenericComparer_1__ctor_m221205314_gshared
VYg:__Z31RuntimeInvoker_Axis_t2427050347PFvvEPK10MethodInfoPvPS4_
Myj:_glBindVertexArray__wrapper
jVc:_DSA_Create_m3450041777
JQa:__ZN8Material8TransferI14SafeBinaryReadEEvRT_
ITa:__ZN12CubemapArray17UploadToGfxDeviceEv
Rah:_ScrollRect_AdjustBounds_m1033723448
iWb:__ZN18ScreenManagerWebGL13SetShowCursorEb
zWe:_Collection_1_get_Item_m3791221403_gshared
Gcg:__ZL54PaddingMode_t3032142640_CustomAttributesCacheGeneratorP21CustomAttributesCache
KYi:__ZN24dense_hashtable_iteratorINSt3__24pairIK10KeyWrapperIP11Il2CppClassES4_EES5_N6il2cpp8metadata16SZArrayClassHashEN14dense_hash_mapIS5_S4_SA_NS5_14EqualsComparerINS9_19SZArrayClassCompareEEENS0_9allocatorIS7_EEE9SelectKeyESE_SG_E30advance_past_empty_and_deletedEv
Y3:__ZN13RuntimeStaticI21AssetReferenceStorageLb0EE16StaticInitializeEPv
ynf:_X509Chain_CheckRevocationOnChain_m2441901351
Tbj:__ZN6il2cpp2vm13ManagedObject14QueryInterfaceERK10Il2CppGuidPPv
WKf:_Type_GetMethod_m3650909507
HG:__ZN11AudioSource4StopEb
Ykj:_frexp
Inb:__ZN14SafeBinaryRead21TransferSTLStyleArrayI13dynamic_arrayI10Matrix4x4fLj4EEEEvRT_17TransferMetaFlags
EWe:_Collection_1_CheckWritable_m732350052_gshared
kJa:__ZN15LODGroupManager26CollectAllLODGroupManagersERK16CoreCameraValuesR13dynamic_arrayIPS_Lj4EEb
Oud:_Byte_System_IConvertible_ToDecimal_m1036493607
hfg:__ZL47Timer_t791717973_CustomAttributesCacheGeneratorP21CustomAttributesCache
IDb:__Z25GetSplashScreenBackgroundRK5RectTIfE
Twh:_InternalEnumerator_1_System_Collections_IEnumerator_get_Current_m1679297177_gshared
GBg:__ZL65Image_t2042527209_CustomAttributesCacheGenerator_m_PreserveAspectP21CustomAttributesCache
dGh:_DefaultComparer_Compare_m1247109616_gshared
mIh:_ResourceManager__ctor_m498829021
hsa:__ZN18GlslGpuProgramGLESD2Ev
IVb:__ZN13RenderTexture14SetVolumeDepthEi
a0g:__Z88RuntimeInvoker_Int32_t2071877448_UIVertex_t1204258818_UIVertex_t1204258818_RuntimeObjectPFvvEPK10MethodInfoPvPS4_
Oyf:_SerializationCallbacks__ctor_m722356782
nrc:__ZN10Matrix4x4f8TransferI8JSONReadEEvRT_
Btc:__ZN14SafeBinaryRead21TransferSTLStyleArrayI13dynamic_arrayIN4core17string_with_labelILi35EEELj4EEEEvRT_17TransferMetaFlags
s7h:_Rect_set_width_m2294291744
c9f:__ZL49Marshal_t785896760_CustomAttributesCacheGeneratorP21CustomAttributesCache
__:__ZN17PersistentManager18ReadObjectThreadedEi
tea:__ZN25TransformFeedbackSkinning31CleanupTransformFeedbackShadersEv
$Ia:__Z22scripting_object_unbox18ScriptingObjectPtr
Fuc:__ZNK20TextRenderingPrivate8FontImpl19GetCharacterAdvanceEjijfPj
Yhj:__ZN6il2cpp6icalls8mscorlib4Mono8Security12Cryptography18KeyPairPersistence16_IsUserProtectedEP12Il2CppString
T$e:_ReadOnlyCollection_1_Contains_m3936562733_gshared
kjf:_DefaultUriParser__ctor_m4218024811
HSf:_DerivedType_GetField_m3960169619
GMd:_Decimal_System_IConvertible_ToInt16_m3159038792_AdjustorThunk
_Gg:__Z59RuntimeInvoker_Int64_t909078037_RuntimeObject_RuntimeObjectPFvvEPK10MethodInfoPvPS4_
B3g:__Z41RuntimeInvoker_KeyValuePair_2_t3716250094PFvvEPK10MethodInfoPvPS4_
B_a:__ZN10VertexData8TransferI18StreamedBinaryReadILb0EEEEvRT_
yWg:__Z73RuntimeInvoker_Single_t2076509932_Vector4_t2243707581_Vector4_t2243707581PFvvEPK10MethodInfoPvPS4_
Wui:_OnCommandSentHandler__ctor_m3467892046
jfe:_PKCS12_GetExistingParameters_m2413397265
Rvi:_Nullable_1_get_Value_m1743067844_gshared
RUe:_Collection_1_ClearItems_m4268731177_gshared
l7a:__ZN14PreloadManager16UpdatePreloadingEv
pFa:__ZN12BaseRendererD2Ev
v2h:_X509CertificateCollection__ctor_m858704242
RCe:_Enumerator__ctor_m425576865_AdjustorThunk
U1e:_ReadOnlyCollection_1_System_Collections_IList_Contains_m1545447998_gshared
p9i:__ZN14dense_hash_mapI10KeyWrapperIPK19Il2CppGenericMethodEP10MethodInfoN6il2cpp8metadata23Il2CppGenericMethodHashENS4_14EqualsComparerINS8_26Il2CppGenericMethodCompareEEENSt3__29allocatorINSD_4pairIKS4_S6_EEEEEC2EjRKS9_RKSC_
YWh:_Color32_op_Implicit_m3337994915
cV:__ZNK21UnityDefaultAllocatorI17LowLevelAllocatorE8ContainsEPKv
tJi:__ZNSt3__213__vector_baseI6pollfdNS_9allocatorIS1_EEED2Ev
sbf:_ClientSessionInfo_get_Id_m3046630969
Rh:_emscripten_get_main_loop_timing
vqe:_DirectoryInfo__ctor_m3750996792
cdd:_BaseMeshEffect_ModifyMesh_m2134816219
a2d:_Array_qsort_TisVector2_t2243707579_m3527759534_gshared
MYa:__ZN24GenerateTypeTreeTransfer21TransferSTLStyleArrayINSt3__26vectorIN15QualitySettings14QualitySettingENS1_9allocatorIS4_EEEEEEvRT_17TransferMetaFlags
t9h:_ResourceRequest_t2560315377_marshal_pinvoke_cleanup
FKe:_List_1_System_Collections_Generic_IEnumerableU3CTU3E_GetEnumerator_m166627113_gshared
r3a:__ZNSt3__26vectorI9InputAxisNS_9allocatorIS1_EEE6resizeEj
AXd:__ZN21InterfaceFuncInvoker2Ii19Vector2_t2243707579S0_E6InvokeEjP11Il2CppClassP12Il2CppObjectS0_S0_
BKb:__ZN13BatchRendererC2ER15RenderLoopStatsRK15RenderNodeQueuebbb
A0c:_SecurityElement_IsValidAttributeValue_m483287146
_9h:_FormerlySerializedAsAttribute__ctor_m3044655632
Agb:__ZNK2UI13RectTransform22GetTypeVirtualInternalEv
ufg:__ZL56AppDomainSetup_t611332832_CustomAttributesCacheGeneratorP21CustomAttributesCache
$o:getTempRet0
uqd:_ArithmeticException__ctor_m104771799
R_g:__Z79RuntimeInvoker_Boolean_t3825574718_ContentTypeU26_t1802785839_Int32_t2071877448PFvvEPK10MethodInfoPvPS4_
AQf:_AssemblyTitleAttribute__ctor_m1696431446
nji:_UnityEvent_1_RemoveListener_m2146288709_gshared
Eld:_Image_AddQuad_m1603575622
V9i:__ZN24dense_hashtable_iteratorINSt3__24pairIK10KeyWrapperIPK19Il2CppGenericMethodEP10MethodInfoEES6_N6il2cpp8metadata23Il2CppGenericMethodHashEN14dense_hash_mapIS6_S9_SD_NS6_14EqualsComparerINSC_26Il2CppGenericMethodCompareEEENS0_9allocatorISA_EEE9SelectKeyESH_SJ_E30advance_past_empty_and_deletedEv
H7e:_PrivateKeyInfo_RemoveLeadingZero_m3396807048
lYe:_ReadOnlyCollection_1_System_Collections_Generic_ICollectionU3CTU3E_get_IsReadOnly_m1251192075_gshared
pEe:_List_1_GrowIfNeeded_m185971996_gshared
x_i:__ZN6il2cpp6icalls8mscorlib6System9ThreadingL21lookup_cached_cultureEP12Il2CppThreadi
UQb:__ZN18DeferredRenderLoopD2Ev
MUf:_GenericTypeParameterBuilder_GetMethods_m1243855818
Yua:__ZNK16TypeTreeIterator4NameEv
_oi:_PCMReaderCallback_Invoke_m877950113
ysg:__ZL90PlayableBinding_t2498078091_CustomAttributesCacheGenerator_U3CstreamTypeU3Ek__BackingFieldP21CustomAttributesCache
j2:__ZN15FileSystemEntry3SetEPKc
gFh:_InternalEnumerator_1__ctor_m2808001655_gshared
_Wc:_MACTripleDES__ctor_m884945242
p9h:_RenderTexture_get_height_m428170183
tac:__Z52Register_UnityEngine_Application_set_targetFrameRatev
fgi:_GUILayoutGroup_SetHorizontal_m4089360220
uI:__ZN20SoundChannelInstance15ParameterBuffer5ApplyEPN4FMOD7ChannelE
Cuc:__ZN20TextRenderingPrivate19NativeTextGenerator9InsertTabEv
O1f:__ZL73Enum_t2459695545_CustomAttributesCacheGenerator_Enum_ToObject_m1688724857P21CustomAttributesCache
T0a:__ZN14SafeBinaryRead21TransferSTLStyleArrayI13dynamic_arrayI16BlendShapeVertexLj4EEEEvRT_17TransferMetaFlags
LOc:__ZN11UnityEngine15PlatformWrapper24GetRuntimePlatformStringEv
Ai:_glIsEnabled
kab:__ZN15CacheWriterBaseD2Ev
RDg:__ZL56Slider_t297367283_CustomAttributesCacheGenerator_m_ValueP21CustomAttributesCache
ymb:__Z25scripting_class_get_image17ScriptingClassPtr
p5h:_PlayableAsset_Internal_CreatePlayable_m2166162235
V6a:__ZNSt3__26vectorIN4core12basic_stringIcNS1_20StringStorageDefaultIcEEEE13stl_allocatorIS5_L18MemLabelIdentifier13ELi16EEEC2INS_11__wrap_iterIPS5_EEEET_SE_RKS8_PNS_9enable_ifIXaasr21__is_forward_iteratorISE_EE5valuesr16is_constructibleIS5_NS_15iterator_traitsISE_E9referenceEEE5valueEvE4typeE
Ei:_emscripten_glDrawElementsInstanced
sx:__ZN26AnimatorControllerPlayable27SetupStateMachineBehavioursEv
h6e:_ARC4Managed_Dispose_m4102232694
B6e:_HMAC_Initialize_m3052649104
Zlf:_OidCollection_get_Item_m1091387424
vgb:__ZN9Transform17MainThreadCleanupEv
lsg:__ZL143UnitySynchronizationContext_t1205147244_CustomAttributesCacheGenerator_UnitySynchronizationContext_InitializeSynchronizationContext_m2786500889P21CustomAttributesCache
wej:_GC_clear_hdr_marks
Mtj:_glScissor__wrapper
Izj:_emscripten_glCreateShader__wrapper
gmd:_InputField_get_caretSelectPositionInternal_m3523572533
tCc:_cff_fd_select_get
I8f:__ZL73CompilationRelaxationsAttribute_t238494011_CustomAttributesCacheGeneratorP21CustomAttributesCache
Log:__ZL86Material_t193706927_CustomAttributesCacheGenerator_Material_GetTextureImpl_m2799453342P21CustomAttributesCache
zeh:_Text_get_minHeight_m1562513104
k7d:_MSCompatUnicodeTable_GetTailoringInfo_m2792223347
Aif:_NameObjectCollectionBase_get_Keys_m446053925
Pi:_emscripten_glGetShaderiv
Fih:_Transform_1__ctor_m353209818_gshared
mZg:__Z30RuntimeInvoker_Axis_t375128448PFvvEPK10MethodInfoPvPS4_
uJ:__ZN4FMOD6System10getVersionEPj
KYd:_Array_InternalArray__IndexOf_TisSByte_t454417549_m1427585061_gshared
mIc:__ZN2UI6Canvas23VirtualRedirectTransferER24GenerateTypeTreeTransfer
uEd:_Decimal_u64_m3991988111
$di:_YieldInstruction_t3462875981_marshal_pinvoke
swi:_Predicate_1_BeginInvoke_m2959352225_gshared
P2h:_X509Certificate_Parse_m1764345628
ENh:_SynchronizationAttribute_GetClientContextSink_m1264319894
Roc:__ZN9JSONWrite8TransferIN4math12int2_storageEEEvRT_PKc17TransferMetaFlags
ntc:__ZN13TextRendering4Font13AwakeFromLoadE17AwakeFromLoadMode
F$h:_Mathf_Pow_m1117712374
HWg:__Z70RuntimeInvoker_Void_t1841601450_Guid_t_RuntimeObject_Int32_t2071877448PFvvEPK10MethodInfoPvPS4_
iba:__ZN9GfxDevice21ReleaseSharedMeshDataEP14SharedMeshData
xge:_SmallXmlParser_Peek_m2814840810
g4a:__ZNSt3__27__sort5IRNS_6__lessINS_4pairIPKN5Unity4TypeE7Hash128EES8_EEPS8_EEjT0_SC_SC_SC_SC_T_
LTe:_Collection_1_ConvertItem_m3168406667_gshared
Ddj:_GC_unreachable_finalize_mark_proc
Zdi:_WaitForSecondsRealtime_get_keepWaiting_m4138104467
EZg:__Z70RuntimeInvoker_Single_t2076509932_Int32_t2071877448_Single_t2076509932PFvvEPK10MethodInfoPvPS4_
T_g:__Z77RuntimeInvoker_Boolean_t3825574718_InputTypeU26_t4050577942_Int32_t2071877448PFvvEPK10MethodInfoPvPS4_
CSe:_Collection_1_System_Collections_ICollection_get_SyncRoot_m2547259708_gshared
yec:__Z43RectTransform_CUSTOM_INTERNAL_get_anchorMaxP12Il2CppObjectP13Vector2fIcall
GIg:__Z50RuntimeInvoker_Void_t1841601450_Single_t2076509932PFvvEPK10MethodInfoPvPS4_
FLd:_DateTimeOffset_get_DateTime_m229084964_AdjustorThunk
TVa:__ZN8Material28UpdateHashesOnPropertyChangeEN9ShaderLab16FastPropertyNameE
gfc:__Z53Register_UnityEngine_SortingLayer_GetLayerValueFromIDv
Rpe:_DirectoryInfo_get_Parent_m1198766078
wth:_EqualityComparer_1_System_Collections_IEqualityComparer_Equals_m349194518_gshared
Wzd:_CaseInsensitiveComparer_Compare_m1192858479
qlb:__Z18Transfer_BlittableI14SafeBinaryReadLb1E8Vector4fEvRK29SerializationCommandArgumentsR31RuntimeSerializationCommandInfo
Cte:_StreamAsyncResult_set_Done_m4272090534
Zpd:_LayoutRebuilder_Clear_m2390054824
XTe:_Collection_1_System_Collections_IList_Insert_m2968289909_gshared
uda:__ZN13GfxDeviceGLES20SetComputeBufferDataE15ComputeBufferIDPKvjj
UQf:_Default_SelectMethod_m622251293
wL:__ZN11AudioSource12AddToManagerEv
Q8c:_ExecuteEvents_Execute_m1429058057
eOh:_AsyncResult_get_NextSink_m1172723924
Zy:__ZN11UnityEngine9Animation32CreateAnimatorGenericBindingsOptERKNS0_20AnimationSetBindingsER9TransformPKN7mecanim9animation14AvatarConstantEPKNS0_21AvatarBindingConstantEbRNS6_6memory9AllocatorER8Animator
X1i:__ZN6il2cpp2vm5Image13ClassFromNameEPK11Il2CppImagePKcS6_
Xpj:dynCall_vdddddd
ldb:__ZN24GenerateTypeTreeTransfer21TransferSTLStyleArrayINSt3__26vectorIN9ShaderLab14SerializedPassENS1_9allocatorIS4_EEEEEEvRT_17TransferMetaFlags
RZ:__ZL32MarkLevelGameManagerDependenciesR27GarbageCollectorThreadState
Bda:__ZNK13GfxDeviceGLES26HasActiveRandomWriteTargetEv
Duj:_glGetActiveUniformsiv__wrapper
dfc:__Z43Register_UnityEngine_Material_EnableKeywordv
g0:__ZN13MonoBehaviour19SetupScriptingCacheE17ScriptingClassPtrP10MonoScript
MJi:__ZNSt3__214__split_bufferIP12Il2CppThreadRNS_9allocatorIS2_EEED2Ev
er:__Z20AnimationEventToMonoRK14AnimationEventR18MonoAnimationEvent
L_:__ZNK15dense_hashtableINSt3__24pairIKiiEEi21InstanceIDHashFunctorN14dense_hash_mapIiiS4_NS0_8equal_toIiEE13stl_allocatorIS3_L18MemLabelIdentifier1ELi16EEE9SelectKeyES7_SA_E13find_positionERS2_
w$:__ZN17PersistentManager29ReadAndActivateObjectThreadedEiRK26SerializedObjectIdentifierP14SerializedFilebb
Ahh:_ShimEnumerator_get_Current_m3610131784_gshared
hOe:_List_1_Sort_m2158253314_gshared
dsg:__ZL74UnityEventBase_t828812576_CustomAttributesCacheGenerator_m_PersistentCallsP21CustomAttributesCache
D6:__ZZN15DirectorManager15InitializeClassEvEN52PreLateUpdateDirectorUpdateAnimationBeginRegistrator7ForwardEv
Eph:_DefaultComparer__ctor_m2265472997_gshared
v0i:__ZN6il2cpp2vm13LivenessState18ShouldProcessValueEP12Il2CppObjectP11Il2CppClass
Cwa:__ZN4PPtrI6SpriteE8TransferI14SafeBinaryReadEEvRT_
f5g:__Z49RuntimeInvoker_UIVertex_t1204258818_RuntimeObjectPFvvEPK10MethodInfoPvPS4_
JNg:__Z52RuntimeInvoker_Void_t1841601450_TimeSpan_t3430258949PFvvEPK10MethodInfoPvPS4_
QXi:__ZN15dense_hashtableINSt3__24pairIK10KeyWrapperIP11Il2CppClassES4_EES5_N6il2cpp8metadata16SZArrayClassHashEN14dense_hash_mapIS5_S4_SA_NS5_14EqualsComparerINS9_19SZArrayClassCompareEEENS0_9allocatorIS7_EEE9SelectKeyESE_SG_E16reset_thresholdsEv
W$h:_Matrix4x4_GetHashCode_m375571566
ghi:_InvokableCall_1__ctor_m1584932671_gshared
Icb:__ZNSt3__26vectorIN9ShaderLab14SerializedPassENS_9allocatorIS2_EEE8__appendEj
Zbb:__ZNSt3__26vectorIN9ShaderLab20SerializedSubProgram13BufferBindingENS_9allocatorIS3_EEEC2INS_11__wrap_iterIPS3_EEEET_SB_RKS5_PNS_9enable_ifIXaasr21__is_forward_iteratorISB_EE5valuesr16is_constructibleIS3_NS_15iterator_traitsISB_E9referenceEEE5valueEvE4typeE
Ubf:_Context_get_SupportedCiphers_m2172827298
$Vh:_Camera__ctor_m2624089815
BZa:__ZNK13ScreenManager21IsMultiDisplayEnabledEv
OZg:__Z133RuntimeInvoker_RuntimeObject_Vector2_t2243707579_Vector2_t2243707579_Single_t2076509932_Int32_t2071877448_RuntimeObject_RuntimeObjectPFvvEPK10MethodInfoPvPS4_
AVa:__ZN9Texture2D23VirtualRedirectTransferER18StreamedBinaryReadILb0EE
TAi:_Animator_get_hasBoundPlayables_m2257984562
ZOd:_Double_System_IConvertible_ToUInt16_m286326038_AdjustorThunk
Wwf:_TypeInfo__ctor_m1475908211
rEi:__ZN30dense_hashtable_const_iteratorINSt3__24pairIK10KeyWrapperIPKcEP11Il2CppClassEES5_N6il2cpp5utils11StringUtils12StringHasherIS4_EEN14dense_hash_mapIS5_S8_SE_NS5_14EqualsComparerINSB_13VmStringUtils21CaseSensitiveComparerEEENS0_9allocatorIS9_EEE9SelectKeyESJ_SL_E30advance_past_empty_and_deletedEv
stg:__ZL73g_UnityEngine_TextRenderingModule_Assembly_CustomAttributesCacheGeneratorP21CustomAttributesCache
P0:__ZN16ScriptingManager27NativeTypeForScriptingClassE17ScriptingClassPtr
znf:_X509Chain_WrapUp_m1072032285
i4h:_X509CertificateEnumerator_System_Collections_IEnumerator_MoveNext_m1448966539
zzc:_get_sfnt_table
gbf:_TlsServerHelloDone__ctor_m2125611008
P9c:_PointerEventData_set_pressPosition_m2094137883
fXa:__ZN8Renderer20RendererAddedToSceneEv
aCf:_DES_get_Key_m2584608215
nSb:__ZL22ScheduleSceneNodesJobsP25ScheduleSceneNodesJobDataj
Dk:_emscripten_set_canvas_size
V4e:_BigInteger_op_Subtraction_m972393015
pcb:__ZNSt3__26vectorIN9ShaderLab20SerializedSubProgramENS_9allocatorIS2_EEE8__appendEj
MV:__ZN20DynamicHeapAllocatorI17LowLevelAllocatorE8AllocateEji
aLb:__ZN20DynamicPropertySheet15SetVectorQueuedERKN9ShaderLab16FastPropertyNameERK8Vector4fN19ShaderPropertySheet8SetFlagsE
m5c:_String_Format_m1263743648
H2f:__ZL69RuntimeArray_CustomAttributesCacheGenerator_Array_Reverse_m3883292526P21CustomAttributesCache
F$e:_ReadOnlyCollection_1_System_Collections_IEnumerable_GetEnumerator_m4248982967_gshared
$z:__ZN7mecanim9animation22EvaluateAvatarRetargetEPKNS0_14AvatarConstantEPKNS0_11AvatarInputEPNS0_12AvatarOutputEPNS0_12AvatarMemoryEPNS0_15AvatarWorkspaceEb
iqd:_LayoutRebuilder_GetHashCode_m2745108660
ENa:__ZN14RenderSettings23VirtualRedirectTransferER19StreamedBinaryWriteILb0EE
onc:__ZL26Transfer_SimpleNativeClassI9JSONWrite10RectOffsetLb0EEvRK29SerializationCommandArgumentsR31RuntimeSerializationCommandInfo
F0a:__ZN14SafeBinaryRead21TransferSTLStyleArrayI13dynamic_arrayI12BoneWeights4Lj16EEEEvRT_17TransferMetaFlags
Xdj:_GC_push_conditional
Cha:__ZN17GenericDynamicVBO10AllocateVBEjR21DynamicVBOChunkHandle
PFe:_List_1_get_Item_m1547593893_gshared
gqe:_Path_GetPathRoot_m1269357080
y3i:__ZN30dense_hashtable_const_iteratorI10KeyWrapperIP18Il2CppGenericClassES3_N6il2cpp8metadata22Il2CppGenericClassHashEN14dense_hash_setIS3_S6_NS3_14EqualsComparerINS5_25Il2CppGenericClassCompareEEENSt3__29allocatorIS3_EEE8IdentityESA_SD_EppEv
VAd:_KeyNotFoundException__ctor_m264393096
c8c:_EventSystem_SetSelectedGameObject_m2211816110
Rih:_Transform_1__ctor_m4161450529_gshared
bl:_glMapBufferRange
sVa:__ZN9Texture2D8TransferI18StreamedBinaryReadILb0EEEEvRT_
gdc:__Z31Input_CUSTOM_GetMouseButtonDowni
STg:__Z41RuntimeInvoker_HandshakeState_t1820731088PFvvEPK10MethodInfoPvPS4_
rec:__Z75Register_UnityEngine_Playables_PlayableHandle_INTERNAL_CALL_IsValidInternalv
D4b:__ZN13PlayableGraph4PlayEv
fEa:__ZNK9Transform16GetLocalPositionEv
Lqd:_Array_System_Collections_ICollection_get_Count_m2897196527
aya:__ZN13LoadOperation19IntegrateTimeSlicedEi
euh:_ArrayReadOnlyList_1_get_Item_m176001975_gshared
nrf:_InterpreterFactory__ctor_m3331468903
Qfe:_X501__cctor_m3795360380
Mda:__ZN13GfxDeviceGLES22DispatchComputeProgramE12ObjectHandleI18ComputeProgram_TagPvE15ComputeBufferIDj
QFb:__ZN20DefaultGfxDeviceImpl32InitStereoGlobalsBuffersPlatformEiijPKv
sOg:__Z60RuntimeInvoker_Void_t1841601450_StreamingContext_t1417235061PFvvEPK10MethodInfoPvPS4_
sHd:_Convert_ToInt32_m2297793940
K8a:__Z17TransformAABBSlowRK4AABBRK10Matrix4x4fRS_
lnf:_X509Chain_Build_m1140429528
_ab:__ZN9ShaderLab21SerializedShaderState8TransferI14SafeBinaryReadEEvRT_
Evi:_Terminal_NotifyCommandHandlers_m2901839470
DZc:_RSAPKCS1SignatureFormatter_SetKey_m2365816458
Uke:_Int16_GetHashCode_m304503362_AdjustorThunk
oDc:_cf2_stack_pushInt
mD:__ZN7mecanim9animation20DestroyLayerConstantEPNS0_13LayerConstantERNS_6memory9AllocatorE
Z5h:_PropertyName__ctor_m4147171238_AdjustorThunk
FGf:_CompressedStack__ctor_m276924800
r9c:_ExecuteEvents_get_cancelHandler_m1964324668
wRa:__ZN15SerializeTraitsINSt3__24pairIN4core12basic_stringIcNS2_20StringStorageDefaultIcEEEES6_EEE8TransferI24GenerateTypeTreeTransferEEvRS7_RT_
bxj:b89
axj:b88
x$h:_Mathf_Sin_m712860563
qvg:__ZL70GUISettings_t622856320_CustomAttributesCacheGenerator_m_SelectionColorP21CustomAttributesCache
fdi:_Vector3_Dot_m827632793
Cwj:b81
Bwj:b80
Jpa:__ZN7ApiGLES19CreateSparseTextureEjj14GraphicsFormatiiiiRiS1_S1_
z1:__ZN18ResourceImageGroup7CleanupEv
Vwj:b85
Uwj:b84
Xwj:b87
Wwj:b86
vp:__ZN11Quaternionf8TransferI24GenerateTypeTreeTransferEEvRT_
T1g:__Z68RuntimeInvoker_Void_t1841601450_Int32_t2071877448_Double_t4078015681PFvvEPK10MethodInfoPvPS4_
J2b:__ZN13ProduceHelperI4MeshLb0EE7ProduceE18MemLabelIdentifier18ObjectCreationMode
F7e:_PrivateKeyInfo_Decode_m1053025782
dpf:_X509ChainElementCollection_System_Collections_ICollection_CopyTo_m1467895312
Tee:_PKCS12_Decrypt_m2457743414
OSa:__ZN8Playable19SetOutputConnectionEPS_i
IDi:__ZN15dense_hashtableINSt3__24pairIK10KeyWrapperIPK11Il2CppClassEPKcEES6_N6il2cpp5utils11PointerHashIS3_EEN14dense_hash_mapIS6_S9_SE_NS6_14EqualsComparerINS0_8equal_toIS5_EEEENS0_9allocatorISA_EEE9SelectKeyESJ_SL_EC2ERKSO_j
Ql:_glDeleteShader
sog:__ZL88Mesh_t1356156583_CustomAttributesCacheGenerator_Mesh_Internal_Create_m384282753____mono0P21CustomAttributesCache
QQd:_Exception_GetType_m3898489832
Bla:__ZN6prcoreL17RemapGenericFloatI15TexFormatRGHalf16TexFormatRGFloatEEvPKNS_9InnerInfoE
uPe:_Stack_1_Peek_m1548778538_gshared
dgi:_GUILayoutUtility_get_spaceStyle_m4248899869
vch:_Shadow_set_effectColor_m3110056844
V8b:__Z27scripting_add_internal_callPKcPKv
o0d:_Array_InternalArray__Insert_TisUriScheme_t1876590943_m2728325409_gshared
iwg:__ZL72GUISkin_t1436893342_CustomAttributesCacheGenerator_m_verticalSliderThumbP21CustomAttributesCache
uWi:__ZN13Il2CppHashMapINSt3__24pairIPK9EventInfoP11Il2CppClassEEj17ReflectionMapHashIS7_ENS0_8equal_toIS7_EENS0_9allocatorINS1_IK10KeyWrapperIS7_EjEEEEEC2EjRKS9_RKSB_
E$h:_Mathf_Max_m2902748112
zpa:__Z17GetPlayerSettingsv
AA:__ZN34BlobWriteTransferSTLStyleArrayImplI22OffsetPtrArrayTransferIiEEclERS1_17TransferMetaFlagsR9BlobWrite
v4h:_X509Store_CheckStore_m1027496478
BUh:_AddComponentMenu__ctor_m686408932
c8f:__ZL82MethodBase_t904190842_CustomAttributesCacheGenerator_MethodBase_Invoke_m1075809207P21CustomAttributesCache
vs:__ZN26AnimatorControllerPlayable18SetLayerAutoWeightEv
ENc:__Z44Register_UnityEngine_Canvas_get_pixelPerfectv
W4c:_String_Contains_m4017059963
y3d:_Array_swap_TisCustomAttributeNamedArgument_t94157543_TisCustomAttributeNamedArgument_t94157543_m3600072996_gshared
LFh:_DefaultComparer_Compare_m1606207039_gshared
RKc:__ZN2UI14CanvasRenderer12SyncMaterialENS0_8SyncFlagE
Qhj:__ZN6il2cpp2vm9Parameter30GetDefaultParameterValueObjectEPK10MethodInfoPK13ParameterInfoPb
Vli:_Action_EndInvoke_m4281032350
b1d:_Array_InternalArray__set_Item_TisLabelData_t3712112744_m2253365137_gshared
cZf:_MonoCMethod_get_Attributes_m3914742834
kSf:_ConstructorBuilder_get_DeclaringType_m4264602248
wef:_RecordProtocol_InternalReceiveRecordCallback_m2228921492
uue:_StringReader__ctor_m643998729
bkf:_IPv6Address_TryParse_m2220524278
epi:_PCMReaderCallback_EndInvoke_m4163012370
Spd:_U3CDelayedSetDirtyU3Ec__Iterator0_System_Collections_Generic_IEnumeratorU3CobjectU3E_get_Current_m2210283424
pzc:_UNITY_tt_face_done_kern
tMh:_Context_get_DefaultContext_m2211922324
eRf:_CustomAttributeData_get_NamedArguments_m708818174
h1a:__ZN12BoneWeights48TransferI24GenerateTypeTreeTransferEEvRT_
W7e:_RSAManaged_GetPaddedValue_m2972141669
ebh:_ScrollRect_OnDrag_m1424848249
mdf:_TlsServerCertificate_ProcessAsSsl3_m277089231
CWd:_Array_InternalArray__IEnumerable_GetEnumerator_TisUInt16_t986882611_m3665860884_gshared
bDb:__Z19scripting_gc_enablev
xGb:__ZZ23InitPlayerLoopCallbacksvEN41InitializationPlayerUpdateTimeRegistrator7ForwardEv
vRh:_AnchorInfo__ctor_m617409099
iXb:__Z29StdTemplateConversionFunctionIihEbPvR14SafeBinaryRead
NUf:_GenericTypeParameterBuilder_GetMethodImpl_m528545634
FMc:__Z55Register_UnityEngine_CanvasRenderer_DisableRectClippingv
Urf:_Interval_CompareTo_m2909556284_AdjustorThunk
G0a:__ZN14SafeBinaryRead21TransferSTLStyleArrayI13dynamic_arrayI11ColorRGBA32Lj4EEEEvRT_17TransferMetaFlags
sta:__ZN9GfxDevice22UploadTextureCubeArrayE9TextureIDPKhjii14GraphicsFormati18TextureUploadFlags
n2f:__ZL87RuntimeArray_CustomAttributesCacheGenerator_Array_CreateInstance_m679102425____lengths1P21CustomAttributesCache
f7g:_Navigation_t1571958496_marshal_pinvoke
Lqf:_Interpreter_GetLastDefined_m2450713313
OQh:_Parser_ParseAssertionType_m3316669790
Veb:__ZN9ShaderLab7Program27CreateFromSerializedProgramERKNS_17SerializedProgramE10ShaderTypeiP16PropertyNamesSetPK6Shader
Ybh:_Selectable_get_isPointerDown_m774209881
S1f:__ZL73Enum_t2459695545_CustomAttributesCacheGenerator_Enum_ToObject_m2460371738P21CustomAttributesCache
pgb:__ZNSt3__27__sort4IRNS_6__lessIN4core12basic_stringIcNS2_20StringStorageDefaultIcEEEES6_EEPS6_EEjT0_SA_SA_SA_T_
Bqj:dynCall_viiiifii
exf:_TypeInfo__ctor_m1219583114
YUi:__ZN6il2cpp2gc19AppendOnlyGCHashMapINSt3__24pairIPK11Il2CppImageP11Il2CppClassEEP22Il2CppReflectionModule17ReflectionMapHashIS9_ENS2_8equal_toIS9_EEEC2Ev
X_:__Z20GetPersistentManagerv
tGc:_UNITY_TT_Set_Var_Design
sMh:_Context_Finalize_m1386439645
CX:__ZN21SystemInfoStringCache16StaticInitializeEPv
r9e:_TlsStream__ctor_m4117943603
LRi:__ZN15dense_hashtableINSt3__24pairIK10KeyWrapperIPK10Il2CppTypeEjEES6_N6il2cpp8metadata14Il2CppTypeHashEN14dense_hash_mapIS6_jSB_NS6_14EqualsComparerINSA_26Il2CppTypeEqualityComparerEEENS0_9allocatorIS8_EEE9SelectKeyESF_SH_E12maybe_shrinkEv
Ndh:_Text_FontTextureChanged_m4236993972
o8i:__ZN6il2cpp2gc16GarbageCollector23MakeDescriptorForObjectEPji
j4i:__ZNK10KeyWrapperIP12Il2CppObjectE14EqualsComparerINSt3__28equal_toIS1_EEEclERKS2_S9_
B$f:_ParameterModifier_t1820634920_marshal_pinvoke
pAb:__ZNK13MonoBehaviour7GetNameEv
Q9a:__ZN19ScriptingInvocation28AdjustArgumentsToMatchMethodEv
K3i:__ZN15dense_hashtableI10KeyWrapperIP18Il2CppGenericClassES3_N6il2cpp8metadata22Il2CppGenericClassHashEN14dense_hash_setIS3_S6_NS3_14EqualsComparerINS5_25Il2CppGenericClassCompareEEENSt3__29allocatorIS3_EEE8IdentityESA_SD_E6insertERKS3_
iG:__Z15_CheckFMODError11FMOD_RESULTPKciS1_
D6c:_AbstractEventData_Use_m1797212290
TLa:__Z20RenderMultipleMeshesRK15RenderNodeQueueRK18RenderMultipleData17ShaderChannelMask
_Ag:__ZL150U3CDelayedDestroyDropdownListU3Ec__Iterator0_t3461999471_CustomAttributesCacheGenerator_U3CDelayedDestroyDropdownListU3Ec__Iterator0_Reset_m3485957852P21CustomAttributesCache
HHg:__Z199RuntimeInvoker_Void_t1841601450_ByteU2AU26_t3544685828_ByteU2AU26_t3544685828_DoubleU2AU26_t3349029_UInt16U2AU26_t1636670495_UInt16U2AU26_t1636670495_UInt16U2AU26_t1636670495_UInt16U2AU26_t1636670495PFvvEPK10MethodInfoPvPS4_
HPi:__ZN6il2cpp2vm4Type19GetGenericParameterEPK10Il2CppType
fMc:__Z51Register_UnityEngine_CanvasGroup_get_blocksRaycastsv
eEh:_InternalEnumerator_1_get_Current_m2826780083_gshared
BUd:_Array_InternalArray__ICollection_Remove_TisCustomAttributeNamedArgument_t94157543_m2838387005_gshared
AFg:__ZL105LayoutUtility_t4076838048_CustomAttributesCacheGenerator_LayoutUtility_U3CGetMinHeightU3Em__4_m1769295917P21CustomAttributesCache
nph:_Dictionary_2_GetEnumerator_m1752238884_gshared
rFh:_InternalEnumerator_1__ctor_m2782443954_AdjustorThunk
rd:_glBeginQuery
OPf:_Assembly_GetCustomAttributes_m95309865
VHb:__ZN6Camera12RenderStereoENS_10RenderFlagE8CullFlagPNS_24PerformEyeRenderFunctionE
Eib:__ZN20LocalFileSystemPosix10ToAbsoluteEPKc
Wjd:_GridLayoutGroup__ctor_m1099847132
XW:__GLOBAL__sub_I_runtime_input_0_cpp
jEd:_Convert_ToBoolean_m48997236
gQd:_Enum_ToObject_m275924358
xm:f0
jwa:__ZN9BehaviourD0Ev
ayd:_ArrayListWrapper_set_Capacity_m2792463350
bLa:__Z32TransferEnumWithNameForceIntSizeI14SafeBinaryRead7HDRModeEvRT_RT0_PKc17TransferMetaFlags
Tlj:_getcwd
JEf:_StringBuilder_Append_m1128243247
wRh:_AnchorInfo_get_Offset_m142119297
kxa:__ZN25ThreadsafeLinearAllocatorD2Ev
gJd:_DateTime_get_Year_m1985210972
d8a:__Z21SendMessageToEveryoneRK17MessageIdentifier11MessageData
Aii:_UnityAction_1_EndInvoke_m902670333_gshared
G4:__ZN21BillboardBatchManager16StaticInitializeEPv
VY:__ZN12_GLOBAL__N_138ArchiveRedirectFileSystemStaticDestroyEPv
HQd:_EventHandler_Invoke_m1137722757
FTa:__ZN12CubemapArray34UpdateFileTextureUploadInstructionEP26FileAssetUploadInstructionj
Rxe:_MonoType_IsSubclassOf_m2211166238
fIh:_TypeFilter_EndInvoke_m997625354
eTe:_Collection_1_System_Collections_ICollection_CopyTo_m2859266050_gshared
Ipa:__Z23CreateSparseTextureGLES9TextureIDii14GraphicsFormati
AGh:_Comparer_1__ctor_m2876014041_gshared
Gej:_GC_continue_reclaim
cpe:_InvalidCastException__ctor_m2730571470
epf:_X509ChainElementCollection_System_Collections_IEnumerable_GetEnumerator_m2559704689
rkg:__ZL86BigInteger_t925946153_CustomAttributesCacheGenerator_BigInteger_op_Implicit_m622924526P21CustomAttributesCache
JAg:__ZL59Dropdown_t1985816271_CustomAttributesCacheGenerator_m_ValueP21CustomAttributesCache
rrf:_InterpreterFactory_set_Gap_m2761943153
umf:_PublicKey_get_Key_m126090744
vvc:__ZNSt3__23mapIN20TextRenderingPrivate7FontRefEP11FT_FaceRec_NS_4lessIS2_EENS_9allocatorINS_4pairIKS2_S4_EEEEEixERS9_
xza:__ZN17ArchiveFileSystem10AddStorageEP20ArchiveStorageReader
bId:_Convert_ToSingle_m690748777
LIi:__ZN6il2cpp2vm13MetadataCache37GetParameterDefaultValueDataFromIndexEi
Drh:_EqualityComparer_1_System_Collections_IEqualityComparer_GetHashCode_m1203798961_gshared
VBi:__ZN6il2cpp2vm5Class15GetEnumBaseTypeEP11Il2CppClass
sqe:_DirectoryNotFoundException__ctor_m3713860966
IUa:__ZNK9Texture2D16GetNpotTexelSizeEv
Mxh:_InternalEnumerator_1__ctor_m245588437_gshared
Wpf:_Capture_get_Text_m3472127896
k6g:_Mask_get_rectTransform_m3304369086
IWg:__Z78RuntimeInvoker_Void_t1841601450_ScriptableRenderContext_t4271526_RuntimeObjectPFvvEPK10MethodInfoPvPS4_
Hha:__ZN9GfxDevice22GetDefaultVertexBufferE26GfxDefaultVertexBufferTypej
Vng:__ZL83Input_t1785128008_CustomAttributesCacheGenerator_Input_get_mousePresent_m1100327283P21CustomAttributesCache
a$e:_ReadOnlyCollection_1_System_Collections_ICollection_CopyTo_m1129689124_gshared
jmj:___fseeko_unlocked
wwj:_glGetActiveUniform__wrapper
bmj:_sscanf
oWe:_Collection_1_Contains_m1999290510_gshared
V0a:__ZN14SafeBinaryRead21TransferSTLStyleArrayINSt3__26vectorI17BlendShapeChannelNS1_9allocatorIS3_EEEEEEvRT_17TransferMetaFlags
bEb:__Z17BeginSplashScreenv
Zdb:__ZN9ShaderLab16SerializedShader8TransferI19StreamedBinaryWriteILb0EEEEvRT_
pMf:_UInt32_Parse_m2400360707
uC:__ZN7mecanim9animation18CreateAvatarMemoryEPKNS0_14AvatarConstantERNS_6memory9AllocatorE
HDd:_Stack_Pop_m3788808882
$Hh:_Enumerator_VerifyCurrent_m4246196125_AdjustorThunk
loh:_Dictionary_2_pick_value_m3484897877_gshared
DYh:_ArgumentCache__ctor_m1191928438
fLd:_DateTime_op_Equality_m1867073872
jB:__ZN7mecanim8skeleton16SkeletonPoseCopyIN4math4trsXENS2_7affineXEEEvPKNS0_13SkeletonPoseTIT_EEPNS5_IT0_EE
ztb:__Z18Transfer_BlittableI19StreamedBinaryWriteILb0EELb0EaEvRK29SerializationCommandArgumentsR31RuntimeSerializationCommandInfo
mha:__ZN18GfxFramebufferGLES18GetFramebufferNameERK20GfxRenderTargetSetup
Fjc:__Z30Event_Get_Custom_PropCharacterP12Il2CppObject
Y5:__ZN13PlayableGraph27SchedulePlayableDestructionERK9HPlayable
Gtj:_glGetFramebufferAttachmentParameteriv__wrapper
JSc:__Z13RegisterClassI20UnityConnectSettingsEvv
vmb:__Z22scripting_array_length17ScriptingArrayPtr
w0c:_SecurityElement_GetAttribute_m4288291176
nUh:_UriParser_get_DefaultPort_m1377931533
hki:_IndexedSet_1_get_Count_m2839545138_gshared
TTa:__ZN14SafeBinaryRead20TransferTypelessDataEjPvi
L8f:__ZL66StringFreezingAttribute_t2691375565_CustomAttributesCacheGeneratorP21CustomAttributesCache
ZJe:_List_1_AddCollection_m3284813601_gshared
ZAc:_Horizontal_Sweep_Init
gEg:__ZL102ToggleGroup_t1030026315_CustomAttributesCacheGenerator_ToggleGroup_U3CActiveTogglesU3Em__1_m4052653494P21CustomAttributesCache
NM:__ZN13dynamic_arrayI12SoundChannelLj4EE9push_backERKS0_
hpa:__Z19GetActiveColorSpacev
Wrh:_EqualityComparer_1__cctor_m1672307556_gshared
svf:_SoapTypeAttribute_get_IsInteropXmlElement_m2941294827
Iyc:_UNITY_tt_face_load_kern
zCe:_Enumerator_System_Collections_IEnumerator_get_Current_m3542273247_gshared
rwd:_Char_System_IConvertible_ToUInt32_m1557991717_AdjustorThunk
ODf:_Encoding_get_UTF8Unmarked_m628720656
Wle:_NumberFormatter_RoundBits_m1545255255
nY:__Z6StrCmpPKcS0_
cOg:__Z119RuntimeInvoker_Void_t1841601450_RuntimeObject_Int64U26_t763825331_ObjectU26_t597476745_SerializationInfoU26_t4051840202PFvvEPK10MethodInfoPvPS4_
Dfb:__Z21CheckGpuProgramUsable20ShaderGpuProgramType
DQf:_Binder__cctor_m3736115807
w7i:__ZN6il2cpp2os9Directory20GetFileSystemEntriesERKNSt3__212basic_stringIcNS2_11char_traitsIcEENS2_9allocatorIcEEEESA_iiPi
Y$g:__Z84RuntimeInvoker_Int32_t2071877448_Color32_t874517518_Color32_t874517518_RuntimeObjectPFvvEPK10MethodInfoPvPS4_
gph:_Dictionary_2_OnDeserialization_m2160537783_gshared
Msd:_Attribute_GetHashCode_m2653962112
uuc:__ZN20TextRenderingPrivate19NativeTextGenerator5SetupEv
gOh:_AsyncResult_GetReplyMessage_m262842621
APb:__ZNK15SharedLightData24GetFinalShadowResolutionEv
_Ae:_Enumerator__ctor_m3021143890_AdjustorThunk
k5a:__ZN12AspectRatios8TransferI18StreamedBinaryReadILb0EEEEvRT_
v4f:__ZL66X509ExtensionCollection_t1640144839_CustomAttributesCacheGeneratorP21CustomAttributesCache
c4b:__ZN10GameObject14CopyPropertiesERS_
wti:__ZL25UnresolvedVirtualCall_167P12Il2CppObject19Vector3_t2243707580S1_PK10MethodInfo
tkc:__Z44Register_UnityEngine_GUIStyle_get_fixedWidthv
bZc:_RSACryptoServiceProvider_Common_m2581564813
W6i:__ZNSt3__214__split_bufferIN6il2cpp2os10ThreadImpl10APCRequestERNS_9allocatorIS4_EEEC2EjjS7_
X8h:_Vector2_Scale_m2260641886
use:_MemoryStream_CheckIfClosedThrowDisposed_m2253054610
Cuh:_ArrayReadOnlyList_1_GetEnumerator_m634288642_gshared
zZa:__ZNK13ScreenManager12IsFullScreenEv
Emj:_rand
huj:_emscripten_glFramebufferRenderbuffer__wrapper
dWg:__Z72RuntimeInvoker_Boolean_t3825574718_Ray_t2469606224_SingleU26_t4173844468PFvvEPK10MethodInfoPvPS4_
Y7i:__ZN6il2cpp5utils9PathUtils7CombineIcEENSt3__212basic_stringIT_NS3_11char_traitsIS5_EENS3_9allocatorIS5_EEEERKNS0_10StringViewIS5_EERKSA_
f2e:_ReadOnlyCollection_1_GetEnumerator_m2481390116_gshared
wLg:__Z77RuntimeInvoker_Void_t1841601450_RuntimeObject_Int32_t2071877448_RuntimeObjectPFvvEPK10MethodInfoPvPS4_
rnb:__ZN14SafeBinaryRead21TransferSTLStyleArrayINSt3__26vectorI17AnimationCurveTplIfE13stl_allocatorIS4_L18MemLabelIdentifier1ELi16EEEEEEvRT_17TransferMetaFlags
dTi:__ZN15dense_hashtableINSt3__24pairIK10KeyWrapperINS1_IPK11Il2CppImageP11Il2CppClassEEEjEES9_17ReflectionMapHashIS8_EN14dense_hash_mapIS9_jSD_NS9_14EqualsComparerINS0_8equal_toIS8_EEEENS0_9allocatorISB_EEE9SelectKeyESI_SK_E12expand_arrayEjN21dense_hash_map_traits17integral_constantIbLb0EEE
iyf:_ObjectManager_RegisterObject_m872610295
YRb:__Z22PrepareOptimizedPlanesPK5PlaneiPKN4math7_float4E
Z7h:_RectOffset_t3387826427_marshal_pinvoke
Kid:_Graphic_SetVerticesDirty_m1607014370
AU:__ZN11UnityEngine15CloudWebService17WebFileDownloaderINS0_20WebRequestRestClientENS0_23WebRequestRestHeaderMapEE10InitializeERKN4core12basic_stringIcNS5_20StringStorageDefaultIcEEEE
E4:__ZN17UniqueIDGenerator15CreatePureIndexEv
E6e:_MD2__ctor_m3133818738
Or:__ZN11UnityEngine9Animation28GenericAnimationBindingCache15DidReloadDomainEv
bhe:_AppDomain_InternalGetProcessGuid_m1278588156
Znd:_InputField_MoveRight_m386206014
fCd:_HashValues_get_Count_m234926373
$5a:__ZNSt3__26vectorIN15ResourceManager10DependencyE13stl_allocatorIS2_L18MemLabelIdentifier52ELi16EEE6assignINS_11__wrap_iterIPS2_EEEENS_9enable_ifIXaasr21__is_forward_iteratorIT_EE5valuesr16is_constructibleIS2_NS_15iterator_traitsISC_E9referenceEEE5valueEvE4typeESC_SC_
FJg:__Z116RuntimeInvoker_Boolean_t3825574718_RuntimeObject_Int32_t2071877448_RuntimeObject_Int32_t2071877448_Int32_t2071877448PFvvEPK10MethodInfoPvPS4_
ype:_BinaryReader_ReadBoolean_m2892291883
jBi:__ZN15dense_hashtableINSt3__24pairIK10KeyWrapperIPK22Il2CppGenericParameterEP11Il2CppClassEES6_N6il2cpp5utils11PointerHashIS4_EEN14dense_hash_mapIS6_S9_SE_NS6_14EqualsComparerINS0_8equal_toIS5_EEEENS0_9allocatorISA_EEE9SelectKeyESJ_SL_E14squash_deletedEv
juh:_ArrayReadOnlyList_1_Clear_m2539474626_gshared
qcg:__ZL66DSASignatureDeformatter_t2187578719_CustomAttributesCacheGeneratorP21CustomAttributesCache
$wg:__ZL85Canvas_t209405766_CustomAttributesCacheGenerator_Canvas_get_sortingLayerID_m137448982P21CustomAttributesCache
Phc:__Z14GUIClipTextureP9Texture2DPhiiii
iwh:_InternalEnumerator_1_Dispose_m1064404287_AdjustorThunk
hna:__ZNSt3__26vectorI27ComputeShaderBuiltinSamplerNS_9allocatorIS1_EEE21__push_back_slow_pathIKS1_EEvRT_
HAi:_AnimatorControllerPlayable__ctor_m4080566273
pdf:_TlsServerCertificate_validateCertificates_m1988583701
L3f:__ZL61DllImportAttribute_t3000813225_CustomAttributesCacheGeneratorP21CustomAttributesCache
oIg:__Z66RuntimeInvoker_Int32_t2071877448_RuntimeObject_Int32U26_t455636984PFvvEPK10MethodInfoPvPS4_
_si:__ZL25UnresolvedVirtualCall_143P12Il2CppObjectaaPK10MethodInfo
VFa:__ZNK9Transform18TransformDirectionERK8Vector3f
tAa:__ZNK17ArchiveFileSystem12GetAssetGUIDERK13FileEntryData
ufb:__ZNSt3__26vectorIN9ShaderLab20SerializedSubProgram15MatrixParameterENS_9allocatorIS3_EEE21__push_back_slow_pathIKS3_EEvRT_
izj:_emscripten_glClearStencil__wrapper
t1g:__Z60RuntimeInvoker_Void_t1841601450_ResourceCacheItem_t333236149PFvvEPK10MethodInfoPvPS4_
rsh:_EqualityComparer_1_get_Default_m1852501307_gshared
wHi:__ZN15dense_hashtableINSt3__24pairIK10KeyWrapperIPK11Il2CppClassEPKcEES6_N6il2cpp5utils11PointerHashIS3_EEN14dense_hash_mapIS6_S9_SE_NS6_14EqualsComparerINS0_8equal_toIS5_EEEENS0_9allocatorISA_EEE9SelectKeyESJ_SL_E12resize_deltaEjj
voj:__ZNK10__cxxabiv120__si_class_type_info27has_unambiguous_public_baseEPNS_19__dynamic_cast_infoEPvi
sie:_NumberFormatInfo_get_PercentNegativePattern_m1162448153
d5f:__ZL56SyncHashtable_t1343674558_CustomAttributesCacheGeneratorP21CustomAttributesCache
Wrj:_glTexSubImage3D__wrapper
gqf:_FactoryCache_Add_m2602974721
Gha:__Z30AddDefaultStreamsToMeshBuffersR9GfxDeviceR11MeshBuffersj17ShaderChannelMaskS3_
xY:__ZL16GetInterfaceImpl18UnityInterfaceGUID
Fie:_RegionInfo_construct_internal_region_from_name_m3316088619
mCi:__ZN6il2cpp2vmL17SetupFieldOffsetsENS0_15FieldLayoutKindEP11Il2CppClassjRKNSt3__26vectorIjNS4_9allocatorIjEEEE
mEe:_List_1_System_Collections_IList_get_Item_m936612973_gshared
Paj:__ZN6il2cpp6icalls8mscorlib6System15MonoCustomAttrs27GetCustomAttributesInternalEP12Il2CppObjectP20Il2CppReflectionTypeb
AGc:_UNITY_TT_Set_MM_Blend
_W:__GLOBAL__sub_I_runtime_math_random_0_cpp
syf:_ObjectReader_ReadAssembly_m869834280
mai:_Sprite_INTERNAL_get_textureRect_m127050026
mEb:__ZN14PreloadManager35WaitForAllAsyncOperationsToCompleteEv
z1e:_ReadOnlyCollection_1_System_Collections_IList_get_Item_m1831743662_gshared
qXe:_Collection_1_IsSynchronized_m971497175_gshared
f_:__ZNK18ScriptingObjectPtr17ToScriptingStringEv
b9c:_ExecuteEvents_Execute_m1617536317
Kdh:_Text_get_cachedTextGeneratorForLayout_m1357670532
PH:__ZL31InitializeAudioScriptingClassesv
jJb:__Z14SortGUIByDepthP10GUIElementS0_
yme:_NumberFormatter_NumberToString_m126384393
Kvj:_emscripten_glVertexAttrib4fv__wrapper
UX:__ZN13RuntimeStaticI13dynamic_arrayIPK31TransferFunctionScriptingTraitsLj4EELb0EE16StaticInitializeEPv
etf:_LogicalCallContext__ctor_m3173272863
TB:__ZN12_GLOBAL__N_120ProcessRootMotionMixER33AnimationPlayableEvaluationOutputR35AnimationPlayableEvaluationConstantR32AnimationPlayableEvaluationInputS1_f
Cwe:_MonoCustomAttrs__cctor_m2608447972
ele:_Int32_FindSign_m3803672540
Hng:__ZL98TouchScreenKeyboard_t601950206_CustomAttributesCacheGenerator_TouchScreenKeyboard_Open_m4126304679P21CustomAttributesCache
a_g:__Z95RuntimeInvoker_Void_t1841601450_ObjectU5BU5DU26_t3223402458_Int32_t2071877448_Int32_t2071877448PFvvEPK10MethodInfoPvPS4_
ejb:__ZNK20LocalFileSystemPosix21GetAvailableDiskSpaceEPKcRy
GX:__ZNSt3__26__treeIiNS_4lessIiEENS_9allocatorIiEEE7destroyEPNS_11__tree_nodeIiPvEE
Swi:_Predicate_1__ctor_m2995226103_gshared
h9e:_CipherSuite_InitializeCipher_m229247572
vaa:__ZNK9GfxDevice14GetWorldMatrixEv
S_f:_MonoProperty_GetGetMethod_m1100580870
Onh:_Dictionary_2__ctor_m1950568359_gshared
K9i:__ZN15dense_hashtableINSt3__24pairIK10KeyWrapperIPK19Il2CppGenericMethodEP10MethodInfoEES6_N6il2cpp8metadata23Il2CppGenericMethodHashEN14dense_hash_mapIS6_S9_SD_NS6_14EqualsComparerINSC_26Il2CppGenericMethodCompareEEENS0_9allocatorISA_EEE9SelectKeyESH_SJ_E13set_empty_keyERKSA_
uhb:__Z19scripting_array_new17ScriptingClassPtrjj
BM:__ZN11SoundHandle13CreateChannelEb
zNg:__Z90RuntimeInvoker_Void_t1841601450_IntPtr_t_Int32_t2071877448_RuntimeObject_Int32_t2071877448PFvvEPK10MethodInfoPvPS4_
iWa:__ZN14SafeBinaryRead21TransferSTLStyleArrayI13dynamic_arrayI12LightmapDataLj4EEEEvRT_17TransferMetaFlags
uhe:_ArgumentException__ctor_m3312963299
wcb:__ZNSt3__26vectorIN9ShaderLab20SerializedSubProgram16TextureParameterENS_9allocatorIS3_EEE6assignIPS3_EENS_9enable_ifIXaasr21__is_forward_iteratorIT_EE5valuesr16is_constructibleIS3_NS_15iterator_traitsISA_E9referenceEEE5valueEvE4typeESA_SA_
A0e:_ReadOnlyCollection_1_get_Item_m1696267180_gshared
aGi:__ZN13Il2CppHashMapIN6il2cpp5utils13dynamic_arrayIPK10Il2CppTypeLj4EEEPFvvENS0_8metadata19Il2CppSignatureHashENS9_22Il2CppSignatureCompareENSt3__29allocatorINSC_4pairIK10KeyWrapperIS6_ES8_EEEEEC2EjRKSA_RKSB_
Kvi:_U3CCreateWhereIteratorU3Ec__Iterator1D_1_MoveNext_m3533253043_gshared
EVi:__ZN15dense_hashtableINSt3__24pairIK10KeyWrapperIPK22Il2CppGenericParameterEPK24MonoGenericParameterInfoEES6_N6il2cpp5utils11PointerHashIS4_EEN14dense_hash_mapIS6_SA_SF_NS6_14EqualsComparerINS0_8equal_toIS5_EEEENS0_9allocatorISB_EEE9SelectKeyESK_SM_E15set_deleted_keyERKSB_
Ayh:_InternalEnumerator_1_System_Collections_IEnumerator_Reset_m2726857860_AdjustorThunk
rZb:__ZN6prcoreL11inner_clearILj2EEEvPhjjj
cq:__Z14resize_trimmedINSt3__26vectorIN4core12basic_stringIcNS2_20StringStorageDefaultIcEEEENS0_9allocatorIS6_EEEEEvRT_j
SAe:_Enumerator_System_Collections_IEnumerator_get_Current_m2853089017_AdjustorThunk
Fg:_emscripten_exit_fullscreen
Xld:_InputField_get_mesh_m3276583786
YJh:_GCHandle_Free_m1639542352_AdjustorThunk
$bf:_Context_set_ClientRandom_m631392719
G6i:__ZN6il2cpp6icalls8mscorlib6System6String19InternalAllocateStrEi
Prc:__Z29Transfer_Blittable_ArrayFieldI8JSONRead11QuaternionfEvRT_R9ArrayInfoRK23StaticTransferFieldInfo
Rag:__ZL65SoapParameterAttribute_t2780084514_CustomAttributesCacheGeneratorP21CustomAttributesCache
Nib:__ZN20LocalFileSystemPosix8SetFlagsER13FileEntryDatajj
nbc:__Z45Register_UnityEngine_Camera_get_targetDisplayv
p2b:__ZNK24RendererAnimationBinding15GenerateBindingERKN4core12basic_stringIcNS0_20StringStorageDefaultIcEEEEbRN11UnityEngine9Animation14GenericBindingE
wKa:__Z15GetFlareManagerv
TZb:__ZN15ApplicationInfo24GetApplicationIdentifierEv
k0e:_ReadOnlyCollection_1_System_Collections_IList_Contains_m927375828_gshared
xva:__ZN9Behaviour8TransferI18StreamedBinaryReadILb0EEEEvRT_
UOh:_Enumerator_System_Collections_IEnumerator_get_Current_m1429268283
lZe:_ReadOnlyCollection_1_System_Collections_Generic_ICollectionU3CTU3E_Clear_m388357963_gshared
Dkj:___toread
uCb:__ZNSt3__26vectorI10vector_mapIiiNS_4lessIiEE13stl_allocatorINS_4pairIiiEEL18MemLabelIdentifier38ELi16EEES4_IS9_LS7_38ELi16EEE26__swap_out_circular_bufferERNS_14__split_bufferIS9_RSA_EE
Yoj:___cxa_is_pointer_type
n5c:_String_Concat_m56707527
VB:__ZN7mecanim9animation16EvaluateAvatarDXEPKNS0_14AvatarConstantEPKNS0_11AvatarInputEPNS0_12AvatarMemoryEPNS0_15AvatarWorkspaceEPNS0_12AvatarOutputE
xoa:__ZN4gles20DestroyRenderSurfaceEP7ApiGLESP17RenderSurfaceGLES
RAe:_Enumerator_System_Collections_IEnumerator_get_Current_m2853089017_gshared
tgc:__Z34Transform_CUSTOM_SetAsFirstSiblingP12Il2CppObject
yQi:__ZNK15dense_hashtableINSt3__24pairIK10KeyWrapperINS1_IPK14Il2CppAssemblyP11Il2CppClassEEEjEES9_17ReflectionMapHashIS8_EN14dense_hash_mapIS9_jSD_NS9_14EqualsComparerINS0_8equal_toIS8_EEEENS0_9allocatorISB_EEE9SelectKeyESI_SK_E10test_emptyEj
QCe:_Enumerator_get_Current_m827571811_AdjustorThunk
ttg:__ZL62Font_t4239498691_CustomAttributesCacheGenerator_textureRebuiltP21CustomAttributesCache
Mva:__ZN17PersistentManager40GlobalToLocalSerializedFileIndexInternalERK26SerializedObjectIdentifier
BR:__ZN11UnityEngine15CloudWebService17SessionEventQueue14ParseEventDataERKN4core12basic_stringIcNS2_20StringStorageDefaultIcEEEE
N6c:_BaseEventData_get_selectedObject_m3551206992
i8d:_SimpleCollator_CompareOrdinal_m2176988387
yrg:__ZL47Rect_t3681755626_CustomAttributesCacheGeneratorP21CustomAttributesCache
rRd:_CCGregorianCalendar_GetYear_m1289900195
wme:_Int16_ToString_m2592645088
tmg:__ZL90CullingGroup_t1091689465_CustomAttributesCacheGenerator_CullingGroup_SendEvents_m386073533P21CustomAttributesCache
Efa:__ZN13TranslateGLES4InitERK12GraphicsCaps16GfxDeviceLevelGL
yzb:__Z29Transfer_Blittable_ArrayFieldI18StreamedBinaryReadILb0EE10ColorRGBAfEvRT_R9ArrayInfoRK23StaticTransferFieldInfo
Nzf:_SerializationInfoEnumerator_Reset_m2206466680
fuj:_emscripten_glGetShaderPrecisionFormat__wrapper
doi:_GenericEqualityComparer_1_Equals_m1934771410_gshared
p5f:__ZL57DebuggingModes_t2073970606_CustomAttributesCacheGeneratorP21CustomAttributesCache
Rhj:__ZN6il2cpp5utils9Exception26FormatInvalidCastExceptionEPK11Il2CppClassS4_
$Te:_Collection_1_System_Collections_IList_get_IsFixedSize_m993584401_gshared
x0b:__ZN13ProduceHelperI10TagManagerLb0EE7ProduceE18MemLabelIdentifier18ObjectCreationMode
uij:__ZN6il2cpp2os6Memory12AlignedAllocEjj
sCh:_InternalEnumerator_1__ctor_m691972083_gshared
lcj:__ZN6il2cpp8metadataL7CompareEPK10Il2CppTypeS3_
qpb:__Z18Transfer_BlittableI17RemapPPtrTransferLb0E11ColorRGBA32EvRK29SerializationCommandArgumentsR31RuntimeSerializationCommandInfo
cSf:_TypeBuilder_get_is_created_m736553860
O7e:_RSAManaged__ctor_m1370411656
Oxb:__Z18Transfer_BlittableI18StreamedBinaryReadILb0EELb1E10ColorRGBAfEvRK29SerializationCommandArgumentsR31RuntimeSerializationCommandInfo
xTa:__ZN12CubemapArray23VirtualRedirectTransferER17RemapPPtrTransfer
a6h:_PropertyName_op_Equality_m112228798
$8b:__ZL27GetComponentsImplementationILb0ELi0EEbR10GameObjectbRK17CompareParametersRK39GetComponentsImplementation_ReturnValue
aBb:__ZN9Scripting36IsSystemCollectionsGenericDictionaryE17ScriptingClassPtr
E8g:_Raycast3DCallback_EndInvoke_m3234280377
iXg:__Z34RuntimeInvoker_KeyCode_t2283395152PFvvEPK10MethodInfoPvPS4_
E5h:_PlayableHandle_op_Equality_m2854547329
yfd:_ColorTweenCallback__ctor_m3619686788
d2:__ZL16ReadTypeTreeImplILb0EEbR8TypeTreeRK16TypeTreeIteratorRPKhS6_i
Vx:__ZN27AnimationLayerMixerPlayable16SetLayerMaskCopyEjRKN7mecanim6bitsetILj70EEEPKNS0_8skeleton12SkeletonMaskE
jvi:_Hacker_StartGame_m1755528023
VNa:__ZNK22BuiltinResourceManager21GetResourceInstanceIDEPKN5Unity4TypeERKN4core12basic_stringIcNS4_20StringStorageDefaultIcEEEE
$cc:__Z42Register_UnityEngine_RectOffset_set_bottomv
kyd:_ArrayListWrapper_IndexOf_m3574835167
ckc:__Z28GUIStyleState_CUSTOM_CleanupP12Il2CppObject
oLb:__ZN28LightProbeProxyVolumeContext8CopyFromERKS_
pdd:_U3COnFinishSubmitU3Ec__Iterator0_System_Collections_Generic_IEnumeratorU3CobjectU3E_get_Current_m1823105495
xEa:__ZN23TransformChangeDispatch32QueueTransformChangeIfHasChangedER18TransformHierarchy
W_c:_SymmetricAlgorithm_get_FeedbackSize_m544664262
yoa:__ZN7ApiGLES18DeleteRenderbufferERj
cna:__ZL23ProgramUniformMatrix4fvPK7ApiGLESjiihPKv
Koa:__ZN7ApiGLES13CreateTextureEjj14GraphicsFormatiiiii
hZg:__Z41RuntimeInvoker_SelectionState_t3187567897PFvvEPK10MethodInfoPvPS4_
TCh:_InternalEnumerator_1_MoveNext_m3629145604_gshared
ecb:__ZN9ShaderLab20SerializedSubProgram15MatrixParameter8TransferI14SafeBinaryReadEEvRT_
uIg:__Z51RuntimeInvoker_Int32_t2071877448_Single_t2076509932PFvvEPK10MethodInfoPvPS4_
Zsd:_BitConverter_AmILittleEndian_m2716658112
b9b:__ZL27GetComponentsImplementationILb0ELi1EEbR10GameObjectbRK17CompareParametersRK39GetComponentsImplementation_ReturnValue
HFc:_Round_Down_To_Grid
xGf:_UTF8Decoder__ctor_m1460357288
Kea:__ZN13RenderTexture7ReleaseEv
mpc:__Z18Transfer_BlittableI8JSONReadLb1EN4math12int3_storageEEvRK29SerializationCommandArgumentsR31RuntimeSerializationCommandInfo
c2a:__ZN10MeshFilter23VirtualRedirectTransferER14SafeBinaryRead
tZh:_UnityAction_BeginInvoke_m1146054769
AEd:_Convert_ToByte_m1201588964
m2a:__ZN12MeshRenderer17MainThreadCleanupEv
Vra:__ZN22CreateGpuProgramOutput12CreateParamsEv
ZI:__ZN10ObjectPoolIN4FMOD7ChannelENS0_8ChannelIEE7GetFreeEi
K6f:__ZL55EventBuilder_t2927243889_CustomAttributesCacheGeneratorP21CustomAttributesCache
iAf:_RuntimeMethodHandle_GetHashCode_m2682236001_AdjustorThunk
Qpi:_AudioListenerExtension_get_audioListener_m2614481031
E1g:__Z54RuntimeInvoker_Void_t1841601450_UILineInfo_t3621277874PFvvEPK10MethodInfoPvPS4_
XOi:__ZNSt3__26vectorIiNS_9allocatorIiEEE21__push_back_slow_pathIiEEvOT_
kYg:__Z45RuntimeInvoker_HorizontalWrapMode_t2027154177PFvvEPK10MethodInfoPvPS4_
ufa:__ZNK14GfxContextGLES13GetDefaultFBOEv
MUd:_Array_InternalArray__ICollection_Remove_TisSByte_t454417549_m2474211570_gshared
T0c:_Evidence_get_IsSynchronized_m1427392003
y8h:_RectTransform_set_anchorMax_m1168582032
W5b:__Z13GetImagePixelI10ColorRGBAfET_PKhii13TextureFormat15TextureWrapModeS5_ii
OMi:_il2cpp_class_is_enum
yhf:_AuthorityKeyIdentifierExtension_get_Identifier_m3535568551
FHa:__ZNSt3__23mapIN9ShaderLab16FastPropertyNameEN18UnityPropertySheet11UnityTexEnvENS_4lessIS2_EENS_9allocatorINS_4pairIKS2_S4_EEEEEixERS9_
Ona:__ZNK13TranslateGLES25GetTextureTargetDimensionEj
H0d:_Array_InternalArray__set_Item_TisByte_t3683104436_m1694926640_gshared
EUe:_Collection_1_System_Collections_IList_Contains_m1897568526_gshared
rUf:_FieldBuilder_get_FieldType_m2267463269
usd:_SimpleEnumerator_Clone_m3032847657
HPh:_PatternCompiler_EmitInfo_m597931026
d5e:_ModulusRing_Multiply_m3113924743
Lfc:__Z47Texture2D_CUSTOM_INTERNAL_CALL_GetPixelBilinearP12Il2CppObjectffR10ColorRGBAf
YZ:__ZN9Scripting12LogExceptionE21ScriptingExceptionPtriPKcb
Obf:_Context_get_ServerSettings_m225713600
Fi:_emscripten_glVertexAttrib4f
RYe:_ReadOnlyCollection_1_System_Collections_IEnumerable_GetEnumerator_m531171980_gshared
A1a:__ZN10Matrix4x4f8TransferI19StreamedBinaryWriteILb0EEEEvRT_
c8h:_RectOffset__ctor_m976836251
h3d:_Array_Sort_TisUILineInfo_t3621277874_m3105833015_gshared
kye:_MonoType_GetGenericArguments_m2708198481
AMb:__ZN11HaloManager21ReleaseGeometryJobMemEP25DynamicVBOGeometryJobData
sEe:_List_1_AddEnumerable_m2489692396_gshared
oYg:__Z51RuntimeInvoker_Color_t2020392075_Single_t2076509932PFvvEPK10MethodInfoPvPS4_
xni:_GenericEqualityComparer_1_GetHashCode_m3450627064_gshared
PGf:_WaitHandle__ctor_m1256161634
Ww:__ZN7mecanim12statemachine24CreateStateMachineMemoryEPKNS0_20StateMachineConstantERNS_6memory9AllocatorE
xjh:_Enumerator_get_Current_m419581838_AdjustorThunk
Yca:__ZN9GfxDevice18SetGlobalDepthBiasEff
bKi:__ZN6il2cpp6icalls8mscorlib6System8MonoType12get_AssemblyEP20Il2CppReflectionType
G6h:_Vector3_get_normalized_m1057036856
lid:_FontData_get_richText_m2013560754
a2c:_SecurityException_get_PermissionType_m3543350822
Ti:_emscripten_glGetPointerv
JB:__ZN8Animator22ApplyBuiltinRootMotionEv
s3i:__ZN15dense_hashtableI10KeyWrapperIP18Il2CppGenericClassES3_N6il2cpp8metadata22Il2CppGenericClassHashEN14dense_hash_setIS3_S6_NS3_14EqualsComparerINS5_25Il2CppGenericClassCompareEEENSt3__29allocatorIS3_EEE8IdentityESA_SD_E5clearEv
UDb:__Z26ApplyMaterialPassWithCacheRK18SharedMaterialDataR17ShaderPassContextP6ShaderPN9ShaderLab4PassEibPKNS6_10GrabPassesEPNS6_11SubProgramsEPK22DeviceRenderStateBlock
oUd:_Array_InternalArray__ICollection_Remove_TisKeyValuePair_2_t3716250094_m2566517826_gshared
c1i:__ZN30dense_hashtable_const_iteratorINSt3__24pairIK10KeyWrapperIP14Il2CppIUnknownEjEES5_N6il2cpp5utils11PointerHashIS3_EEN14dense_hash_mapIS5_jSB_NS5_14EqualsComparerINS0_8equal_toIS4_EEEENS0_9allocatorIS7_EEE9SelectKeyESG_SI_EppEv
mYa:__ZN8Renderer23VirtualRedirectTransferER14SafeBinaryRead
gTf:_DerivedType_get_UnderlyingSystemType_m3904230233
Y9c:_PointerEventData_get_rawPointerPress_m448871540
sMa:__Z27ConvertSubMeshesToTrianglesR13dynamic_arrayI7SubMeshLj4EERS_ItLj2EE
hCi:__ZN6il2cpp2vmL15GetBitmapNoInitEP11Il2CppClassPjRjj
GYb:__ZL13MotionHandleriPK27EmscriptenDeviceMotionEventPv
nof:_X509Certificate2Collection__ctor_m819526826
vH:__ZN12AudioManager5ResetEv
J5g:__Z75RuntimeInvoker_RuntimeObject_Single_t2076509932_RuntimeObject_RuntimeObjectPFvvEPK10MethodInfoPvPS4_
q6e:_KeyBuilder_Key_m3814433741
vhe:_ArgumentException__ctor_m158205422
CXd:_Array_compare_TisVector3_t2243707580_m3709184876_gshared
Akd:_HorizontalLayoutGroup_SetLayoutHorizontal_m3237355818
tB:__ZN7mecanim5human14RetargetToTDoFEPKNS0_5HumanEPNS0_9HumanPoseEPNS_8skeleton13SkeletonPoseTIN4math4trsXEEESB_
rVi:__ZNK15dense_hashtableINSt3__24pairIK10KeyWrapperIPK14Il2CppAssemblyEPK22Il2CppMonoAssemblyNameEES6_N6il2cpp5utils11PointerHashIS4_EEN14dense_hash_mapIS6_SA_SF_NS6_14EqualsComparerINS0_8equal_toIS5_EEEENS0_9allocatorISB_EEE9SelectKeyESK_SM_E10test_emptyEj
V7i:__ZN6il2cpp6icalls8mscorlib6System11Environment20GetWindowsFolderPathEi
hEg:__ZL60AspectRatioFitter_t3114550109_CustomAttributesCacheGeneratorP21CustomAttributesCache
Kv:__ZN7mecanim5human18HumanPoseBlendNodeERNS0_9HumanPoseEPS1_f
Lwc:_UNITY_FT_RoundFix
lfb:__ZN9ShaderLab20SerializedSubProgram15AddTextureParamEPKcii16TextureDimension
NQ:__ZN23CloudWebServicesManager23VirtualRedirectTransferER17RemapPPtrTransfer
MRe:__ZN21InterfaceFuncInvoker1Ib40CustomAttributeTypedArgument_t1498197914E6InvokeEjP11Il2CppClassP12Il2CppObjectS0_
GTh:_Uri_get_Parser_m2250631932
o2a:__ZNK12MeshRenderer22GetTypeVirtualInternalEv
ebi:_Touch_get_type_m1491424279_AdjustorThunk
Did:_Graphic_set_color_m646149893
Joh:_Dictionary_2_System_Collections_ICollection_get_IsSynchronized_m960517203_gshared
KQa:__ZN14SafeBinaryRead19TransferSTLStyleMapINSt3__23mapIN4core12basic_stringIcNS3_20StringStorageDefaultIcEEEES7_NS1_4lessIS7_EE13stl_allocatorINS1_4pairIKS7_S7_EEL18MemLabelIdentifier1ELi16EEEEEEvRT_17TransferMetaFlags
uLf:_Type_MakeByRefType_m1323101575
tKc:__ZN2UI6Canvas27UpdateEventIndexesRecursiveERi
HR:__ZN11UnityEngine15CloudWebService16SessionContainer21PrepareDataErrorEventERN4core12basic_stringIcNS2_20StringStorageDefaultIcEEEE
lxc:_UNITY_FT_Outline_New
fvg:__ZL98Event_t3028476042_CustomAttributesCacheGenerator_Event_Internal_MakeMasterEventCurrent_m3691313142P21CustomAttributesCache
I9i:__ZNSt3__218uninitialized_copyIPNS_4pairIK10KeyWrapperIPK19Il2CppGenericMethodEP10MethodInfoEESB_EET0_T_SD_SC_
Vtb:__Z19TransferField_ArrayI19StreamedBinaryWriteILb0EE27Converter_SimpleNativeClassI8GUIStyleEEvRK23StaticTransferFieldInfoR31RuntimeSerializationCommandInfoRT0_
Q9g:_Scrollbar_SetDirection_m3264558284
swj:_emscripten_glCopyTexSubImage2D__wrapper
tZa:__ZNK13ScreenManager12GetIsFocusedEv
$ej:_maybe_finalize
z5h:_PlayableHandle_IsValidInternal_m3315870994
Lwf:_RemotingServices_RegisterInternalChannels_m1827304423
apc:__Z35Transfer_Blittable_FixedBufferFieldI8JSONReadiEvRK29SerializationCommandArgumentsR31RuntimeSerializationCommandInfo
eJi:__ZNSt3__213__vector_baseIN6il2cpp2os19SocketHandleWrapperENS_9allocatorIS3_EEED2Ev
Oae:_ASN1_get_Length_m3359111015
oVg:__Z66RuntimeInvoker_InternalShaderChannel_t3331827198_Int32_t2071877448PFvvEPK10MethodInfoPvPS4_
lSg:__Z77RuntimeInvoker_RuntimeObject_Int32_t2071877448_RuntimeObject_SByte_t454417549PFvvEPK10MethodInfoPvPS4_
cc:invoke_viiffi
Hv:__ZN7mecanim18ValueArrayBlendEndILb0EEEvPKNS_10ValueArrayERKNS_14ValueArrayMaskERKNS_16ValueArrayWeightERS1_
xWb:__ZN13sorted_vectorINSt3__24pairIN4core12basic_stringIcNS2_20StringStorageDefaultIcEEEEPK17MessageIdentifierEEN10vector_mapIS6_S9_NS0_4lessIS6_EENS0_9allocatorISA_EEE13value_compareESF_E10insert_oneERKSA_
IB:__ZNSt3__227__insertion_sort_incompleteIRPFbPKN8Animator11AnimatorJobES4_EPS4_EEbT0_S9_T_
sR:__ZNSt3__26__treeINS_12__value_typeIN4core12basic_stringIcNS2_20StringStorageDefaultIcEEEEjEENS_19__map_value_compareIS6_S7_NS_4lessIS6_EELb1EEE13stl_allocatorIS7_L18MemLabelIdentifier88ELi16EEE4findIS6_EENS_15__tree_iteratorIS7_PNS_11__tree_nodeIS7_PvEEiEERKT_
JHf:_Thread_GetCachedCurrentUICulture_m5590127
fVg:__Z36RuntimeInvoker_Matrix4x4_t2933234003PFvvEPK10MethodInfoPvPS4_
uTa:__ZNK12CubemapArray20GetRuntimeMemorySizeEv
Ifi:_GUILayoutEntry_get_margin_m3913640621
BLh:_CrossAppDomainSink_get_TargetDomainId_m775204051
Ycb:__Z14resize_trimmedINSt3__26vectorIN9ShaderLab18SerializedPropertyENS0_9allocatorIS3_EEEEEvRT_j
_Me:_List_1_CheckMatch_m4018158235_gshared
Nob:__Z18Transfer_BlittableI17RemapPPtrTransferLb0EN4math12int3_storageEEvRK29SerializationCommandArgumentsR31RuntimeSerializationCommandInfo
L8d:_Context_t2636657155_marshal_pinvoke_back
eHi:__ZN6il2cpp2vm13MetadataCache38GetMethodInfoFromMethodDefinitionIndexEi
Mud:_Byte_System_IConvertible_ToDateTime_m1583041031
s_a:__ZN10VertexData8TransferI24GenerateTypeTreeTransferEEvRT_
Gxg:__ZL100CanvasRenderer_t261436805_CustomAttributesCacheGenerator_CanvasRenderer_get_absoluteDepth_m606892957P21CustomAttributesCache
n9i:__ZN13Il2CppHashMapIPK19Il2CppGenericMethodP10MethodInfoN6il2cpp8metadata23Il2CppGenericMethodHashENS6_26Il2CppGenericMethodCompareENSt3__29allocatorINS9_4pairIK10KeyWrapperIS2_ES4_EEEEEC2EjRKS7_RKS8_
Fee:_EncryptedData_get_EncryptionAlgorithm_m1301274243
Ash:_EqualityComparer_1_System_Collections_IEqualityComparer_Equals_m1089835085_gshared
tRb:__ZL10CullLightsRK22SceneCullingParametersR11CullResults
Jhd:_Dropdown__cctor_m264401557
Nrd:_Array_IndexOf_m2819632474
S6h:_Ray_GetPoint_m2427899009_AdjustorThunk
jHh:_Comparer_1__cctor_m3996541505_gshared
Rw:__ZN7mecanim12statemachine20GetBlendTreeConstantERKNS0_13StateConstantEi
lZb:__Z40GetTemporaryCachePathApplicationSpecificv
dba:__ZN9GfxDevice16EndAsyncJobFrameEv
Ild:_Image_get_minWidth_m1809071077
PTi:__ZNK15dense_hashtableINSt3__24pairIK10KeyWrapperINS1_IPK12PropertyInfoP11Il2CppClassEEEjEES9_17ReflectionMapHashIS8_EN14dense_hash_mapIS9_jSD_NS9_14EqualsComparerINS0_8equal_toIS8_EEEENS0_9allocatorISB_EEE9SelectKeyESI_SK_E10test_emptyERK30dense_hashtable_const_iteratorISB_S9_SD_SM_SI_SK_E
Byc:_UNITY_tt_face_load_hhea
sNh:_ContextAttribute_IsNewContextOK_m2186905629
_Dd:_Convert_ToBase64String_m1936815455
Nk:___syscall3
Qk:___syscall6
zca:__ZN9GfxDevice15GetNextCPUFenceEv
Sk:___syscall4
qig:__ZL49Random_t1044426839_CustomAttributesCacheGeneratorP21CustomAttributesCache
wNd:_Decimal_ToString_m759431975
vVe:_Collection_1_System_Collections_IList_get_IsFixedSize_m2204750039_gshared
$jb:__ZNSt3__26__treeINS_12__value_typeIN4core12basic_stringIcNS2_20StringStorageDefaultIcEEEEPN16MemoryFileSystem4NodeEEENS_19__map_value_compareIS6_SA_NS_4lessIS6_EELb1EEE13stl_allocatorISA_L18MemLabelIdentifier55ELi16EEE7destroyEPNS_11__tree_nodeISA_PvEE
odd:_ColorBlock_get_fadeDuration_m987725262
uCg:__ZL195U3CMouseDragOutsideRectU3Ec__Iterator1_t2599668326_CustomAttributesCacheGenerator_U3CMouseDragOutsideRectU3Ec__Iterator1_System_Collections_Generic_IEnumeratorU3CobjectU3E_get_Current_m2602955272P21CustomAttributesCache
oUg:__Z86RuntimeInvoker_Void_t1841601450_RuntimeObject_Vector3U26_t425862308_RayU26_t3651946800PFvvEPK10MethodInfoPvPS4_
vBf:_CryptographicException__ctor_m2415891459
qba:__ZN9GfxDevice27UpdateComputeSkinPoseBufferE15ComputeBufferIDP12SkinMeshInfo
gHe:_List_1_AddCollection_m3266731889_gshared
Xag:__ZL59ITrackingHandler_t2759960940_CustomAttributesCacheGeneratorP21CustomAttributesCache
gl:_emscripten_glShaderBinary
eIf:_DelegatePInvokeWrapper_ThreadStart_t3437517264
$1d:_Array_qsort_TisVector2_t2243707579_TisVector2_t2243707579_m3308480721_gshared
US:__ZN15DownloadHandler19OnFinishReceiveDataEv
Hff:_SslStreamBase_Dispose_m747909841
Azh:_InternalEnumerator_1_Dispose_m4038440306_AdjustorThunk
oRg:__Z21RuntimeInvoker_Guid_tPFvvEPK10MethodInfoPvPS4_
Xei:_GUI_CallWindowDelegate_m2603162942
rif:_DictionaryNodeEnumerator_get_DictionaryNode_m3521889822
Rt:__ZN7mecanim5human19MaskHasLeftFootGoalERKNS_6bitsetILj70EEE
i0g:__Z101RuntimeInvoker_Int32_t2071877448_RuntimeObject_Color32_t874517518_Int32_t2071877448_Int32_t2071877448PFvvEPK10MethodInfoPvPS4_
PNc:__Z58Register_UnityEngine_Canvas_GetETC1SupportedCanvasMaterialv
swb:__ZN17AnimationCurveTplIfE8TransferI18StreamedBinaryReadILb1EEEEvRT_
yLd:_DateTimeOffset_GetHashCode_m3312197462_AdjustorThunk
eQc:__ZN18UnityConnectClientD2Ev
Qkf:_ServicePoint_set_UseNagleAlgorithm_m2618011464
eMi:_il2cpp_set_data_dir
BTh:_Uri_get_IsUnc_m2111738174
nhg:__ZL79Convert_t2607082565_CustomAttributesCacheGenerator_Convert_ToUInt64_m1691869628P21CustomAttributesCache
fDa:__ZN16LevelGameManager23VirtualRedirectTransferER19StreamedBinaryWriteILb0EE
n_a:__Z32TransferEnumWithNameForceIntSizeI14SafeBinaryRead16GfxPrimitiveTypeEvRT_RT0_PKc17TransferMetaFlags
ZFh:_DefaultComparer__ctor_m1961329658_gshared
QWf:_ParameterBuilder_get_Attributes_m2421099277
t_g:__Z66RuntimeInvoker_Void_t1841601450_ObjectU26_t597476745_RuntimeObjectPFvvEPK10MethodInfoPvPS4_
FXf:_TypeBuilder_IsValueTypeImpl_m1499671481
iPc:__ZN11UnityEngine15PlatformWrapper30GetGraphicsDriverLibraryStringEv
Dtg:__ZL51UIVertex_t1204258818_CustomAttributesCacheGeneratorP21CustomAttributesCache
IHe:_List_1_get_Count_m1752597149_gshared
y7e:_EncryptedPrivateKeyInfo_Decode_m1706190306
rlh:_ValueCollection_GetEnumerator_m401908452_gshared
Pxb:__Z18Transfer_BlittableI18StreamedBinaryReadILb0EELb0E4AABBEvRK29SerializationCommandArgumentsR31RuntimeSerializationCommandInfo
Rpi:_AudioListener_ClearExtensionProperties_m2267088681
BD:__ZN16MecanimAnimation24DeleteAnimatedPropertiesERP26IAnimatedPropertyEvaluator
wOg:__Z42RuntimeInvoker_CspProviderFlags_t105264000PFvvEPK10MethodInfoPvPS4_
sId:_Convert_ToUInt16_m1665900934
N3e:_Converter_2_BeginInvoke_m898151494_gshared
Cie:_RegionInfo__ctor_m2058831971
CHb:__Z14DrawGUITextureRK5RectTIfEP7Texture11ColorRGBA32P8Materiali
Rdh:_Text_get_supportRichText_m3291105891
wA:__ZN9BlobWrite8TransferI22OffsetPtrArrayTransferIKN4math7_float4EEEEvRT_PKc17TransferMetaFlags
F1e:_ReadOnlyCollection_1_get_Count_m336636247_gshared
Ogi:_GUIUtility_set_systemCopyBuffer_m3458871692
BPa:__ZN15TextureSettings8TransferI24GenerateTypeTreeTransferEEvRT_
ROh:_MatchCollection_GetEnumerator_m3516985966
Loc:__ZN9JSONWrite8TransferI4AABBEEvRT_PKc17TransferMetaFlags
MDf:_UTF7Encoding__ctor_m2365939916
fBa:__ZN25MultiBlocksMemoryFileData9SetLengthEy
PAi:_Animator_SetTrigger_m2003713590
GXh:_DelegatePInvokeWrapper_StateChanged_t2480912210
B6g:_MatEntry__ctor_m3650167335
Tki:_ListPool_1_U3Cs_ListPoolU3Em__0_m441310157_gshared
yUa:__ZNK9Texture2D20GetRuntimeMemorySizeEv
ALf:_TypeInitializationException__ctor_m2993591639
sWd:_Array_InternalArray__IEnumerable_GetEnumerator_TisRefEmitPermissionSet_t2708608433_m3450905212_gshared
Vkc:__ZN5Unity9rapidjson13GenericReaderINS0_4UTF8IcEES3_13JSONAllocatorE9ParseTrueILj0ENS0_19GenericStringStreamIS3_EENS0_15GenericDocumentIS3_S4_S4_EEEEvRT0_RT1_
om:_emscripten_glUniform2iv
kcg:__ZL46DES_t1353513560_CustomAttributesCacheGeneratorP21CustomAttributesCache
Cke:_Int16_System_IConvertible_ToInt64_m733340257
Egg:__ZL79Convert_t2607082565_CustomAttributesCacheGenerator_Convert_ToSingle_m2156102599P21CustomAttributesCache
gvc:_UNITY_FT_Outline_Transform
Ffc:__Z60Register_UnityEngine_Sprites_DataUtility_Internal_GetMinSizev
ACi:__ZN6il2cpp2vm5Class10GetMethodsEP11Il2CppClassPPv
dTc:__ZNK25UnityWebRequestJavaScript17GetUploadProgressEv
iNb:__Z30AddDefaultStreamsToMeshBuffersR9GfxDeviceR11MeshBuffersRK16DrawBuffersRange17ShaderChannelMaskS6_
b0g:__Z86RuntimeInvoker_Int32_t2071877448_Vector2_t2243707579_Vector2_t2243707579_RuntimeObjectPFvvEPK10MethodInfoPvPS4_
boa:__ZN7ApiGLES17DeleteFramebufferERN2gl6HandleILNS0_10ObjectTypeE9EEES3_
Yqa:__ZN15UniformTFMethod13MapBoneBufferEj
Laf:_RecordProtocol_SendAlert_m2816808523
kJc:__ZN2UI14CanvasRendererD2Ev
Vsg:__ZL113PlayerConnection_t3517219175_CustomAttributesCacheGenerator_PlayerConnection_ConnectedCallbackInternal_m286884446P21CustomAttributesCache
wHb:__ZN13RenderManager22RenderOffscreenCamerasEv
HZi:__ZN6il2cpp6icalls8mscorlib6System5Array8SetValueEP11Il2CppArrayP12Il2CppObjectS5_
Hue:_SynchronizedReader_Read_m1399666181
vZf:_MonoEvent_get_Name_m2796714646
OCb:__Z9SetupArgviPPKc
BAi:_AnimationOffsetPlayable__ctor_m1644499845
n1g:__Z53RuntimeInvoker_Void_t1841601450_LabelData_t3712112744PFvvEPK10MethodInfoPvPS4_
MWd:_Array_InternalArray__IEnumerable_GetEnumerator_TisHitInfo_t1761367055_m2486283755_gshared
lad:_PointerEventData_set_worldNormal_m2025727441
Wbi:_Transform_INTERNAL_get_worldToLocalMatrix_m2822011810
Sbf:_Context_get_SentConnectionEnd_m3114190867
Jva:__ZN12ImmediatePtrI10GameObjectE8TransferI19StreamedBinaryWriteILb0EEEEvRT_
yTa:__ZN12CubemapArray23VirtualRedirectTransferER24GenerateTypeTreeTransfer
Nqi:__ZL24UnresolvedVirtualCall_22P12Il2CppObjectS0_iS0_S0_S0_PK10MethodInfo
J2:__ZN12FileAccessor4OpenER15FileSystemEntry14FilePermission16FileAutoBehavior
kLa:__ZNSt3__26vectorI4PPtrI6ShaderE13stl_allocatorIS3_L18MemLabelIdentifier53ELi16EEE8__appendEj
mpi:_AudioSource_get_spatializeInternal_m4243931620
vLa:__ZN4PPtrI6ShaderE8TransferI18StreamedBinaryReadILb0EEEEvRT_
DXa:__ZN23TransformChangeDispatch32QueueTransformChangeIfHasChangedERK15TransformAccess
Q9c:_PointerEventData_set_clickTime_m3931922487
O1:__ZN15dense_hashtableINSt3__24pairIKiP4RTTIEEiN11TypeManager27HashFunctorPersistentTypeIDEN14dense_hash_mapIiS4_S7_NS0_8equal_toIiEE13stl_allocatorIS5_L18MemLabelIdentifier7ELi16EEE9SelectKeyESA_SD_E12maybe_shrinkEv
Ole:_NumberFormatter_AppendNonNegativeNumber_m629862866
dSa:__ZNSt3__26vectorINS_4pairIN9ShaderLab16FastPropertyNameEN18UnityPropertySheet11UnityTexEnvEEENS_9allocatorIS6_EEE21__push_back_slow_pathIKS6_EEvRT_
QAa:__ZN15ArchiveReadFile5WriteEyPKvPy
SIh:_ResourceInfo__ctor_m2401359321_AdjustorThunk
Q7i:__ZN6il2cpp2os26LibraryNamePrefixAndSuffixC2EPKcS3_
e1d:_Array_InternalArray__set_Item_TisMonoResource_t3127387157_m732733855_gshared
rji:_UnityEvent_1_Invoke_m1599856953_gshared
gBd:_Hashtable__ctor_m392789568
JFf:_UTF7Encoding__cctor_m4192443836
B:tempValue
XXb:__Z29StdTemplateConversionFunctionIaiEbPvR14SafeBinaryRead
oYh:_Display_get_systemHeight_m3140485477
FEe:_List_1_Insert_m4101600027_gshared
Gke:_Int16_System_IConvertible_ToSingle_m3277935657
A_:__Z29scripting_class_from_fullnamePKcS0_S0_
jdi:_Vector3_get_sqrMagnitude_m1445517847_AdjustorThunk
C8g:_Raycast3DCallback_Invoke_m2271859924
qx:__ZN26AnimatorControllerPlayable18DeallocateBindingsEv
SM:__ZN11AudioSource19CreateOpenALRolloffEfff
ozc:_UNITY_FT_Stream_ReadAt
cKg:__Z38RuntimeInvoker_MemberTypes_t3343038963PFvvEPK10MethodInfoPvPS4_
Pfh:_Enumerator_get_CurrentKey_m2387752419_AdjustorThunk
pGi:__ZN15dense_hashtableINSt3__24pairIK10KeyWrapperIN6il2cpp5utils13dynamic_arrayIPK10Il2CppTypeLj4EEEEPFvvEEESA_NS3_8metadata19Il2CppSignatureHashEN14dense_hash_mapISA_SD_SG_NSA_14EqualsComparerINSF_22Il2CppSignatureCompareEEENS0_9allocatorISE_EEE9SelectKeyESK_SM_E9set_valueEPSE_RKSE_
lZh:_UnityEventBase_FindMethod_m2780816114
ELf:_UInt16_System_IConvertible_ToBoolean_m887616848
EN:__ZN11AudioModule22CreateAudioClipFromWWWEP10IWWWStreamPKcbbi
yEf:_StringBuilder_set_Length_m3039225444
uZg:__Z37RuntimeInvoker_AspectMode_t1166448724PFvvEPK10MethodInfoPvPS4_
oVe:_Collection_1_System_Collections_IList_Contains_m3870109702_gshared
STd:_Array_InternalArray__ICollection_Contains_TisRaycastResult_t21186376_m3188614988_gshared
Dlh:_Dictionary_2_System_Collections_Generic_ICollectionU3CSystem_Collections_Generic_KeyValuePairU3CTKeyU2CTValueU3EU3E_get_IsReadOnly_m1111602362_gshared
bJd:_CultureAwareComparer_GetHashCode_m3681260951
tLc:__Z13RegisterClassIN2UI11CanvasGroupEEvv
rlg:__ZL90Application_t354826772_CustomAttributesCacheGenerator_Application_get_platform_m1727035749P21CustomAttributesCache
wki:_U3CStartU3Ec__Iterator0__ctor_m951808111_gshared
tZb:__ZN6prcoreL11inner_clearILj4EEEvPhjjj
L8g:_Selectable__ctor_m1440593935
Psi:__ZL25UnresolvedVirtualCall_132P12Il2CppObject17Color_t2020392075faaaPK10MethodInfo
X5:__ZNK8Playable6HandleEv
Voj:___cxa_guard_abort
zRf:_CustomAttributeTypedArgument_t1498197914_marshal_pinvoke_back
L0:__ZN14MessageHandler28MessageIDToMessageIdentifierEi
Hjf:_HttpRequestCreator_Create_m3607509610
Yvg:__ZL50GUISkin_t1436893342_CustomAttributesCacheGeneratorP21CustomAttributesCache
O_a:__ZNK11SpriteAtlas20GetRuntimeRenderDataEPK6Sprite
$Ne:_List_1_Shift_m3824049528_gshared
rxf:_ArrayFixupRecord__ctor_m3659990982
ccf:_Context_get_RandomCS_m3946020109
y1f:__ZL72IntPtr_t_CustomAttributesCacheGenerator_IntPtr_op_Inequality_m3044532593P21CustomAttributesCache
Vgd:_Dropdown_get_onValueChanged_m3334401942
rgj:__ZN6il2cpp2vm10WaitHandle19NewManualResetEventEb
e$e:_ReadOnlyCollection_1_System_Collections_IList_Contains_m3707723158_gshared
ovc:__ZN20TextRenderingPrivate15DynamicFontData36GetFaceForCharacterIfAvailableInFontERKNS_7FontRefERK13dynamic_arrayI4PPtrIN13TextRendering4FontEELj4EEj
Zpi:_AudioExtensionManager_GetReadyToPlay_m3272224102
mv:__ZN7mecanim14ValueArrayCopyILb0EEEvPKNS_10ValueArrayEPS1_
SE:__Z51Register_UnityEngine_Animator_get_hasBoundPlayablesv
$vi:_Nullable_1_ToString_m1238126148_AdjustorThunk
yvg:__ZL87GUIStyle_t1799908754_CustomAttributesCacheGenerator_GUIStyle_get_fixedWidth_m2528231637P21CustomAttributesCache
Dd:emscriptenWebGLGetUniform
po:FUNCTION_TABLE_iiiiiiiiiii
QTa:__Z32TransferEnumWithNameForceIntSizeI14SafeBinaryRead13TextureFormatEvRT_RT0_PKc17TransferMetaFlags
WCg:__ZL86Scrollbar_t3248359358_CustomAttributesCacheGenerator_Scrollbar_ClickRepeat_m3403943364P21CustomAttributesCache
_Sb:__ZL10CleanUpJobP20CullingGroupsJobData
wwd:_Char_CompareTo_m3044885427_AdjustorThunk
Lqe:_FileStream_GetSecureFileName_m508045384
hNb:__Z20IsRunningNativeTestsv
VBh:_InternalEnumerator_1_System_Collections_IEnumerator_get_Current_m2035754659_AdjustorThunk
J3a:__ZN11TimeManager23VirtualRedirectTransferER17RemapPPtrTransfer
tHb:__ZN13RenderManager15BatchModeUpdateEv
xwi:_Predicate_1_EndInvoke_m973058386_gshared
dog:__ZL52LayerMask_t3188175821_CustomAttributesCacheGeneratorP21CustomAttributesCache
WZa:__ZN14SafeBinaryRead21TransferSTLStyleArrayI13dynamic_arrayI8Vector2fLj4EEEEvRT_17TransferMetaFlags
Lva:__ZN17PersistentManager51InstanceIDToLocalSerializedObjectIdentifierInternalEiR31LocalSerializedObjectIdentifier
fJ:__ZL16FMOD_ErrorString11FMOD_RESULT_658
M$f:_StrongNameKeyPair_System_Runtime_Serialization_IDeserializationCallback_OnDeserialization_m2330221363
jEc:_UNITY_FT_Create_Class_cff_services
XFh:_DefaultComparer__ctor_m1661558765_gshared
gd:_glVertexAttribIPointer
EOf:_UnhandledExceptionEventHandler_EndInvoke_m2207457167
mrg:__ZL114ManagedStreamHelpers_t1667331974_CustomAttributesCacheGenerator_ManagedStreamHelpers_ManagedStreamSeek_m4230262206P21CustomAttributesCache
nWc:_HMAC_set_HashName_m457235014
h6b:__ZNK6Sprite10GetPaddingE20SpriteRenderDataMode
DBi:__ZN6il2cpp2vm5Class11GetPtrClassEPK10Il2CppType
aTd:_Array_InternalArray__ICollection_Contains_TisTableRange_t2011406615_m605506746_gshared
Xlh:_Dictionary_2_Add_m1296007576_gshared
aId:_Decimal_op_Explicit_m729046406
FBf:_CryptoConfig_CreateFromName_m2169102076
bjd:_Graphic_OnEnable_m2900261811
IBf:_CryptographicUnexpectedOperationException__ctor_m3552441227
dLb:__ZN14qsort_internal5QSortIP15RODataDepthPassi17ROSorterDepthPassEEvT_S4_T0_T1_
gyd:_ArrayListWrapper_Clear_m321161741
bod:_InputField_LineDownCharacterPosition_m2690468785
nzc:_UNITY_ft_glyphslot_alloc_bitmap
l3d:_Array_Sort_TisVector2_t2243707579_TisVector2_t2243707579_m2582252549_gshared
ENf:_UInt64_System_IConvertible_ToDouble_m2828923873
dFi:__ZN15dense_hashtableI10KeyWrapperIPK17Il2CppGenericInstES4_N6il2cpp8metadata21Il2CppGenericInstHashEN14dense_hash_setIS4_S7_NS4_14EqualsComparerINS6_24Il2CppGenericInstCompareEEENSt3__29allocatorIS4_EEE8IdentityESB_SE_E16reset_thresholdsEv
ZIe:_List_1_System_Collections_IList_set_Item_m1129584681_gshared
pHf:_SendOrPostCallback__ctor_m107067079
KAc:_ft_raster1_render
mhc:__Z47Register_UnityEngine_Mesh_RecalculateBoundsImplv
QEe:_List_1_set_Capacity_m491101164_gshared
ynj:__ZNKSt3__221__basic_string_commonILb1EE20__throw_length_errorEv
XEf:_StringBuilder_Insert_m1733097906
mHh:_Comparer_1__ctor_m1157133632_gshared
zgf:_SslStreamBase_get_HashStrength_m480059173
G3e:_Comparison_1_EndInvoke_m2678763282_gshared
xlc:__ZN5Unity9rapidjson6WriterI16TempBufferWriterNS0_4UTF8IcEES4_13JSONAllocatorE11WriteStringEPKcj
fkh:_ValueCollection_System_Collections_Generic_ICollectionU3CTValueU3E_Clear_m3271993638_gshared
nTg:__Z35RuntimeInvoker_Position_t3781184359PFvvEPK10MethodInfoPvPS4_
LDd:_Enumerator_MoveNext_m1419609883
HI:__ZN4FMOD7Channel19setReverbPropertiesEPK29FMOD_REVERB_CHANNELPROPERTIES
j0:__ZN13MonoBehaviour22GetScriptFullClassNameEv
vNi:_il2cpp_object_get_class
H6f:__ZL111DerivedType_t1016359113_CustomAttributesCacheGenerator_DerivedType_MakeGenericType_m742223168____typeArguments0P21CustomAttributesCache
D6h:_RangeInt_get_end_m480861812
B1e:_ReadOnlyCollection_1_Contains_m1816350632_gshared
Qjf:_ServicePointManager_FindServicePoint_m3137356168
LAb:__ZN13MonoBehaviour9CallAwakeEv
vZh:_UnityEvent__ctor_m3488719202
nOa:__ZN20SphericalHarmonicsL211AddWeightedERKS_f
ozg:__ZL106PointerEventData_t1599784723_CustomAttributesCacheGenerator_PointerEventData_set_pressPosition_m2094137883P21CustomAttributesCache
Dad:_PointerInputModule_GetPointerData_m1695674453
zOg:__Z90RuntimeInvoker_Void_t1841601450_RuntimeObject_RuntimeObject_RuntimeObject_SByte_t454417549PFvvEPK10MethodInfoPvPS4_
_pb:__Z19TransferField_ArrayI17RemapPPtrTransfer27Converter_SimpleNativeClassI8GUIStyleEEvRK23StaticTransferFieldInfoR31RuntimeSerializationCommandInfoRT0_
GZ:__ZL22StaticInitializeShaderPv
YId:_Convert_ToUInt64_m345450801
cwi:_Predicate_1_BeginInvoke_m2559992383_gshared
dmc:__ZN9JSONWrite8TransferI10ColorRGBAfEEvRT_PKc17TransferMetaFlags
dLe:_List_1_Find_m1270109362_gshared
F0:__Z25scripting_method_get_name18ScriptingMethodPtr
rob:__Z19TransferField_ArrayI14SafeBinaryRead16Converter_StringEvRK23StaticTransferFieldInfoR31RuntimeSerializationCommandInfoRT0_
Umj:_rename
Sej:_GC_exit_check
Bye:_NotSupportedException__ctor_m3232764727
hjf:_TypeConverterAttribute_Equals_m2330345916
NSg:__Z90RuntimeInvoker_Boolean_t3825574718_Int32_t2071877448_Int32U26_t455636984_Int32_t2071877448PFvvEPK10MethodInfoPvPS4_
Rti:__ZL25UnresolvedVirtualCall_188P12Il2CppObjectiPK10MethodInfo
e$:__Z20UnlockObjectCreationv
Xng:__ZL89Input_t1785128008_CustomAttributesCacheGenerator_Input_INTERNAL_CALL_GetTouch_m1374677231P21CustomAttributesCache
tAh:_InternalEnumerator_1_System_Collections_IEnumerator_get_Current_m1038263751_gshared
PUg:__Z54RuntimeInvoker_Int32_t2071877448_LayerMask_t3188175821PFvvEPK10MethodInfoPvPS4_
bvi:_Hacker_Start_m3377866405
lqe:_MonoIO_CreateDirectory_m379525469
MWb:__ZNSt3__26vectorINS_4pairIN4core12basic_stringIcNS2_20StringStorageDefaultIcEEEES6_EE13stl_allocatorIS7_L18MemLabelIdentifier38ELi16EEE6insertENS_11__wrap_iterIPKS7_EERSD_
vXd:__ZN21InterfaceFuncInvoker2Ii22UILineInfo_t3621277874S0_E6InvokeEjP11Il2CppClassP12Il2CppObjectS0_S0_
nA:__ZN9BlobWrite8TransferI22OffsetPtrArrayTransferI9OffsetPtrIN7mecanim12statemachine18StateMachineMemoryEEEEEvRT_PKc17TransferMetaFlags
aUc:__ZNK14TransportProtoI12HeaderHelper15DownloadHandler13UploadHandler14ResponseHelperE13IsSynchronousEv
xxc:_UNITY_ft_smooth_renderer_class_pic_free
JLe:_List_1_System_Collections_IList_Remove_m3763718607_gshared
vff:_SslClientStream_remove_PrivateKeySelection_m427666577
h4c:_String_Concat_m2000667605
OBi:__ZN24dense_hashtable_iteratorINSt3__24pairIK10KeyWrapperIPK22Il2CppGenericParameterEP11Il2CppClassEES6_N6il2cpp5utils11PointerHashIS4_EEN14dense_hash_mapIS6_S9_SE_NS6_14EqualsComparerINS0_8equal_toIS5_EEEENS0_9allocatorISA_EEE9SelectKeyESJ_SL_E30advance_past_empty_and_deletedEv
faj:__ZN6il2cpp2vm6String8NewUtf16EPKDsi
Iwg:__ZL61Tile_t429716126_CustomAttributesCacheGenerator_m_ColliderTypeP21CustomAttributesCache
U6i:__ZN6il2cpp2os10ThreadImpl12QueueUserAPCEPFvPvES2_
AF:__Z32TransferEnumWithNameForceIntSizeI14SafeBinaryReadN10SampleClip17CompressionFormatEEvRT_RT0_PKc17TransferMetaFlags
WPc:__ZN22BaseUnityConnectClient10QueueEventERN11UnityEngine15CloudWebService17CloudServiceEventEPKcjb
aZg:__Z71RuntimeInvoker_Bounds_t3033363703_RuntimeObject_Matrix4x4U26_t266301477PFvvEPK10MethodInfoPvPS4_
P6d:_ExecuteEvents_GetEventHandler_TisRuntimeObject_m3333041576_gshared
bJe:__ZN23InterfaceActionInvoker2IP28UICharInfoU5BU5D_t2749705857iE6InvokeEjP11Il2CppClassP12Il2CppObjectS1_i
zdi:_Vector4__ctor_m3879980823_AdjustorThunk
u_c:_SHA384Managed_unpackWord_m2501009050
Nwc:_UNITY_FT_Hypot
atd:_BitConverter_ToInt64_m1329623425
j0b:__ZN8RendererC2E12RendererType18MemLabelIdentifier18ObjectCreationMode
Vdg:__ZL95ASCIIEncoding_t3022927988_CustomAttributesCacheGenerator_ASCIIEncoding_GetByteCount_m1396020051P21CustomAttributesCache
IMi:_il2cpp_class_is_abstract
wf:_emscripten_glGetError
hVi:__ZN15dense_hashtableINSt3__24pairIK10KeyWrapperIPK14Il2CppAssemblyEPK22Il2CppMonoAssemblyNameEES6_N6il2cpp5utils11PointerHashIS4_EEN14dense_hash_mapIS6_SA_SF_NS6_14EqualsComparerINS0_8equal_toIS5_EEEENS0_9allocatorISB_EEE9SelectKeyESK_SM_E14squash_deletedEv
mHg:__Z70RuntimeInvoker_Boolean_t3825574718_RuntimeObject_UInt64U26_t1611942494PFvvEPK10MethodInfoPvPS4_
sJ:__Z14FMOD_FILE_SeekPvjS_
Ksf:_MethodCall_get_Properties_m1893707917
P1f:__ZL72Enum_t2459695545_CustomAttributesCacheGenerator_Enum_ToObject_m604645223P21CustomAttributesCache
qhh:_ShimEnumerator_get_Entry_m2387156530_gshared
e2f:__ZL82RuntimeArray_CustomAttributesCacheGenerator_Array_SetValue_m2421438042____indices1P21CustomAttributesCache
PGi:__ZN14dense_hash_mapI10KeyWrapperIN6il2cpp5utils13dynamic_arrayIPK10Il2CppTypeLj4EEEEPFvvENS1_8metadata19Il2CppSignatureHashENS8_14EqualsComparerINSB_22Il2CppSignatureCompareEEENSt3__29allocatorINSG_4pairIKS8_SA_EEEEEC2EjRKSC_RKSF_
tkg:__ZL87BigInteger_t925946153_CustomAttributesCacheGenerator_BigInteger_op_Equality_m2683055762P21CustomAttributesCache
xti:__ZL25UnresolvedVirtualCall_168P12Il2CppObject19Vector3_t2243707580PK10MethodInfo
bUb:__ZNK13RenderTexture32CalculateNeedsInvertedProjectionEv
VYb:__ZN10systeminfo18GetOperatingSystemEv
Ef:emscriptenWebGLGet
Y2:__Z19CanReplaceComponentRN5Unity9ComponentEPKNS_4TypeEPN4core12basic_stringIcNS5_20StringStorageDefaultIcEEEE
d3f:__ZL77RuntimeArray_CustomAttributesCacheGenerator_Array_ConstrainedCopy_m1922927602P21CustomAttributesCache
t1b:__ZN12CubemapArray11InitTextureEiii13TextureFormatb
YJe:_List_1_GrowIfNeeded_m2433342921_gshared
jCa:__ZNK15Lz4Decompressor20DecompressStreamInitEPPv
$Ri:__ZN24dense_hashtable_iteratorINSt3__24pairIK10KeyWrapperIPK10Il2CppTypeEjEES6_N6il2cpp8metadata14Il2CppTypeHashEN14dense_hash_mapIS6_jSB_NS6_14EqualsComparerINSA_26Il2CppTypeEqualityComparerEEENS0_9allocatorIS8_EEE9SelectKeyESF_SH_E30advance_past_empty_and_deletedEv
kSe:_Collection_1_set_Item_m3803272710_gshared
D_f:_MonoMethodInfo_t3646562144_marshal_pinvoke_cleanup
Zmf:_X509Certificate2_get_SignatureAlgorithm_m3069898012
Gjf:_HttpRequestCreator__ctor_m2513916021
Une:_Int64_System_IConvertible_ToSingle_m1678482180
WA:__ZN7mecanim5human13HumanFixTwistEPKNS0_5HumanEPNS_8skeleton13SkeletonPoseTIN4math4trsXEEES9_iiRKf
UNb:__ZL24AssignProjectorQueuesJobP30AssignProjectorQueuesJobHeader
$If:_TimeSpan_get_Hours_m3804628138
kid:_FontData_set_alignByGeometry_m2819509290
f4i:__ZN14dense_hash_mapI10KeyWrapperIP12Il2CppObjectEN6il2cpp2gc9CachedCCWENS4_5utils11PointerHashIS1_EENS3_14EqualsComparerINSt3__28equal_toIS2_EEEENSB_9allocatorINSB_4pairIKS3_S6_EEEEEC2EjRKS9_RKSE_
_Ph:_Regex__ctor_m3250610064
vGi:__ZN15dense_hashtableINSt3__24pairIK10KeyWrapperIN6il2cpp5utils13dynamic_arrayIPK10Il2CppTypeLj4EEEEPFvvEEESA_NS3_8metadata19Il2CppSignatureHashEN14dense_hash_mapISA_SD_SG_NSA_14EqualsComparerINSF_22Il2CppSignatureCompareEEENS0_9allocatorISE_EEE9SelectKeyESK_SM_E4swapERSP_
ifb:__ZN9ShaderLab20SerializedSubProgram14SetConstBufferEPKci
yhe:_ArgumentNullException__ctor_m911049464
_Yf:_TargetParameterCountException__ctor_m2760108938
Wuf:_SoapAttribute_SetReflectionObject_m2774156012
g3e:_Comparison_1_Invoke_m345024424_gshared
FCc:_cf2_getStdVW
m0e:_ReadOnlyCollection_1_System_Collections_IList_Insert_m3936197025_gshared
IQd:_EventHandler_BeginInvoke_m3027583606
nW:__Z40DebugStringToFilePostprocessedStacktraceRK21DebugStringToFileData
Rqc:__Z29Transfer_Blittable_ArrayFieldI8JSONReadjEvRT_R9ArrayInfoRK23StaticTransferFieldInfo
lNh:_ContextAttribute__ctor_m4006843177
vBh:_InternalEnumerator_1_get_Current_m314017974_AdjustorThunk
kg:__setLetterbox
Rre:_MemoryStream__ctor_m1043059966
qSa:__ZNSt3__26__treeINS_12__value_typeIN9ShaderLab16FastPropertyNameEfEENS_19__map_value_compareIS3_S4_NS_4lessIS3_EELb1EEENS_9allocatorIS4_EEE12__find_equalIS3_EERPNS_16__tree_node_baseIPvEENS_21__tree_const_iteratorIS4_PNS_11__tree_nodeIS4_SE_EEiEESH_RKT_
P4f:__ZL57CollectionBase_t1101587467_CustomAttributesCacheGeneratorP21CustomAttributesCache
xuf:__ZN21InterfaceFuncInvoker3IP12Il2CppObjectP6Type_t28StreamingContext_t1417235061PS1_E6InvokeEjP11Il2CppClassS1_S3_S4_S5_
_0a:__ZNSt3__26vectorI17BlendShapeChannelNS_9allocatorIS1_EEE6assignINS_11__wrap_iterIPS1_EEEENS_9enable_ifIXaasr21__is_forward_iteratorIT_EE5valuesr16is_constructibleIS1_NS_15iterator_traitsISA_E9referenceEEE5valueEvE4typeESA_SA_
kpd:_LayoutElement_set_preferredWidth_m3072758716
jFb:__Z12SetGfxDeviceP9GfxDevice
Ilf:_AsnEncodedData_ToString_m724151831
RYh:_Object_CompareBaseObjects_m1461253683
OYb:__ZN11TimeManager11GetRealtimeEv
fRe:_Collection_1_System_Collections_IList_get_IsFixedSize_m2408637569_gshared
BGf:_UTF8Encoding_GetByteCount_m1469571127
MJ:__ZN29AudioEffectInternalDefinitionC2EP26UnityAudioEffectDefinitionb
iZf:_MonoMethodInfo_GetDeclaringType_m4186531677
uvf:_SoapTypeAttribute_SetReflectionObject_m1566293812
dqh:_DefaultComparer__ctor_m418731767_gshared
bD:__ZN4PPtrI6AvatarE8TransferI18StreamedBinaryReadILb0EEEEvRT_
joi:_Enumerator_System_Collections_IEnumerator_Reset_m2573763156_AdjustorThunk
Pwf:_RemotingServices_CreateClientProxy_m1631035355
iOf:_UInt64_ToString_m2892887310
pja:_stbir_resize
u9i:__ZN15dense_hashtableINSt3__24pairIK10KeyWrapperIPK19Il2CppGenericMethodEP10MethodInfoEES6_N6il2cpp8metadata23Il2CppGenericMethodHashEN14dense_hash_mapIS6_S9_SD_NS6_14EqualsComparerINSC_26Il2CppGenericMethodCompareEEENS0_9allocatorISA_EEE9SelectKeyESH_SJ_EC2ERKSM_j
JTi:__ZN15dense_hashtableINSt3__24pairIK10KeyWrapperINS1_IPK12PropertyInfoP11Il2CppClassEEEjEES9_17ReflectionMapHashIS8_EN14dense_hash_mapIS9_jSD_NS9_14EqualsComparerINS0_8equal_toIS8_EEEENS0_9allocatorISB_EEE9SelectKeyESI_SK_E5clearEv
h2a:__ZN4PPtrI4MeshE8TransferI14SafeBinaryReadEEvRT_
lBa:__Z37ReadDirectoryInfo_UnityWebAndUnityRawR12FileAccessorRKN20ArchiveStorageHeader6HeaderERNS1_13DirectoryInfoE
jWd:_Array_InternalArray__IEnumerable_GetEnumerator_TisInt64_t909078037_m1219751804_gshared
pZ:__ZNSt3__26__treeINS_12__value_typeIPKciEENS_19__map_value_compareIS3_S4_15compare_tstringIS3_ELb1EEENS_9allocatorIS4_EEE7destroyEPNS_11__tree_nodeIS4_PvEE
H3f:__ZL96RuntimeTypeHandle_t2330101084_CustomAttributesCacheGenerator_RuntimeTypeHandle_Equals_m452760426P21CustomAttributesCache
lph:_Dictionary_2_ToTValue_m1381983709_gshared
tye:_MulticastDelegate_KPM_m1592985119
rui:__ZL25UnresolvedVirtualCall_216P12Il2CppObjectiPK10MethodInfo
AQc:__ZN13dynamic_arrayIN4core12basic_stringIcNS0_20StringStorageDefaultIcEEEELj4EE6assignEPKS4_S7_
$Xe:_Collection_1_ConvertItem_m3941916604_gshared
Gza:__ZN15dense_hashtableINSt3__24pairIKN4core12basic_stringIcNS2_20StringStorageDefaultIcEEEEP20ArchiveStorageReaderEES6_20StringHash32FunctionIS6_EN14dense_hash_mapIS6_S9_SC_NS0_8equal_toIS6_EE13stl_allocatorISA_L18MemLabelIdentifier55ELi16EEE9SelectKeyESF_SI_E5clearEv
dKc:__ZN2UI6Canvas26MarkAllNestedCanvasesDirtyEv
q1i:__ZN6il2cpp2vm12ReboxIfBoxedEP14Il2CppIUnknownP11Il2CppClass
mCb:__ZN25PathNamePersistentManagerD2Ev
Z_:__ZN17PersistentManager48IntegrateObjectAndUnlockIntegrationMutexInternalEi
W0e:_ReadOnlyCollection_1_System_Collections_IList_get_IsReadOnly_m3872065502_gshared
m7f:__ZL112TypeBuilder_t3308873219_CustomAttributesCacheGenerator_TypeBuilder_MakeGenericType_m4282022646____typeArguments0P21CustomAttributesCache
q9:__ZZ29InitializeSortingGroupManagerPvEN44PostLateUpdateSortingGroupsUpdateRegistrator7ForwardEv
hp:__ZN6Object12SetHideFlagsENS_9HideFlagsE
iuj:_emscripten_glGetFramebufferAttachmentParameteriv__wrapper
THb:__ZN13RendererScene15InitializeUmbraEv
gNa:__Z28CalculateGlobalMatrixInverse23TransformAccessReadOnly
Q3f:__ZL60SecurityAttribute_t2016950496_CustomAttributesCacheGeneratorP21CustomAttributesCache
yad:_PointerEventData_ToString_m1218584363
Tvd:_Char_System_IConvertible_ToChar_m1489061093_AdjustorThunk
RFf:_UTF7Encoding_GetCharCount_m2589913583
hOi:_AnalyticsSessionInfo_CallSessionStateChanged_m2293069762
Hse:_MemoryStream_CalculateNewCapacity_m3533542025
jhj:__GLOBAL__sub_I_Runtime_cpp_38355
ETh:_Uri_Reduce_m2577728307
zJf:_TimeSpan_Equals_m4102942751_AdjustorThunk
ekh:_ValueCollection_System_Collections_Generic_ICollectionU3CTValueU3E_Add_m1903672223_gshared
qTc:__ZN12HeaderHelper14SetUnvalidatedERKN4core12basic_stringIcNS0_20StringStorageDefaultIcEEEES6_b
NF:__ZN4FMOD6SoundI7releaseEv
j2f:__ZL70RuntimeArray_CustomAttributesCacheGenerator_Array_SetValue_m1489959987P21CustomAttributesCache
Zad:_MouseButtonEventData__ctor_m618518000
PBa:__ZN10MemoryFile9SetLengthEy
uMf:_UInt16_ToString_m2038947049_AdjustorThunk
dsb:__ZN5RectTIiE8TransferI24GenerateTypeTreeTransferEEvRT_
oWa:__ZN14SafeBinaryRead21TransferSTLStyleArrayI13dynamic_arrayI7Hash128Lj8EEEEvRT_17TransferMetaFlags
lBb:__Z28scripting_class_is_interface17ScriptingClassPtr
Ah:_glTexStorage2D
mQa:__ZNK9ShaderLab10SubProgram14EnsureCompiledEv
pGg:__Z79RuntimeInvoker_Boolean_t3825574718_RuntimeObject_RuntimeObject_SByte_t454417549PFvvEPK10MethodInfoPvPS4_
lzf:_ObjectManager_RecordFixup_m3572285566
H5f:__ZL55DaylightTime_t3800227331_CustomAttributesCacheGeneratorP21CustomAttributesCache
ICd:_SortedList_InitTable_m460350503
v0:__Z18BuildScriptClassId17ScriptingClassPtr
Vxh:_InternalEnumerator_1_get_Current_m4279678504_AdjustorThunk
kq:__ZNK16LevelGameManager7GetNameEv
hRe:_Collection_1_System_Collections_IList_get_Item_m2415649949_gshared
FVf:_ILTokenInfo_t149559338_marshal_pinvoke_cleanup
HAa:__ZL31DeleteLastPathNameComponentImplRKN4core12basic_stringIcNS_20StringStorageDefaultIcEEEEPKc
e_b:__Z13RegisterClassI18DelayedCallManagerEvv
iQc:__ZN18UnityConnectClient15GetCloudServiceEv
mqb:__Z18Transfer_BlittableI24GenerateTypeTreeTransferLb0EiEvRK29SerializationCommandArgumentsR31RuntimeSerializationCommandInfo
_Ii:__ZN6il2cpp2os19SocketHandleWrapperD2Ev
fBb:__ZL28SerializationCommandGroupForRK31TransferFunctionScriptingTraits17ScriptingClassPtr17ScriptingFieldPtrRK20CoreScriptingClasses
QEa:__ZN10TagManager32RegisterDefaultTagsAndLayerMasksEv
Lki:_TweenRunner_1_StopTween_m2135918118_gshared
elh:_ValueCollection_get_Count_m4142113966_gshared
CHi:__ZN15dense_hashtableINSt3__24pairIK10KeyWrapperIPKcEP11Il2CppClassEES5_N6il2cpp5utils11StringUtils12StringHasherIS4_EEN14dense_hash_mapIS5_S8_SE_NS5_14EqualsComparerINSB_13VmStringUtils21CaseSensitiveComparerEEENS0_9allocatorIS9_EEE9SelectKeyESJ_SL_E15insert_noresizeERKS9_
wHf:_SynchronizationLockException__ctor_m549086841
Exd:_ArrayList_InsertRange_m1478230997
Dfa:__ZN4gles8InitCapsEP7ApiGLESP12GraphicsCapsR16GfxDeviceLevelGL
Jja:__ZN6prcore14BlitImageFloatERK14ImageReferenceRS0_NS0_8BlitModeE
xsd:_Swapper_EndInvoke_m677693941
WKa:__Z24CalculateVertexLightDataRK15SharedLightDataR14GfxVertexLight
TWh:_Color_get_black_m455352838
ii:_glEnable
A9a:__ZN15dense_hashtableINSt3__24pairIKiiEEi21InstanceIDHashFunctorN14dense_hash_mapIiiS4_NS0_8equal_toIiEE13stl_allocatorIS3_L18MemLabelIdentifier1ELi16EEE9SelectKeyES7_SA_E12maybe_shrinkEv
iQa:__ZNK9ShaderLab7Program28BeginReadUnsupportedVariantsEv
CJb:__ZNK25CameraStackRenderingState21GetImageEffectTextureEb
eAf:_RuntimeMethodHandle__ctor_m2437574937_AdjustorThunk
N6a:__ZNSt3__26vectorIN30RuntimeInitializeOnLoadManager9ClassInfoE13stl_allocatorIS2_L18MemLabelIdentifier13ELi16EEE7reserveEj
_1f:__ZL72RuntimeArray_CustomAttributesCacheGenerator_Array_get_Length_m1498215565P21CustomAttributesCache
qmc:__Z35Transfer_Blittable_FixedBufferFieldI9JSONWriteiEvRK29SerializationCommandArgumentsR31RuntimeSerializationCommandInfo
VLf:_UInt16_System_IConvertible_ToInt64_m2835280558_AdjustorThunk
Uxg:__ZL53g_UnityEngine_Assembly_CustomAttributesCacheGeneratorP21CustomAttributesCache
Iwi:_Predicate_1_BeginInvoke_m3926587117_gshared
VD:__ZZN8Animator15InitializeClassEvEN31FunctorImpl_427kDidModifyAvatar4CallEPviR11MessageData
F_e:_ReadOnlyCollection_1_System_Collections_IList_Remove_m2779327941_gshared
ix:__ZN26AnimatorControllerPlayable17ProcessRootMotionEP35AnimationPlayableEvaluationConstantP32AnimationPlayableEvaluationInputP33AnimationPlayableEvaluationOutput
HGg:__Z94RuntimeInvoker_Boolean_t3825574718_Int32_t2071877448_SByte_t454417549_ExceptionU26_t1467204777PFvvEPK10MethodInfoPvPS4_
mgd:_DefaultControls_CreateToggle_m1568873127
vNe:_List_1__cctor_m1022807427_gshared
D4f:__ZL63KeyNotFoundException_t1722175009_CustomAttributesCacheGeneratorP21CustomAttributesCache
Yoh:_Dictionary_2_InitArrays_m2270022740_gshared
lEd:_Convert_ToBoolean_m2188088811
KOc:__ZN11UnityEngine7Connect15DeviceInfoEvent16CollectExtraInfoEv
gFf:_UnicodeEncoding_GetChars_m3765282346
Hoe:_IntPtr__ctor_m4104029105
vbg:__ZL114BinaryFormatter_t1866979105_CustomAttributesCacheGenerator_BinaryFormatter_get_DefaultSurrogateSelector_m219714691P21CustomAttributesCache
HCh:_InternalEnumerator_1_System_Collections_IEnumerator_get_Current_m771161214_AdjustorThunk
txe:_MonoType_get_attributes_m1493788675
KCa:__ZN20ArchiveStorageReader10InitializeER15FileSystemEntryyb
Xmj:_atol
VGd:_Convert_ToDouble_m4236754739
Eff:_SslClientStream_get_PrivateKeyCertSelectionDelegate_m3715949545
xEi:__ZN15dense_hashtableINSt3__24pairIK10KeyWrapperIPKcEP11Il2CppClassEES5_N6il2cpp5utils11StringUtils12StringHasherIS4_EEN14dense_hash_mapIS5_S8_SE_NS5_14EqualsComparerINSB_13VmStringUtils21CaseSensitiveComparerEEENS0_9allocatorIS9_EEE9SelectKeyESJ_SL_EC2EjRKSE_RKSJ_RKSN_
Chd:_Dropdown_CreateItem_m2702141380
g2e:_ReadOnlyCollection_1_IndexOf_m224962127_gshared
k5f:__ZL48Stack_t1043988394_CustomAttributesCacheGeneratorP21CustomAttributesCache
uo:FUNCTION_TABLE_viifi
F$g:__Z59RuntimeInvoker_Boolean_t3825574718_ResourceInfo_t3933049236PFvvEPK10MethodInfoPvPS4_
sZf:_MonoEvent_GetAddMethod_m4289563120
q3f:__ZL37Type_t_CustomAttributesCacheGeneratorP21CustomAttributesCache
kGc:_UNITY_tt_face_free_hdmx
rXi:__ZN15dense_hashtableINSt3__24pairIK10KeyWrapperINS1_IP11Il2CppClassjEEES4_EES6_N6il2cpp8metadata14ArrayClassHashEN14dense_hash_mapIS6_S4_SB_NS6_14EqualsComparerINSA_17ArrayClassCompareEEENS0_9allocatorIS8_EEE9SelectKeyESF_SH_E5clearEv
WDi:__ZNSt3__218uninitialized_copyIPNS_4pairIK10KeyWrapperIPK11Il2CppClassEPKcEESB_EET0_T_SD_SC_
FOi:__ZN6il2cpp2vm14TypeNameParser5ParseEb
i8g:_ReflectionMethodsCache__ctor_m1835220
K4f:__ZL71SynchronizedArrayListWrapper_t3317806524_CustomAttributesCacheGeneratorP21CustomAttributesCache
HSc:__ZN23UnityPurchasingSettingsC2Ev
mPd:_Double_ToString_m1864290157
Doj:__ZNSt9bad_allocD0Ev
rPg:__Z50RuntimeInvoker_Int64_t909078037_Double_t4078015681PFvvEPK10MethodInfoPvPS4_
Rqg:__ZL120NativeClassAttribute_t1576243993_CustomAttributesCacheGenerator_NativeClassAttribute_set_QualifiedNativeName_m4139686864P21CustomAttributesCache
cUb:__ZL10RenderFaceR9GfxDeviceR18MaterialStateCacheP13RenderTextureiif
jci:_SpriteAtlasManager__cctor_m453260161
g2i:__ZNK24NamespaceAndNamePairHashclERKNSt3__24pairIPKcS3_EE
vja:__ZL37stbir__resample_horizontal_downsampleP11stbir__infoiPf
xSe:__ZN21InterfaceFuncInvoker1Ib18Color32_t874517518E6InvokeEjP11Il2CppClassP12Il2CppObjectS0_
V9a:__ZNK5Unity9Component38MarkGameObjectAndComponentDependenciesER27GarbageCollectorThreadState
xX:__ZL16OutOfMemoryErrorjj18MemLabelIdentifieriPKc
KTc:__ZN20UnityWebRequestProtoI24UnityWebRequestTransport16AtomicRefCounter14RedirectHelper14ResponseHelper15DownloadHandler13UploadHandler12HeaderHelper14AsyncOperationED0Ev
Maf:_RecordProtocol_SendRecord_m132002114
gN:__ZNK7Texture21GetShadowSamplingModeEv
W0:__ZNK11TypeManager15ClassNameToRTTIEPKcb
GZa:__ZN13ScreenManager21OnWindowRegainedFocusEv
Eyb:__Z18Transfer_BlittableI18StreamedBinaryReadILb0EELb1EdEvRK29SerializationCommandArgumentsR31RuntimeSerializationCommandInfo
Ivj:_emscripten_glVertexAttrib2fv__wrapper
wje:_Guid__ctor_m2599802704
hre:_FileStream_get_CanRead_m4148920720
BUc:__ZN13RuntimeStaticINSt3__26vectorIPN5physx15PxVehicleWheelsENS0_9allocatorIS4_EEEELb0EE13StaticDestroyEPv
C3g:__Z31RuntimeInvoker_Link_t2723257478PFvvEPK10MethodInfoPvPS4_
Bia:__ZN4crnd12symbol_codec32decode_receive_static_data_modelERNS_25static_huffman_data_modelE
kZb:__ZN18ScriptingArguments8AddFloatEf
Nhe:_GregorianCalendar_set_CalendarType_m2438362222
Ifd:_FloatTween_get_targetValue_m2120061648_AdjustorThunk
dKg:__Z44RuntimeInvoker_RuntimeTypeHandle_t2330101084PFvvEPK10MethodInfoPvPS4_
z8i:__ZN6il2cpp2vmL24HexValueToLowercaseAsciiEh
bUd:_Array_InternalArray__ICollection_Contains_TisVector2_t2243707579_m3625698589_gshared
AOc:__ZN11UnityEngine15PlatformWrapper16GetVRRenderScaleEv
qnc:__Z18Transfer_BlittableI9JSONWriteLb0EaEvRK29SerializationCommandArgumentsR31RuntimeSerializationCommandInfo
xGg:__Z45RuntimeInvoker_SByte_t454417549_RuntimeObjectPFvvEPK10MethodInfoPvPS4_
bR:__ZN11UnityEngine15CloudWebService14DataDispatcher34OnSessionContainerArchivedAndReadyERNS0_16SessionContainerE
yzi:_RectTransformUtility_PixelAdjustPoint_m1375786599
yie:_NumberFormatInfo_GetFormat_m3247563525
Lfg:__ZL77Convert_t2607082565_CustomAttributesCacheGenerator_Convert_ToByte_m2303223565P21CustomAttributesCache
$hi:_InvokableCall_3_Find_m1268604653_gshared
Isb:__Z18Transfer_BlittableI19StreamedBinaryWriteILb0EELb0E8Vector3fEvRK29SerializationCommandArgumentsR31RuntimeSerializationCommandInfo
Yab:__ZN14SafeBinaryRead19TransferSTLStyleMapINSt3__23mapIN4core12basic_stringIcNS3_20StringStorageDefaultIcEEEEiNS1_4lessIS7_EENS1_9allocatorINS1_4pairIKS7_iEEEEEEEEvRT_17TransferMetaFlags
$Si:__ZN15dense_hashtableINSt3__24pairIK10KeyWrapperINS1_IPK11Il2CppImageP11Il2CppClassEEEjEES9_17ReflectionMapHashIS8_EN14dense_hash_mapIS9_jSD_NS9_14EqualsComparerINS0_8equal_toIS8_EEEENS0_9allocatorISB_EEE9SelectKeyESI_SK_ED2Ev
eyc:_gray_move_to
HVc:_DSAParameters_t1872138834_marshal_pinvoke
dUg:__Z37RuntimeInvoker_ContentType_t859870085PFvvEPK10MethodInfoPvPS4_
vXe:_Collection_1_System_Collections_IEnumerable_GetEnumerator_m4174600764_gshared
VTi:__ZN6il2cpp2vm10Reflection14GetEventObjectEP11Il2CppClassPK9EventInfo
Vaf:_TlsStream_Write_m2271546135
U9b:__Z30RegisterValidateMethodCallbackiPF18ScriptingMethodPtrS_17ScriptingClassPtrP6ObjectEPKc
tib:__ZN20LocalFileSystemPosixD0Ev
hSd:_CultureInfo_ConstructInternalLocaleFromCurrentLocale_m1342751405
mEf:_Latin1Encoding_GetString_m3553289597
u8g:_GetRayIntersectionAllNonAllocCallback_Invoke_m1247446986
Dzc:_tt_cmap_init
Irc:__ZN8JSONRead8TransferI9BoundsIntEEvRT_PKc17TransferMetaFlagsb
Ia:invoke_viidi
lgh:_Enumerator_get_Current_m1020413567_AdjustorThunk
gFe:_List_1_System_Collections_IList_get_IsFixedSize_m1122077912_gshared
P3i:__ZN15dense_hashtableI10KeyWrapperIP18Il2CppGenericClassES3_N6il2cpp8metadata22Il2CppGenericClassHashEN14dense_hash_setIS3_S6_NS3_14EqualsComparerINS5_25Il2CppGenericClassCompareEEENSt3__29allocatorIS3_EEE8IdentityESA_SD_E12maybe_shrinkEv
gwb:__Z29Transfer_Blittable_ArrayFieldI18StreamedBinaryReadILb1EEdEvRT_R9ArrayInfoRK23StaticTransferFieldInfo
lI:__ZN9AudioClip7CleanupEv
DTi:__ZN15dense_hashtableINSt3__24pairIK10KeyWrapperINS1_IPK12PropertyInfoP11Il2CppClassEEEjEES9_17ReflectionMapHashIS8_EN14dense_hash_mapIS9_jSD_NS9_14EqualsComparerINS0_8equal_toIS8_EEEENS0_9allocatorISB_EEE9SelectKeyESI_SK_E8min_sizeEjj
mhg:__ZL79Convert_t2607082565_CustomAttributesCacheGenerator_Convert_ToUInt64_m2215781574P21CustomAttributesCache
Ddi:_Vector4_set_Item_m1525226067_AdjustorThunk
Mzj:_emscripten_glCheckFramebufferStatus__wrapper
DYi:__ZNK15dense_hashtableINSt3__24pairIK10KeyWrapperIP11Il2CppClassES4_EES5_N6il2cpp8metadata16SZArrayClassHashEN14dense_hash_mapIS5_S4_SA_NS5_14EqualsComparerINS9_19SZArrayClassCompareEEENS0_9allocatorIS7_EEE9SelectKeyESE_SG_E12test_deletedEj
jqc:__Z18Transfer_BlittableI8JSONReadLb0EdEvRK29SerializationCommandArgumentsR31RuntimeSerializationCommandInfo
Z_g:__Z83RuntimeInvoker_Boolean_t3825574718_NavigationU26_t3929175072_Navigation_t1571958496PFvvEPK10MethodInfoPvPS4_
zJe:_List_1_TrimExcess_m2004514756_gshared
QHf:_Thread_ClrState_m822263449
wvg:__ZL81GUIStyle_t1799908754_CustomAttributesCacheGenerator_GUIStyle_get_name_m3609546529P21CustomAttributesCache
w8d:_SimpleCollator_LastIndexOfOrdinalIgnoreCase_m550798345
hZh:_PersistentCall_get_mode_m4087575475
waa:__ZNK9GfxDevice13GetViewMatrixEv
XVh:_Bounds_Encapsulate_m17114941
T8a:__ZN17RemapPPtrTransferC2E24TransferInstructionFlagsb
Y1:__ZN8TypeTree8BlobReadERPKhS1_ib
wmh:_Dictionary_2_System_Collections_Generic_ICollectionU3CSystem_Collections_Generic_KeyValuePairU3CTKeyU2CTValueU3EU3E_Remove_m3080541539_gshared
$Ye:_ReadOnlyCollection_1_System_Collections_IList_get_IsFixedSize_m942145650_gshared
YHa:__ZN6CameraD0Ev
jgi:_GUILayoutUtility_Begin_m659595645
X9d:_ModulusRing_Multiply_m386339435
u7:__ZN31CanvasBatchIntermediateRenderer16StaticInitializeEPv
Ujd:_GraphicRaycaster_U3CRaycastU3Em__0_m3971200721
G_e:_ReadOnlyCollection_1_System_Collections_IList_RemoveAt_m3004588099_gshared
yw:__ZN7mecanim12AndValueMaskILb0EEEvPKNS_14ValueArrayMaskEPS1_
B6a:__ZN14SafeBinaryRead21TransferSTLStyleArrayINSt3__26vectorIi13stl_allocatorIiL18MemLabelIdentifier13ELi16EEEEEEvRT_17TransferMetaFlags
BGd:_Decimal_op_Implicit_m4246329390
Ahe:_ArgumentNullException__ctor_m2252076819
cVb:__ZN10GameObjectC2E18MemLabelIdentifier18ObjectCreationMode
OGc:_raccess_guess_apple_double
l1g:__Z70RuntimeInvoker_Void_t1841601450_CustomAttributeNamedArgument_t94157543PFvvEPK10MethodInfoPvPS4_
wxe:_MonoType_GetAttributeFlagsImpl_m250699879
tTf:_TypeBuilder_get_FullName_m1626507516
Jyf:_SerializationInfo__ctor_m4016423422
Kma:__ZL18ProgramUniform1uivPK7ApiGLESjiihPKv
D1b:__ZN14Texture2DArray13RebuildMipMapEv
wDi:__ZN13Il2CppHashSetIPK17Il2CppGenericInstN6il2cpp8metadata21Il2CppGenericInstHashENS4_24Il2CppGenericInstCompareENSt3__29allocatorI10KeyWrapperIS2_EEEEC2EjRKS5_RKS6_
YRe:_Collection_1_Clear_m2734620236_gshared
l8i:__ZN6il2cpp2gc16GarbageCollector14RemoveWeakLinkEPPv
jfb:__ZN9ShaderLab20SerializedSubProgram14AddVectorParamEPKcii15ShaderParamTypei
NLc:__ZN2UI14CanvasRenderer12CleanupClassEv
n1e:_ReadOnlyCollection_1_System_Collections_IEnumerable_GetEnumerator_m1734360860_gshared
Hqh:_DefaultComparer__ctor_m1052417779_gshared
Y1c:_SystemException__ctor_m2688248668
cJh:_ResourceSet_ReadResources_m1669023823
Mfe:_PKCS12_RemoveCertificate_m1590055870
pZi:__ZN6il2cpp2vm6Thread7SetNameEP12Il2CppThreadP12Il2CppString
P6f:__ZL117GenericTypeParameterBuilder_t1370236603_CustomAttributesCacheGenerator_GenericTypeParameterBuilder_Equals_m2498927509P21CustomAttributesCache
uDb:__ZN13ScreenManager18SetAllowCursorLockEb
vS:__ZN11UnityEngine15CloudWebService10RestClientINS0_23WebRequestRestHeaderMapEE16SetRequestHeaderERKN4core12basic_stringIcNS4_20StringStorageDefaultIcEEEESA_
G6a:__ZN30RuntimeInitializeOnLoadManager15ClassMethodInfo8TransferI14SafeBinaryReadEEvRT_
pEg:__ZL73CanvasScaler_t2574720772_CustomAttributesCacheGenerator_m_ScreenMatchModeP21CustomAttributesCache
VO:__ZL22InitializeModule_Audiov
Fjb:__ZN16MemoryFileSystem8IsLockedERK13FileEntryData
Z_i:__ZN6il2cpp6icalls8mscorlib6System2IO6MonoIO5WriteEiP11Il2CppArrayiiPi
aZf:_MonoCMethod_Invoke_m931478014
fIg:__Z86RuntimeInvoker_Int32_t2071877448_Int16_t4041245914_Int32_t2071877448_Int32_t2071877448PFvvEPK10MethodInfoPvPS4_
jJh:_SatelliteContractVersionAttribute__ctor_m2605651717
Tk:_emscripten_glBindRenderbuffer
Vqg:__ZL77RuntimePlatform_t1869584967_CustomAttributesCacheGenerator_OSXDashboardPlayerP21CustomAttributesCache
w6c:_DecoderExceptionFallbackBuffer_GetNextChar_m1727394816
Nej:_GC_dirty_init
Jrd:_Array_Copy_m1969461849
byf:_MessageFormatter_ReadMethodResponse_m4134629501
m5i:__ZN6il2cpp2vm5Field14GetValueObjectEP9FieldInfoP12Il2CppObject
iLc:__ZNK2UI6Canvas16GetTargetDisplayEv
uQd:_Environment_get_OSVersion_m1247315981
l5:__ZN6Object17FindObjectsOfTypeEPKN5Unity4TypeER13dynamic_arrayIPS_Lj4EEb
f5b:__ZNSt3__26vectorINS_4pairIiiEE13stl_allocatorIS2_L18MemLabelIdentifier1ELi16EEE21__push_back_slow_pathIKS2_EEvRT_
Tpf:_Capture_get_Length_m1952322390
Ync:__ZN9JSONWrite8TransferI4PPtrI9Texture2DEEEvRT_PKc17TransferMetaFlags
FAb:__ZN13MonoBehaviour17RemoveFromManagerEv
IIa:__ZN12ImageFilters14AddImageFilterERK11ImageFilter
WLc:__ZL23RegisterModuleICalls_UIv
cZa:__ZL11DecodeValuePPKcS0_
Rhh:_ShimEnumerator_MoveNext_m2013866013_gshared
CV:__ZN13MemoryManagerC2Ev
fqa:__ZN12SkinMeshInfo10DeallocateEPS_
Ttg:__ZL66AnimationOffsetPlayable_t1019600543_CustomAttributesCacheGeneratorP21CustomAttributesCache
cCa:__ZN20ArchiveStorageReader28AcquireAndPrefillUnusedBlockEjPNS_11CacheResultE
x1b:__Z12NHxRoughnessIA4_tEvP9Texture2DPT_iiii
Utf:_MethodDictionary_get_SyncRoot_m673971424
H5:__ZN18AsyncUploadManagerD2Ev
hhb:__ZN9Transform5ResetEv
tsb:__Z22TransferField_NonArrayI24GenerateTypeTreeTransfer16Converter_StringEvRK23StaticTransferFieldInfoR31RuntimeSerializationCommandInfoRT0_
Wlg:__ZL90Camera_t189460977_CustomAttributesCacheGenerator_Camera_INTERNAL_get_pixelRect_m4124985255P21CustomAttributesCache
tzc:_UNITY_FT_CMap_New
nDb:__Z17MainLoopKeepalivePv
JOh:_MatchCollection__ctor_m1944681790
RWc:_HMACSHA512__ctor_m1667460019
hFi:__ZN15dense_hashtableI10KeyWrapperIPK17Il2CppGenericInstES4_N6il2cpp8metadata21Il2CppGenericInstHashEN14dense_hash_setIS4_S7_NS4_14EqualsComparerINS6_24Il2CppGenericInstCompareEEENSt3__29allocatorIS4_EEE8IdentityESB_SE_E12expand_arrayEjN21dense_hash_map_traits17integral_constantIbLb0EEE
Okj:_printf_core
Ohi:_InvokableCall_1_Find_m1347741199_gshared
l$c:_ToBase64Transform_get_OutputBlockSize_m949275583
jye:_MonoType_ToString_m473949831
kSb:__Z14CalcHullBoundsPK8Vector3fPKhhRK5PlaneRK10Matrix4x4fR10MinMaxAABB
$vf:_RealProxy__ctor_m2147093603
zLe:_List_1__ctor_m3511181530_gshared
YKb:__Z19SetupLODFadeKeywordR17ShaderPassContexti
R_e:_ReadOnlyCollection_1_get_Count_m2180604490_gshared
htb:__Z18Transfer_BlittableI19StreamedBinaryWriteILb0EELb0E5RectTIfEEvRK29SerializationCommandArgumentsR31RuntimeSerializationCommandInfo
rdj:_GC_set_fl_marks
Kpa:__ZL25CheckCopyTextureArgumentsRK7ApiGLESP11GLESTextureS3_
X7a:__ZN13dynamic_arrayI26EnlightenSystemInformationLj8EE6insertEPS0_PKS0_S4_
Zyc:_tt_name_entry_ascii_from_utf16
vye:_MulticastNotSupportedException__ctor_m2164514827
wJd:_DateTime_System_IConvertible_ToChar_m2489529194_AdjustorThunk
Srb:__Z29Transfer_Blittable_ArrayFieldI24GenerateTypeTreeTransferyEvRT_R9ArrayInfoRK23StaticTransferFieldInfo
YI:__ZN4FMOD7SystemI9playSoundE17FMOD_CHANNELINDEXPNS_5SoundEbPPNS_7ChannelE
Kji:_UnityEvent_1_GetDelegate_m1805195420_gshared
t2f:__ZL74RuntimeArray_CustomAttributesCacheGenerator_Array_BinarySearch_m1368352453P21CustomAttributesCache
aRh:_Regex_GetGroupIndex_m1686599756
Crg:__ZL68PreferBinarySerialization_t2472773525_CustomAttributesCacheGeneratorP21CustomAttributesCache
rMg:__Z66RuntimeInvoker_Int64_t909078037_Int64_t909078037_Int32_t2071877448PFvvEPK10MethodInfoPvPS4_
xw:__ZN27AnimationLayerMixerPlayable17LayerMixerProcessEP35AnimationPlayableEvaluationConstantP32AnimationPlayableEvaluationInputP33AnimationPlayableEvaluationOutputM17AnimationPlayableFvS1_S3_S5_EMS_FvS1_S3_S5_ESA_MS_FvS5_S1_S3_S5_ifE
fOi:__ZN6il2cpp2os4File4ReadEPNS0_10FileHandleEPciPi
yH:__ZN12AudioManager23VirtualRedirectTransferER18StreamedBinaryReadILb0EE
LDe:_List_1_Remove_m2616693989_gshared
inj:_realloc
Agc:__Z57Register_UnityEngine_Transform_INTERNAL_get_localRotationv
Ebh:_ScrollRect_SetLayoutVertical_m1225848090
O1h:_Plane_ToString_m4267831659_AdjustorThunk
pKf:_Type_get_IsInterface_m3583817465
t6a:__ZN30RuntimeInitializeOnLoadManager23VirtualRedirectTransferER17RemapPPtrTransfer
hrj:dynCall_viif
KZf:_MonoField_get_DeclaringType_m1591666235
hvh:_InternalEnumerator_1__ctor_m2111763266_AdjustorThunk
msf:_Enumerator_MoveNext_m4234629003
FDc:_cf2_hint_lock
ypb:__ZL26Transfer_SimpleNativeClassI17RemapPPtrTransfer8GradientLb0EEvRK29SerializationCommandArgumentsR31RuntimeSerializationCommandInfo
hy:__ZN17AnimationPlayable26DisconnectNoTopologyChangeEPS_i
h2f:__ZL69RuntimeArray_CustomAttributesCacheGenerator_Array_GetValue_m518505780P21CustomAttributesCache
yQg:__Z52RuntimeInvoker_UInt64_t2909196914_Single_t2076509932PFvvEPK10MethodInfoPvPS4_
fxg:__ZL105UISystemProfilerApi_t845863050_CustomAttributesCacheGenerator_UISystemProfilerApi_BeginSample_m2271080056P21CustomAttributesCache
Agg:__ZL78Convert_t2607082565_CustomAttributesCacheGenerator_Convert_ToSByte_m1880147062P21CustomAttributesCache
uxe:_MonoType_GetDefaultConstructor_m925465120
aLf:_Type_IsArrayImpl_m3073208555
dT:__ZN13UploadHandlerD2Ev
Fpj:dynCall_viiiiiffi
yc:_emscripten_glBlendFuncSeparate
VUf:_GenericTypeParameterBuilder_IsPrimitiveImpl_m1198748291
g_:__Z20scripting_string_newPKc
Xec:__Z43Material_CUSTOM_Internal_CreateWithMaterialP12Il2CppObjectS0_
eqe:_Directory_GetCurrentDirectory_m44486537
csg:__ZL56UnityEventBase_t828812576_CustomAttributesCacheGeneratorP21CustomAttributesCache
Lug:__ZL105AudioSource_t1135106623_CustomAttributesCacheGenerator_AudioSource_ReadExtensionPropertyValue_m4251175592P21CustomAttributesCache
BPe:_Collection_1_System_Collections_ICollection_CopyTo_m1047946700_gshared
Lji:_UnityEvent_1_GetDelegate_m4072848279_gshared
Olc:__ZN9JSONWrite12AppendToNodeEPN5Unity9rapidjson12GenericValueINS1_4UTF8IcEE13JSONAllocatorEEPKcRS6_
KHd:_Convert_ToInt64_m4057339019
aYi:__ZNSt3__218uninitialized_copyIPNS_4pairIK10KeyWrapperIP11Il2CppClassES4_EES8_EET0_T_SA_S9_
EB:__ZNSt3__26__sortIRPFbPKN8Animator11AnimatorJobES4_EPS4_EEvT0_S9_T_
FG:__ZN17AudioCustomFilterD2Ev
ujc:__ZN11IMGUIModule26SetDeveloperConsoleVisibleEb
ohb:__ZN9Transform16ResetReplacementEv
uoa:__ZN18GfxFramebufferGLES18ReleaseFramebufferEP17RenderSurfaceBaseP14GfxContextGLES
AMh:_Context_GetDynamicPropertyCollection_m1987747444
anf:_X509Certificate2_get_Version_m1927399907
B3b:__ZN13ProduceHelperI6CameraLb0EE7ProduceE18MemLabelIdentifier18ObjectCreationMode
Ald:_Image_RadialCut_m3229543088
BU:__ZN19CloudServiceHandler34HandleSaveFileWebRequestPlayerLoopEv
Ux:__ZN7mecanim21ValueArrayReverseCopyEPKNS_18ValueArrayConstantEPKNS_10ValueArrayES2_PS3_PKi
nG:__Z31GetParentSampleClipFromInstancePN11SoundHandle8InstanceE
H$b:__ZNK28RectTransformPropertyBinding13GetFloatValueERKN11UnityEngine9Animation10BoundCurveE
zUb:__ZN6Camera22StandaloneCustomRenderENS_10RenderFlagEP6ShaderRKN4core12basic_stringIcNS3_20StringStorageDefaultIcEEEEPNS_21PerformRenderFunctionE
Y5a:__ZNSt3__26vectorI4PPtrI6ObjectE13stl_allocatorIS3_L18MemLabelIdentifier52ELi16EEE6assignINS_11__wrap_iterIPS3_EEEENS_9enable_ifIXaasr21__is_forward_iteratorIT_EE5valuesr16is_constructibleIS3_NS_15iterator_traitsISD_E9referenceEEE5valueEvE4typeESD_SD_
zjj:__ZN6il2cpp2os16ThreadLocalValue8GetValueEPPv
JHi:__ZN6il2cpp2vm13MetadataCache14GetGenericInstEPKPK10Il2CppTypej
m_c:_SHA384Managed_Initialize_m712692291
cwh:_InternalEnumerator_1__ctor_m2688327768_gshared
YO:__ZN13AudioListener17ReadExtensionNameEi
aLh:_ChannelInfo__ctor_m2502026239
Lb:invoke_iiidii
S8f:__ZL60CallingConvention_t3354538265_CustomAttributesCacheGeneratorP21CustomAttributesCache
BO:__ZN9AudioClip15InitializeClassEv
Zo:setThrew
p1b:__ZL21BuildEmptyCubeTexturePKci11ColorRGBA3217TextureColorSpace
uei:_Event_get_modifiers_m3267430607
$ab:__ZN14SafeBinaryRead21TransferSTLStyleArrayINSt3__26vectorIN9ShaderLab20SerializedSubProgramENS1_9allocatorIS4_EEEEEEvRT_17TransferMetaFlags
C$g:__Z67RuntimeInvoker_Boolean_t3825574718_RefEmitPermissionSet_t2708608433PFvvEPK10MethodInfoPvPS4_
Dbd:_StandaloneInputModule_set_cancelButton_m2642677329
ipc:__Z15Transfer_StringI8JSONReadLb1EEvRK29SerializationCommandArgumentsR31RuntimeSerializationCommandInfo
Chf:_BasicConstraintsExtension_Encode_m3738782306
oMb:__Z25DoForwardShaderRenderLoopR17RenderLoopContextR13dynamic_arrayI16RenderObjectDataLj4EERK11CullResultsbbbN6Camera10RenderFlagE
p6d:_GameObject_GetComponent_TisRuntimeObject_m2812611596_gshared
xyc:_sfnt_load_face
Vee:_PKCS12_GetSymmetricAlgorithm_m1812022677
fGf:_UTF8Encoding_GetByteCount_m2372933408
xMh:_Context_get_NeedsContextSink_m1907794755
oyc:_UNITY_ft_service_list_lookup
Nbi:_Transform_get_localScale_m46214814
p6e:_ARC4Managed_GenerateKey_m716135508
rpb:__Z18Transfer_BlittableI17RemapPPtrTransferLb1E11ColorRGBA32EvRK29SerializationCommandArgumentsR31RuntimeSerializationCommandInfo
Tic:__ZN5IMGUI21SelectReceivingWindowER8GUIStateb
mCh:_InternalEnumerator_1_get_Current_m3179981210_gshared
bV:__ZN13BaseAllocator13TryDeallocateEPv
wub:__Z29Transfer_Blittable_ArrayFieldI19StreamedBinaryWriteILb0EEfEvRT_R9ArrayInfoRK23StaticTransferFieldInfo
trd:_Array_CreateInstance_m1054139389
vki:_U3CStartU3Ec__Iterator0_Reset_m2580847683_gshared
Hwh:_InternalEnumerator_1__ctor_m967618647_AdjustorThunk
njb:__ZN16MemoryFileSystem5WriteER13FileEntryDatayPvPy
zWg:__Z74RuntimeInvoker_Vector4_t2243707581_Vector4_t2243707581_Vector4_t2243707581PFvvEPK10MethodInfoPvPS4_
qmh:_Dictionary_2_System_Collections_ICollection_get_IsSynchronized_m1738433079_gshared
QJa:__ZNSt3__26vectorIN12FlareManager10FlareEntryENS_9allocatorIS2_EEE21__push_back_slow_pathIKS2_EEvRT_
WQf:_Default_check_arguments_with_score_m1714931543
mvi:_InputBuffer__ctor_m775014973
NVc:_SHA1_Create_m4086509717
s_f:_MonoMethodInfo_GetMethodInfo_m3298558752
fH:__ZN13AudioListener17RemoveFromManagerEv
sd:_glAttachShader
Ghd:_Dropdown_SetAlpha_m2769981009
nGa:__ZNK6Camera19GetProjectionMatrixEv
owi:_Predicate_1_BeginInvoke_m1856151290_gshared
oOd:_StackTrace__ctor_m2404985356
c0:__Z38PreallocateObjectFromPersistentManagerib
KJd:_DateTime_System_IConvertible_ToSingle_m3927769066
FUa:__ZNK9Texture2D20GetUnscaledTextureIDEv
VHd:_Convert_ToSByte_m883113940
wyi:_Canvas_get_renderOrder_m2592588836
xog:__ZL77Mesh_t1356156583_CustomAttributesCacheGenerator_Mesh_GetIndicesImpl_m50468169P21CustomAttributesCache
lye:_MonoType_get_ContainsGenericParameters_m3229732653
SOe:_Queue_1_Peek_m1463479953_gshared
SAi:_Animator_ResetTriggerString_m946167554
OBg:__ZL53InputField_t1631627530_CustomAttributesCacheGeneratorP21CustomAttributesCache
Nei:_GUI_set_skin_m929513544
fdd:_ButtonClickedEvent__ctor_m938038541
xzb:__ZN18StreamedBinaryReadILb0EE21TransferSTLStyleArrayI13dynamic_arrayI4AABBLj4EEEEvRT_17TransferMetaFlags
_Og:__Z119RuntimeInvoker_Int32_t2071877448_RuntimeObject_Int32_t2071877448_Int32_t2071877448_CharU26_t1894467670_SByte_t454417549PFvvEPK10MethodInfoPvPS4_
PLf:_UInt16_System_IConvertible_ToDouble_m4100549304_AdjustorThunk
i8a:__Z29ClearRepeatingLogMessageStatev
O2c:_Single_System_IConvertible_ToInt16_m962677079
_4:__ZN21EnlightenSceneMappingaSERKS_
BWe:_Collection_1_SetItem_m546457615_gshared
Sjj:__ZNK6il2cpp8metadata21Il2CppGenericInstHashclEPK17Il2CppGenericInst
a3c:_Single_System_IConvertible_ToUInt32_m2447833283
oua:__ZN7ApiGLESD2Ev
iEa:__ZN9Transform47ClearTransformHierarchyAndApplyToSerializedDataEv
JAh:_InternalEnumerator_1_get_Current_m4083613828_AdjustorThunk
xqc:__ZN8JSONRead21TransferSTLStyleArrayINSt3__26vectorI8MonoPPtr13stl_allocatorIS3_L18MemLabelIdentifier1ELi16EEEEEEvRT_17TransferMetaFlags
VXc:_RijndaelManaged_GenerateKey_m3366247933
Mpe:_BinaryReader_ReadUInt64_m1893783375
cIa:__ZN6Camera23VirtualRedirectTransferER19StreamedBinaryWriteILb0EE
xrj:dynCall_fidi
_Qi:__ZN15dense_hashtableINSt3__24pairIK10KeyWrapperINS1_IPK9FieldInfoP11Il2CppClassEEEjEES9_17ReflectionMapHashIS8_EN14dense_hash_mapIS9_jSD_NS9_14EqualsComparerINS0_8equal_toIS8_EEEENS0_9allocatorISB_EEE9SelectKeyESI_SK_E12resize_deltaEjj
eah:_ScrollRect_set_movementType_m3292965850
Dfg:__ZL59AttributeTargets_t1984597432_CustomAttributesCacheGeneratorP21CustomAttributesCache
HT:__ZN11UnityEngine15CloudWebService14RestDownloaderD2Ev
rXb:__Z29StdTemplateConversionFunctionIjhEbPvR14SafeBinaryRead
eti:__ZL25UnresolvedVirtualCall_149P12Il2CppObject23SpriteState_t1353336012S1_PK10MethodInfo
eHa:__ZN15dense_hashtableINSt3__24pairIKN9ShaderLab7Program23ShaderKeywordSetAndHashEPKNS2_10SubProgramEEES4_NS3_24ShaderKeywordHashFunctorEN14dense_hash_mapIS4_S8_SA_NS0_8equal_toIS4_EE13stl_allocatorIS9_L18MemLabelIdentifier67ELi16EEE9SelectKeyESD_SG_E15insert_noresizeERKS9_
tDe:_List_1_GrowIfNeeded_m2986672263_gshared
Fuh:_ArrayReadOnlyList_1_Remove_m2325516426_gshared
tBd:_Hashtable_get_Count_m830088216
w9b:__ZNK13MonoBehaviour13GetScriptTypeEv
ROa:__ZN13RenderTexture12SetDimensionE16TextureDimension
he:_SDL_FreeRW
kde:_PKCS1_OS2IP_m1273945439
OZc:_SHA1Internal_FillBuff_m891541953
Wig:__ZL62ResolveEventHandler_t3842432458_CustomAttributesCacheGeneratorP21CustomAttributesCache
yMc:__Z34CanvasRenderer_Get_Custom_PropCullP12Il2CppObject
huh:_ArrayReadOnlyList_1_get_IsReadOnly_m2717922212_gshared
HM:__ZN20SoundChannelInstance8getDelayE14FMOD_DELAYTYPEPjS1_
Fhj:__ZNSt3__26__treeINS_12__value_typeIPvxEENS_19__map_value_compareIS2_S3_NS_4lessIS2_EELb1EEENS_9allocatorIS3_EEE12__find_equalIS2_EERPNS_16__tree_node_baseIS2_EESF_RKT_
Fmd:_InputField_set_customCaretColor_m3534590098
oah:_ScrollRect_set_viewport_m323693490
Ucg:__ZL66RijndaelManagedTransform_t135163252_CustomAttributesCacheGeneratorP21CustomAttributesCache
ime:_NumberFormatter_FormatExponential_m3975285307
Rtc:__ZNSt3__26vectorIN20TextRenderingPrivate8FontImpl13CharacterInfoE13stl_allocatorIS3_L18MemLabelIdentifier1ELi16EEE8__appendEj
v:tempBigInt
pe:_emscripten_glVertexAttrib1fv
q0h:_Mesh_CheckCanAccessSubmesh_m764012688
Gbb:__ZNSt3__26vectorIN9ShaderLab20SerializedSubProgram12UAVParameterENS_9allocatorIS3_EEE7reserveEj
Aoj:__ZSt11__terminatePFvvE
pnd:_InputField_get_selectionAnchorPosition_m466595604
cfg:__ZL99Thread_t241561612_CustomAttributesCacheGenerator_Thread_t241561612____ExecutionContext_PropertyInfoP21CustomAttributesCache
wJ:__ZN12AudioManager14systemCallbackEP11FMOD_SYSTEM24FMOD_SYSTEM_CALLBACKTYPEPvS3_
BFg:__ZL111LayoutUtility_t4076838048_CustomAttributesCacheGenerator_LayoutUtility_U3CGetPreferredHeightU3Em__5_m1524880643P21CustomAttributesCache
dni:_EqualityComparer_1_System_Collections_IEqualityComparer_Equals_m1091252481_gshared
GSi:__ZN24dense_hashtable_iteratorINSt3__24pairIK10KeyWrapperINS1_IPK10MethodInfoP11Il2CppClassEEEjEES9_17ReflectionMapHashIS8_EN14dense_hash_mapIS9_jSD_NS9_14EqualsComparerINS0_8equal_toIS8_EEEENS0_9allocatorISB_EEE9SelectKeyESI_SK_E30advance_past_empty_and_deletedEv
Yti:__ZL25UnresolvedVirtualCall_195P12Il2CppObjectfPK10MethodInfo
fOa:__ZN16ReflectionProbes16UpdateSampleDataEv
sug:__ZL107AudioClip_t1932558630_CustomAttributesCacheGenerator_AudioClip_InvokePCMReaderCallback_Internal_m4135619730P21CustomAttributesCache
tug:__ZL112AudioClip_t1932558630_CustomAttributesCacheGenerator_AudioClip_InvokePCMSetPositionCallback_Internal_m1220105088P21CustomAttributesCache
mji:_UnityEvent_1_AddListener_m4113183338_gshared
xKh:_SafeHandle_Finalize_m1839546519
m$a:__ZN14Texture2DArray5ResetEv
sEh:_InternalEnumerator_1_MoveNext_m252820768_AdjustorThunk
gNh:_Context_AllocateNamedDataSlot_m3200404053
yVg:__Z64RuntimeInvoker_Void_t1841601450_RuntimeObject_Single_t2076509932PFvvEPK10MethodInfoPvPS4_
_lf:_X509EnhancedKeyUsageExtension_Decode_m3866320499
eme:_NumberFormatter_AppendIntegerStringWithGroupSeparator_m1401773574
jMe:_List_1_Remove_m1237648310_gshared
R8e:_CipherSuite_get_ServerHMAC_m3566778727
r5f:__ZL64DebuggerBrowsableState_t944457511_CustomAttributesCacheGeneratorP21CustomAttributesCache
Me:_JS_Sound_Play
Dti:__ZL25UnresolvedVirtualCall_174P12Il2CppObject23RaycastResult_t21186376S1_PK10MethodInfo
HPc:__Z26GetUnityConnectSettingsPtrv
Pld:_Image_IsRaycastLocationValid_m864962354
kLg:__Z181RuntimeInvoker_Void_t1841601450_RuntimeObject_Int32_t2071877448_Int32_t2071877448_RuntimeObject_Int32_t2071877448_Int32_t2071877448_RuntimeObject_Int32_t2071877448_Int32_t2071877448PFvvEPK10MethodInfoPvPS4_
Cab:__ZN9ShaderLab16SerializedShader8TransferI14SafeBinaryReadEEvRT_
hya:__ZN5Mutex7TryLockEv
qhi:_InvokableCall_1_remove_Delegate_m3013073467_gshared
Vog:__ZL99Sprite_t309593783_CustomAttributesCacheGenerator_Sprite_get_associatedAlphaSplitTexture_m1902878088P21CustomAttributesCache
YA:__ZN7mecanim8skeleton13SkeletonAlignEPKNS0_8SkeletonERKN4math7_float4ES7_i
h2b:__ZN19ShaderPropertySheet16SetVectorIndexedEN9ShaderLab16FastPropertyNameEifRK8Vector4fNS_8SetFlagsE
dq:__ZN14SafeBinaryRead21TransferSTLStyleArrayIN4core12basic_stringIcNS1_20StringStorageDefaultIcEEEEEEvRT_17TransferMetaFlags
vwf:_RemotingConfiguration_RegisterWellKnownServiceType_m2491506630
png:__ZL89Screen_t786852042_CustomAttributesCacheGenerator_Screen_t786852042____height_PropertyInfoP21CustomAttributesCache
Q9f:__ZL55_TypeBuilder_t2783404358_CustomAttributesCacheGeneratorP21CustomAttributesCache
fui:__ZL25UnresolvedVirtualCall_204P12Il2CppObjectPK10MethodInfo
VXb:__Z29StdTemplateConversionFunctionIayEbPvR14SafeBinaryRead
Ypd:_LayoutRebuilder_Initialize_m2671585490
THe:_List_1_System_Collections_IList_IndexOf_m4061554721_gshared
iU:__ZN11UnityEngine15CloudWebService14DataDispatcher4StopEv
Ibb:__ZNSt3__26vectorIN9ShaderLab20SerializedSubProgram12UAVParameterENS_9allocatorIS3_EEE8__appendEj
aSe:_Collection_1_GetEnumerator_m434271983_gshared
zUi:__ZNK15dense_hashtableINSt3__24pairIK10KeyWrapperINS1_IPK9EventInfoP11Il2CppClassEEEjEES9_17ReflectionMapHashIS8_EN14dense_hash_mapIS9_jSD_NS9_14EqualsComparerINS0_8equal_toIS8_EEEENS0_9allocatorISB_EEE9SelectKeyESI_SK_E12test_deletedERK24dense_hashtable_iteratorISB_S9_SD_SM_SI_SK_E
V$c:_X509Certificate_ToString_m1582581274
Hjh:_Enumerator_get_Current_m2986380627_gshared
sza:__ZN17ScriptingGCHandle7AcquireE18ScriptingObjectPtr25ScriptingGCHandleWeakness
hMh:_LifetimeServices_set_LeaseTime_m1487876644
fSf:_ConstructorBuilder_not_supported_m3687319507
n3f:__ZL48IList_t3321498491_CustomAttributesCacheGeneratorP21CustomAttributesCache
uKc:__ZN2UI14CanvasRenderer14AttachToCanvasER8JobFencePNS_6CanvasENS0_15InstructionTypeE
T2c:_Single_System_IConvertible_ToInt64_m3555853323_AdjustorThunk
BFh:_InternalEnumerator_1__ctor_m3901400705_AdjustorThunk
uqj:dynCall_iifiii
dja:__Z21HasAlphaTextureFormat13TextureFormat
lO:__ZN12AudioManager6UpdateEv
Yia:__ZN14ImageReference9BlitImageERKS_NS_8BlitModeE
h_f:_MonoMethod_get_MethodHandle_m1882915015
is:__ZN8Animator12AddToManagerEv
P7f:__ZL93ConstructorInfo_t2851816542_CustomAttributesCacheGenerator_ConstructorInfo_Invoke_m2144827141P21CustomAttributesCache
vQg:__Z50RuntimeInvoker_UInt64_t2909196914_SByte_t454417549PFvvEPK10MethodInfoPvPS4_
yhh:_ShimEnumerator_get_Key_m1171725158_gshared
yBb:__ZN23CachedSerializationDataD2Ev
zTb:__ZNK25CameraStackRenderingState31CalculateStereoCameraTargetTypeEv
INa:__ZN14RenderSettings23VirtualRedirectTransferER14SafeBinaryRead
a7i:__ZN6il2cpp2os10ThreadImpl15CurrentThreadIdEv
hWe:_Collection_1_System_Collections_IList_get_IsReadOnly_m4005091053_gshared
RTd:_Array_InternalArray__ICollection_Contains_TisColor32_t874517518_m2818328910_gshared
sLa:__ZN17GlobalGameManager8TransferI17RemapPPtrTransferEEvRT_
jhe:_AppDomainInitializer_EndInvoke_m4003801172
X2f:__ZL66RuntimeArray_CustomAttributesCacheGenerator_Array_Sort_m2544329074P21CustomAttributesCache
qpi:_AudioExtensionManager_WriteExtensionProperties_m4015275001
oNa:__ZN16LevelGameManager8TransferI18StreamedBinaryReadILb0EEEEvRT_
pGc:_UNITY_tt_face_load_fpgm
ZDa:__Z17IsObjectAvailablei
Z2a:__ZN12InputManagerD0Ev
cQi:_RaycastHit2D_get_point_m2962370910
Phj:__ZN6il2cpp6icalls8mscorlib6System11Diagnostics10StackTrace9get_traceEP15Il2CppExceptionib
_fd:_DefaultControls_CreateUIObject_m2810394112
THa:__ZNK16LightmapSettings14GetLightProbesEv
lah:_ScrollRect_get_scrollSensitivity_m1160815603
aFf:_UnicodeEncoding_GetBytes_m1337660232
_xb:__Z18Transfer_BlittableI18StreamedBinaryReadILb0EELb1EtEvRK29SerializationCommandArgumentsR31RuntimeSerializationCommandInfo
nnj:_posix_memalign
x2b:__ZN13ProduceHelperI12MeshRendererLb0EE7ProduceE18MemLabelIdentifier18ObjectCreationMode
nOe:_List_1_get_Count_m1249351212_gshared
zFh:_InternalEnumerator_1_get_Current_m747506907_AdjustorThunk
SUh:_LogCallback_Invoke_m115567905
KOg:__Z38RuntimeInvoker_PaddingMode_t3032142640PFvvEPK10MethodInfoPvPS4_
Cff:_SslClientStream_get_ClientCertSelectionDelegate_m2316959461
dzd:_SynchronizedArrayListWrapper_get_SyncRoot_m1466044127
f0:__ZNK15MonoScriptCache7ReleaseEv
kCi:__ZN6il2cpp2vm5Class13HasReferencesEP11Il2CppClass
$f:_glBindTexture
ZRe:_Collection_1_ClearItems_m3585785594_gshared
Clj:_snprintf
GEg:__ZL84HorizontalOrVerticalLayoutGroup_t1968298610_CustomAttributesCacheGenerator_m_SpacingP21CustomAttributesCache
CQf:_Binder__ctor_m1361613966
mnd:_InputField_set_caretPosition_m888572237
wVf:_ILGenerator__cctor_m3943061018
uyd:_ArrayListWrapper_Clone_m1506311066
pzi:_CanvasRenderer_CreateUIVertexStream_m2882962535
H9a:__Z36scripting_liveness_calculation_begin17ScriptingClassPtriPFvPP12Il2CppObjectiPvES3_PFvvES7_
Yki:_ListPool_1_Get_m4215629480_gshared
Wra:__ZN16UniformCacheGLES6CreateERK20GpuProgramParameters
oGf:_UTF8Encoding_Fallback_m811555654
XNf:_UInt64_CompareTo_m3513742483
WYd:_Array_InternalArray__IndexOf_TisPlayableBinding_t2498078091_m398853908_gshared
H9h:_ScriptableObject_t1975622470_marshal_pinvoke_cleanup
J8d:_SimpleCollator_MatchesForwardCore_m558011650
d$e:_ReadOnlyCollection_1_System_Collections_IList_Clear_m1918003010_gshared
sIg:__Z77RuntimeInvoker_Void_t1841601450_RuntimeObject_RuntimeObject_Int32_t2071877448PFvvEPK10MethodInfoPvPS4_
guj:_emscripten_glGetProgramInfoLog__wrapper
Pbi:_Transform_set_localScale_m1442831667
FD:__ZN25AnimatedPropertyEvaluator29BindCurveToScriptingObjectPtrERKN13AnimationClip10FloatCurveEj18ScriptingObjectPtrb
sGf:_UTF8Encoding_InternalGetChars_m373801468
p1:__ZN17PersistentManager23DestroyFromFileInternalEi
zMd:_Decimal_System_IConvertible_ToChar_m2425091200_AdjustorThunk
DMb:__Z19SetupMotionMatricesR6CameraR18RPDataMotionVector
mQd:_Enum_ToString_m2112979707
obg:__ZL55SoapServices_t3397513225_CustomAttributesCacheGeneratorP21CustomAttributesCache
huf:_MonoMethodMessage_get_MethodName_m3580519713
lC:__ZN26AnimatorControllerPlayable18PrepareForPlaybackERN7mecanim6memory9AllocatorE
vPd:_Enum_t2459695545_marshal_pinvoke_cleanup
Y9h:_HitInfo_t1761367055_marshal_pinvoke_cleanup
TWc:_HMACSHA512__cctor_m1167457383
jGf:_UTF8Encoding_GetBytes_m4170182058
tHe:_List_1_IndexOf_m2418862432_gshared
qHa:__ZN22CreateGpuProgramOutputC2Ev
tse:_MemoryStream_InternalConstructor_m2423667240
eSh:_CapturingGroup_set_Index_m2175936006
cvf:_SoapMethodAttribute_SetReflectionObject_m3431595769
Qch:_Slider_set_maxValue_m2951480075
b3b:__ZN8GUILayer12CleanupClassEv
Aod:_InputField_OnSubmit_m2856515494
jCi:__ZN6il2cpp2vm5Class4InitEP11Il2CppClass
ga:invoke_vidi
$ee:_DeriveBytes_Adjust_m105515328
LKc:__ZN2UI14CanvasRenderer17SyncDirtyElementsER8JobFence
Wxb:__Z18Transfer_BlittableI18StreamedBinaryReadILb0EELb0ExEvRK29SerializationCommandArgumentsR31RuntimeSerializationCommandInfo
Red:_ColorBlock_op_Inequality_m1517672458
Iaj:__ZN6il2cpp5utils11StringUtils15StringDuplicateEPKc
UUb:__Z15CanAddComponentR10GameObjectPKN5Unity4TypeE
HGa:__ZNK9ShaderLab21ShaderRasterStateDesc16ToGfxRasterStateEPK19ShaderPropertySheetS3_R14GfxRasterState
$V:_tlsf_memalign
QBf:_CspParameters__ctor_m2480441577
Hjj:__ZN6il2cpp2os9EventImplC2Ebb
JMh:_DynamicPropertyCollection_NotifyMessage_m840388347
oTh:_Uri_ParseUri_m5711497
wD:__ZN4PPtrI13MonoBehaviourE8TransferI19StreamedBinaryWriteILb0EEEEvRT_
qUg:__Z98RuntimeInvoker_RuntimeObject_RuntimeObject_RayU26_t3651946800_Single_t2076509932_Int32_t2071877448PFvvEPK10MethodInfoPvPS4_
OY:__Z20IsMatrixBuiltinParamPKcPi
ECg:__ZL108MaskableGraphic_t540192618_CustomAttributesCacheGenerator_MaskableGraphic_ParentMaskStateChanged_m3643747340P21CustomAttributesCache
vSi:__ZN15dense_hashtableINSt3__24pairIK10KeyWrapperINS1_IPK10MethodInfoP11Il2CppClassEEEjEES9_17ReflectionMapHashIS8_EN14dense_hash_mapIS9_jSD_NS9_14EqualsComparerINS0_8equal_toIS8_EEEENS0_9allocatorISB_EEE9SelectKeyESI_SK_E16reset_thresholdsEv
Q1b:__ZN8Renderer19PostInitializeClassEv
tbi:_TrackedReference_t1045890189_marshal_pinvoke_back
zvh:_InternalEnumerator_1_get_Current_m1943362081_AdjustorThunk
Xfj:__ZN6il2cpp6icalls8mscorlib6System8Delegate23CreateDelegate_internalEP20Il2CppReflectionTypeP12Il2CppObjectP22Il2CppReflectionMethodb
p2f:__ZL82RuntimeArray_CustomAttributesCacheGenerator_Array_GetValue_m1507415734____indices0P21CustomAttributesCache
QQf:_Default_check_type_m2363631305
TAb:__ZN18DelayedCallManager18CancelCallDelayed2E4PPtrI6ObjectEPF15CallObjectStatePS1_PvES7_
NHe:_List_1__cctor_m911493842_gshared
nxa:__ZN25ThreadsafeLinearAllocator10ReallocateEPvji
$kb:__Z18Transfer_BlittableI14SafeBinaryReadLb1E11QuaternionfEvRK29SerializationCommandArgumentsR31RuntimeSerializationCommandInfo
n9:__ZN18SpriteAtlasManagerD0Ev
YYd:_Array_InternalArray__IndexOf_TisRaycastHit2D_t4063908774_m3739817942_gshared
R_f:_MonoProperty_GetAccessors_m3704698731
yfj:_GC_disable
S0a:__ZN10Matrix4x4f8TransferI14SafeBinaryReadEEvRT_
Kve:_UnmanagedMemoryStream_ReadByte_m2501145010
Coh:_Dictionary_2__ctor_m406310120_gshared
lyf:_ObjectRecord_UnchainFixup_m3025030310
iC:__ZN14AvatarPlayback8StopTimeEv
A3:__Z6AppendRKN4core12basic_stringIcNS_20StringStorageDefaultIcEEEEPKc
F1f:__ZL60MulticastDelegate_t3201952435_CustomAttributesCacheGeneratorP21CustomAttributesCache
G9a:__ZL14OnWorldStoppedv
Kub:__Z18Transfer_BlittableI18StreamedBinaryReadILb1EELb0E8Vector3fEvRK29SerializationCommandArgumentsR31RuntimeSerializationCommandInfo
pUg:__Z81RuntimeInvoker_RuntimeObject_Ray_t2469606224_Single_t2076509932_Int32_t2071877448PFvvEPK10MethodInfoPvPS4_
HBg:__ZL61Image_t2042527209_CustomAttributesCacheGenerator_m_FillCenterP21CustomAttributesCache
IWh:_Color_ToString_m55788918_AdjustorThunk
vga:__ZN7ApiGLES18ClearBufferSubDataEjN2gl12BufferTargetEll
bbc:__Z37Camera_Get_Custom_PropAllCamerasCountv
H$a:__ZN14Texture2DArray8TransferI18StreamedBinaryReadILb0EEEEvRT_
CZi:__ZN6il2cpp6icalls8mscorlib6System5Array9GetLengthEP11Il2CppArrayi
KQb:__Z18ApplyOcclusionMaskR19ProbeOcclusionCacheRK17LightProbeContextRK10RenderNodeb
Ore:_FileStreamAsyncResult__ctor_m1096228032
eBc:_Split_Cubic
cb:invoke_fiiii
aMd:_DBNull_System_IConvertible_ToSByte_m1228193074
GRe:_Collection_1__ctor_m2818834331_gshared
KSg:__Z68RuntimeInvoker_UInt16_t986882611_UInt16_t986882611_UInt16_t986882611PFvvEPK10MethodInfoPvPS4_
yii:_UnityAction_1_Invoke_m3979091955_gshared
kUe:_Collection_1_Insert_m3041550124_gshared
ore:_FileStream_FlushBuffer_m2594140542
GXe:_Collection_1_System_Collections_IList_get_Item_m1995028750_gshared
vbj:__ZN6il2cpp2vm8Profiler12GCHeapResizeEx
Drj:dynCall_viiifi
Yna:__ZN18GfxFramebufferGLES20ActiveContextChangedEPP17RenderSurfaceBaseS2_
Lna:__Z19PluginsRenderMarkeri
dE:__ZN10HumanTrait18InitializeBoneNameEv
lqg:__ZL130DrivenRectTransformTracker_t154385424_CustomAttributesCacheGenerator_DrivenRectTransformTracker_Clear_m4190599786____revertValues0P21CustomAttributesCache
sph:_DefaultComparer__ctor_m899694595_gshared
_Sh:__ZN23InterfaceActionInvoker1ItE6InvokeEjP11Il2CppClassP12Il2CppObjectt
l$a:__ZN14Texture2DArray21AwakeFromLoadThreadedEv
Wyb:__Z29Transfer_Blittable_ArrayFieldI18StreamedBinaryReadILb0EEyEvRT_R9ArrayInfoRK23StaticTransferFieldInfo
Krh:_EqualityComparer_1_get_Default_m875724809_gshared
a3i:__ZNSt3__214__split_bufferIN6il2cpp2vm5Image20EmbeddedResourceDataERNS_9allocatorIS4_EEEC2EjjS7_
Ekd:_HorizontalOrVerticalLayoutGroup_get_spacing_m2859152439
Y8f:__ZL57DispIdAttribute_t607560947_CustomAttributesCacheGeneratorP21CustomAttributesCache
NG:__ZN12AudioManager17RemoveAudioSourceEP11AudioSource
Pfi:_GUILayoutEntry_SetVertical_m861127195
e3f:__ZL83RuntimeArray_CustomAttributesCacheGenerator_RuntimeArray____LongLength_PropertyInfoP21CustomAttributesCache
OOg:__Z151RuntimeInvoker_Int32_t2071877448_RuntimeObject_Int32_t2071877448_Int32_t2071877448_RuntimeObject_Int32_t2071877448_DecoderFallbackBufferU26_t3597875002PFvvEPK10MethodInfoPvPS4_
kmi:_AesManaged_get_KeySize_m2773901127
T5d:_Array_InternalArray__get_Item_TisUInt64_t2909196914_m2580870875_gshared
oXi:__ZN15dense_hashtableINSt3__24pairIK10KeyWrapperINS1_IP11Il2CppClassjEEES4_EES6_N6il2cpp8metadata14ArrayClassHashEN14dense_hash_mapIS6_S4_SB_NS6_14EqualsComparerINSA_17ArrayClassCompareEEENS0_9allocatorIS8_EEE9SelectKeyESF_SH_E4swapERSK_
DGf:_UTF8Decoder_GetChars_m3819660582
cQ:__ZN5physx14PxLightCpuTask12addReferenceEv
ppf:_X509ChainStatus_set_StatusInformation_m2903201015_AdjustorThunk
D4i:__ZN6il2cpp2gc16GarbageCollector19InitializeFinalizerEv
Wx:__ZN7mecanim8skeleton18CreateSkeletonMaskEjPKNS0_19SkeletonMaskElementERNS_6memory9AllocatorE
N2f:__ZL66RuntimeArray_CustomAttributesCacheGenerator_Array_Sort_m4096942812P21CustomAttributesCache
pic:__ZN10GUIManager10DoGUIEventER10InputEventb
w9e:_Context_get_ClientWriteKey_m2235605337
Sqb:__Z35Transfer_Blittable_FixedBufferFieldI24GenerateTypeTreeTransferxEvRK29SerializationCommandArgumentsR31RuntimeSerializationCommandInfo
sgh:_Enumerator__ctor_m3597047336_AdjustorThunk
uGc:_UNITY_TT_Init_Glyph_Loading
DLb:__Z20CalculateSqrDistanceRK8Vector3fRK4AABB
_K:__Z32AudioMixerDuckingProcessCallbackP21UnityAudioEffectStatePfS1_jii
DRf:_CustomAttributeTypedArgument_GetHashCode_m999147081_AdjustorThunk
U0b:__ZN26CustomRenderTextureManagerD2Ev
mdc:__Z32Input_Get_Custom_PropInputStringv
xre:_FileStream_Read_m3880951166
Xpi:_AudioExtensionManager_Update_m3727859914
DH:__ZN12AudioManager8TransferI24GenerateTypeTreeTransferEEvRT_
fia:__Z25GetBytesFromTextureFormat13TextureFormat
b0a:__ZN9Texture3D19UnloadFromGfxDeviceEb
u_i:__ZN6il2cpp6icalls8mscorlib6System9Threading6Thread20Thread_free_internalEP12Il2CppThreadi
Hpj:dynCall_iiffi
$ob:__Z18Transfer_BlittableI17RemapPPtrTransferLb0EsEvRK29SerializationCommandArgumentsR31RuntimeSerializationCommandInfo
W3d:_Dictionary_2_Do_CopyTo_TisRuntimeObject_TisRuntimeObject_m2625001464_gshared
Yhg:__ZL67Math_t2022911894_CustomAttributesCacheGenerator_Math_Min_m105057611P21CustomAttributesCache
yD:__ZN16MecanimAnimation25RegisterIAnimationBindingEPKN5Unity4TypeEiP17IAnimationBinding
e1:__Z32scripting_class_get_assemblyname17ScriptingClassPtr
COc:__ZN11UnityEngine15PlatformWrapper15GetVRDeviceNameEv
Wlh:_Dictionary_2_Resize_m2532139610_gshared
L$h:_Mathf_RoundToInt_m1833913145
eMe:_List_1_IndexOf_m2019441835_gshared
vJf:_TimeSpan_Equals_m2029123271_AdjustorThunk
gIi:__ZN6il2cpp2vm13MetadataCache23GetInvokerMethodPointerEPK10MethodInfoPK20Il2CppGenericContext
pta:__ZN9GfxDevice21RegisterNativeTextureE9TextureIDi16TextureDimension
dSd:_CultureInfo__ctor_m456863818
dhj:__ZN6il2cpp6icalls8mscorlib6System10Reflection4Emit11TypeBuilder20create_generic_classEP27Il2CppReflectionTypeBuilder
VKi:__ZNSt3__26vectorIPK10MethodInfoNS_9allocatorIS3_EEE26__swap_out_circular_bufferERNS_14__split_bufferIS3_RS5_EE
hCe:_Enumerator_MoveNext_m2504790928_gshared
MDg:__ZL61Slider_t297367283_CustomAttributesCacheGenerator_m_HandleRectP21CustomAttributesCache
HP:__Z60Register_UnityEngine_AudioListener_GetNumExtensionPropertiesv
Si:_emscripten_glUniformMatrix4fv
FXi:__ZN15dense_hashtableINSt3__24pairIK10KeyWrapperINS1_IP11Il2CppClassjEEES4_EES6_N6il2cpp8metadata14ArrayClassHashEN14dense_hash_mapIS6_S4_SB_NS6_14EqualsComparerINSA_17ArrayClassCompareEEENS0_9allocatorIS8_EEE9SelectKeyESF_SH_E13set_empty_keyERKS8_
Ufb:__ZN12ScriptMapperD2Ev
xyg:__ZL85AxisEventData_t1524870173_CustomAttributesCacheGenerator_U3CmoveDirU3Ek__BackingFieldP21CustomAttributesCache
wWc:_KeyedHashAlgorithm_Dispose_m1864300576
O2h:_X509Certificate_PEM_m49854707
Afe:_PKCS12_get_RNG_m3620550062
bmf:_X509BasicConstraintsExtension__ctor_m3320418592
Y1h:_ExtendedKeyUsageExtension_Decode_m901297139
Fcb:__Z32TransferEnumWithNameForceIntSizeI14SafeBinaryRead7FogModeEvRT_RT0_PKc17TransferMetaFlags
Ufc:__Z52Register_UnityEngine_RenderTexture_Internal_GetWidthv
k4f:__ZL89SafeWaitHandle_t481461830_CustomAttributesCacheGenerator_SafeWaitHandle__ctor_m1710231470P21CustomAttributesCache
iej:_GC_check_leaked
keb:__ZN9ShaderLab20SerializedSubProgram16TextureParameter8TransferI19StreamedBinaryWriteILb0EEEEvRT_
D0d:_Array_InternalArray__Insert_TisVector4_t2243707581_m1643342708_gshared
wwa:__ZNK7Hash12812PackToUInt32Ev
p6g:_Mask_OnSiblingGraphicEnabledDisabled_m865494155
Sif:_KeysCollection_System_Collections_ICollection_get_SyncRoot_m2289369147
RTi:__ZNSt3__218uninitialized_fillIPNS_4pairIK10KeyWrapperINS1_IPK12PropertyInfoP11Il2CppClassEEEjEESB_EEvT_SD_RKT0_
V2:__ZNSt3__227__insertion_sort_incompleteIRNS_6__lessI14ObjectLoadDataS2_EEPS2_EEbT0_S6_T_
qU:__ZN11UnityEngine15CloudWebService16SessionContainer8AddEventEPNS0_14CloudEventInfoE
Yra:__Z4TrimRKN4core12basic_stringIcNS_20StringStorageDefaultIcEEEES5_
Ydh:_Text_set_resizeTextMaxSize_m4034967714
R3f:__ZL55GuidAttribute_t222072359_CustomAttributesCacheGeneratorP21CustomAttributesCache
oRf:_CustomAttributeNamedArgument_Equals_m2691468532
T0f:__ZL74String_t_CustomAttributesCacheGenerator_String_Concat_m3881798623____args0P21CustomAttributesCache
fcg:__ZL103CryptoConfig_t896479599_CustomAttributesCacheGenerator_CryptoConfig_CreateFromName_m2169102076____args1P21CustomAttributesCache
e_a:__ZN10VertexData8TransferI14SafeBinaryReadEEvRT_
SI:__ZN4FMOD8ChannelI8setDelayE14FMOD_DELAYTYPEjj
vDd:_Stack__ctor_m2410583781
cfj:_GC_malloc_atomic
OQf:_Default_GetBetterMethod_m4255740863
qSf:_ConstructorBuilder_GetILGenerator_m1731893569
c3i:__ZNSt3__214__split_bufferIN6il2cpp2vm5Image20EmbeddedResourceDataERNS_9allocatorIS4_EEED2Ev
f$:__ZL20SortItemByInstanceIDRKN18AwakeFromLoadQueue4ItemES2_
uXf:_TypeBuilder_create_runtime_class_m2719530260
SYc:_RNGCryptoServiceProvider_RngClose_m2921734810
gy:__ZNK34AnimationStateMachineMixerPlayable26GetInterruptedPosePlayableEv
yRc:__ZN20UnityConnectSettings8TransferI24GenerateTypeTreeTransferEEvRT_
zA:__ZN34BlobWriteTransferSTLStyleArrayImplI22OffsetPtrArrayTransferIbEEclERS1_17TransferMetaFlagsR9BlobWrite
elg:__ZL199U3CCreateWhereIteratorU3Ec__Iterator1D_1_t2523986802_CustomAttributesCacheGenerator_U3CCreateWhereIteratorU3Ec__Iterator1D_1_System_Collections_Generic_IEnumeratorU3CTSourceU3E_get_Current_m517722874P21CustomAttributesCache
K7d:_SimpleCollator_IsHalfKana_m4255579023
Igf:_InternalAsyncResult_get_Count_m1291942796
EPe:_Collection_1_System_Collections_IList_Contains_m3365884450_gshared
G9i:__ZNK15dense_hashtableINSt3__24pairIK10KeyWrapperIPK19Il2CppGenericMethodEP10MethodInfoEES6_N6il2cpp8metadata23Il2CppGenericMethodHashEN14dense_hash_mapIS6_S9_SD_NS6_14EqualsComparerINSC_26Il2CppGenericMethodCompareEEENS0_9allocatorISA_EEE9SelectKeyESH_SJ_E10test_emptyERK30dense_hashtable_const_iteratorISA_S6_SD_SL_SH_SJ_E
CAa:__Z16FlaggedAsSkippedIN4core12basic_stringIcNS0_20StringStorageDefaultIcEEEEEbRK13FileEntryInfoRKT_19FileEnumerationFlag
AWe:_Collection_1_set_Item_m3440986310_gshared
P4:__ZL31InitializeRendererUpdateManagerPv
Zcd:_BaseMeshEffect__ctor_m2843647600
J5e:_ASN1__ctor_m3688855288
bRg:__Z106RuntimeInvoker_RuntimeObject_Int16_t4041245914_RuntimeObject_BooleanU26_t3168250738_BooleanU26_t3168250738PFvvEPK10MethodInfoPvPS4_
_ng:__ZL89Input_t1785128008_CustomAttributesCacheGenerator_Input_get_imeCompositionMode_m1132899721P21CustomAttributesCache
LO:__ZN13AudioListener12CleanupClassEv
Dvi:_Terminal_Awake_m2961603900
nbf:_ClientSessionInfo_Dispose_m2571428025
Kpd:_LayoutGroup_DelayedSetDirty_m4276695617
zef:_RecordProtocol_decryptRecordFragment_m2510859489
Bhi:_InvokableCall_1__ctor_m975753341_gshared
K7c:_BaseRaycaster_get_sortOrderPriority_m3340181311
P3a:__ZN11TimeManager8TransferI19StreamedBinaryWriteILb0EEEEvRT_
dse:_DelegatePInvokeWrapper_ReadDelegate_t3184826381
_kg:__ZL91HashSet_1_t2624254809_CustomAttributesCacheGenerator_HashSet_1_OnDeserialization_m627602129P21CustomAttributesCache
$Bc:_compare_uni_maps
opf:_X509ChainStatus_set_Status_m4288653744_AdjustorThunk
nPc:__ZN11UnityEngine15PlatformWrapper27GetGraphicsCapsSupportFlagsEv
MIc:__ZNSt3__218__insertion_sort_3IRPFbPN2UI6CanvasES3_EPS3_EEvT0_S8_T_
j1f:__ZL80Decimal_t724701077_CustomAttributesCacheGenerator_Decimal_op_Explicit_m714968249P21CustomAttributesCache
qNd:_Decimal_Equals_m1115043331
tub:__ZN12NativeBufferI16Converter_StringE15SetupForWritingER9ArrayInfo
Jbd:_StandaloneInputModule_DeactivateModule_m2952848884
ktj:___cxa_end_catch__wrapper
Vkh:_ValueCollection_System_Collections_Generic_ICollectionU3CTValueU3E_Clear_m231380274_gshared
L8c:_Entry__ctor_m1176697586
Lpe:_BinaryReader_ReadUInt32_m1363572147
fhg:__ZL79Convert_t2607082565_CustomAttributesCacheGenerator_Convert_ToUInt32_m3391339025P21CustomAttributesCache
BBb:__ZN13MonoBehaviour22DoScriptRebuildWarningEv
dbc:__Z38Camera_CUSTOM_INTERNAL_CALL_RaycastTryP12Il2CppObjectRK3Rayfi
feh:_Text_get_verticalOverflow_m3134063496
wZi:__ZN6il2cpp6icalls8mscorlib6System5Array13ClearInternalEP11Il2CppArrayii
SJh:_GCHandle_get_Target_m2327042781
Ulc:__ZN8JSONRead21TransferSTLStyleArrayI13dynamic_arrayI11KeyframeTplIfELj4EEEEvRT_17TransferMetaFlags
CPg:__Z50RuntimeInvoker_Char_t3454481338_Single_t2076509932PFvvEPK10MethodInfoPvPS4_
iUe:_Collection_1_GetEnumerator_m1417525918_gshared
hpj:_llvm_cttz_i32
wmf:_PublicKey_DecodeDSA_m1169363495
sjc:__ZN11IMGUIModule25GetGUIStyleScriptingClassEv
TEc:_tt_get_interface
O2d:_Array_Sort_TisRuntimeObject_m143182644_gshared
yBf:_AsymmetricKeyExchangeFormatter__ctor_m3362140205
f_i:__ZN6il2cpp5utils9PathUtils7CombineIcEENSt3__212basic_stringIT_NS3_11char_traitsIS5_EENS3_9allocatorIS5_EEEERKSA_SC_
Jif:_NameObjectCollectionBase_BaseGet_m667273025
XNg:__Z104RuntimeInvoker_RuntimeObject_Byte_t3683104436_RuntimeObject_SByte_t454417549_RuntimeObject_RuntimeObjectPFvvEPK10MethodInfoPvPS4_
Zoc:__ZN9JSONWrite8TransferI13dynamic_arrayIiLj4EEEEvRT_PKc17TransferMetaFlags
Kog:__ZL82Material_t193706927_CustomAttributesCacheGenerator_Material_SetIntImpl_m1039479734P21CustomAttributesCache
F4b:__ZN13PlayableGraph21InvalidateMultithreadEv
JG:__ZL16FMOD_ErrorString11FMOD_RESULT_361
j_:__Z18ConvertUTF16toUTF8PPKtS0_PPhS2_15ConversionFlags
Igi:_GUIStyleState__ctor_m3673085649
LKf:_TypeLoadException__ctor_m1903359728
Pzi:__ZL16my_g_bit_nth_msfj
Tih:_Transform_1_BeginInvoke_m3014766640_gshared
wVc:_KeySizes__ctor_m3526899007
UXi:__ZN15dense_hashtableINSt3__24pairIK10KeyWrapperIP11Il2CppClassES4_EES5_N6il2cpp8metadata16SZArrayClassHashEN14dense_hash_mapIS5_S4_SA_NS5_14EqualsComparerINS9_19SZArrayClassCompareEEENS0_9allocatorIS7_EEE9SelectKeyESE_SG_E12expand_arrayEjN21dense_hash_map_traits17integral_constantIbLb0EEE
Bke:_Int16_System_IConvertible_ToInt32_m191782913_AdjustorThunk
Qrg:__ZL69ArgumentCache_t4810721_CustomAttributesCacheGenerator_m_FloatArgumentP21CustomAttributesCache
DQe:_Collection_1_CopyTo_m1578267616_gshared
LCf:_EncoderReplacementFallback__ctor_m2208438262
OJb:__Z23SetupStereoFlareElementP11FlareVertexRK8Vector2fS3_S3_RK11ColorRGBA32RK10Matrix4x4fRK8Vector3fb
oSg:__Z91RuntimeInvoker_X509ChainStatusFlags_t480677120_RuntimeObject_RuntimeObject_SByte_t454417549PFvvEPK10MethodInfoPvPS4_
xCi:__ZN6il2cpp2vm5Class15GetInstanceSizeEPK11Il2CppClass
p_g:__Z37RuntimeInvoker_Enumerator_t3806193287PFvvEPK10MethodInfoPvPS4_
yVh:_UnmarshalledAttribute__ctor_m2832569902
sa:invoke_iiiifiiii
C8h:_RectTransform_set_anchoredPosition_m4223859262
aph:_Dictionary_2_CopyTo_m1495142643_gshared
Yji:_EventFunction_1_BeginInvoke_m3064802067_gshared
Phg:__ZL67IndexOutOfRangeException_t3527622107_CustomAttributesCacheGeneratorP21CustomAttributesCache
BXi:__ZNK15dense_hashtableINSt3__24pairIK10KeyWrapperINS1_IP11Il2CppClassjEEES4_EES6_N6il2cpp8metadata14ArrayClassHashEN14dense_hash_mapIS6_S4_SB_NS6_14EqualsComparerINSA_17ArrayClassCompareEEENS0_9allocatorIS8_EEE9SelectKeyESF_SH_E12test_deletedERK30dense_hashtable_const_iteratorIS8_S6_SB_SJ_SF_SH_E
pqe:_Directory_GetFiles_m4036267478
KPd:_Enum_System_IConvertible_ToType_m2669300536
$he:_NumberFormatInfo_get_CurrencyNegativePattern_m3972163809
Aoa:__ZL19BlitFramebufferImplRN4gles23BlitFramebufferDrawQuadER9GfxDevice9TextureIDRK8Vector4f
Dob:__Z18Transfer_BlittableI17RemapPPtrTransferLb0EhEvRK29SerializationCommandArgumentsR31RuntimeSerializationCommandInfo
ARi:__ZN15dense_hashtableINSt3__24pairIK10KeyWrapperIPK10Il2CppTypeEjEES6_N6il2cpp8metadata14Il2CppTypeHashEN14dense_hash_mapIS6_jSB_NS6_14EqualsComparerINSA_26Il2CppTypeEqualityComparerEEENS0_9allocatorIS8_EEE9SelectKeyESF_SH_E4findERS7_
$Ug:__Z83RuntimeInvoker_Void_t1841601450_QuaternionU26_t4187826802_QuaternionU26_t4187826802PFvvEPK10MethodInfoPvPS4_
Cai:_StackTraceUtility_ExtractStringFromExceptionInternal_m234524721
uZe:_ReadOnlyCollection_1_System_Collections_IList_Add_m2333231354_gshared
Ivc:_UNITY_FT_List_Add
PWf:_OpCodes__cctor_m939885911
r1b:__ZN14Texture2DArray11InitTextureEiii13TextureFormatb
LXh:_CustomYieldInstruction__ctor_m1440815618
q7e:_PKCS1_RSASP1_m1748738009
cff:_RSASslSignatureDeformatter_SetHashAlgorithm_m4048969080
pog:__ZL92AnimationCurve_t3306541151_CustomAttributesCacheGenerator_AnimationCurve_Cleanup_m3596170191P21CustomAttributesCache
wUh:_UriParser_InitializeAndValidate_m251943319
d$c:_SymmetricAlgorithm_set_Padding_m3081984460
rWi:__ZN15dense_hashtableINSt3__24pairIK10KeyWrapperINS1_IPK11Il2CppImageP11Il2CppClassEEEjEES9_17ReflectionMapHashIS8_EN14dense_hash_mapIS9_jSD_NS9_14EqualsComparerINS0_8equal_toIS8_EEEENS0_9allocatorISB_EEE9SelectKeyESI_SK_E14squash_deletedEv
y3a:__ZN9InputAxis8TransferI18StreamedBinaryReadILb0EEEEvRT_
TNb:__ZNK6Camera26GetStereoSingleCullEnabledEv
Ozf:_StreamingContext_t1417235061_marshal_pinvoke_back
R6a:__Z14resize_trimmedINSt3__26vectorIN4core12basic_stringIcNS2_20StringStorageDefaultIcEEEE13stl_allocatorIS6_L18MemLabelIdentifier13ELi16EEEEEvRT_j
Hxd:_ArrayList_RemoveAt_m2578928333
Jlb:__Z18Transfer_BlittableI14SafeBinaryReadLb0EaEvRK29SerializationCommandArgumentsR31RuntimeSerializationCommandInfo
Zhi:_InvokableCall_3__ctor_m4270240248_gshared
AYe:_ReadOnlyCollection_1_System_Collections_IList_set_Item_m1233322304_gshared
d2h:_GeneralNames_get_DNSNames_m2721668874
oPg:__Z76RuntimeInvoker_Boolean_t3825574718_TimeSpan_t3430258949_TimeSpan_t3430258949PFvvEPK10MethodInfoPvPS4_
APd:_Enum_System_IConvertible_ToByte_m38374586
iYe:_ReadOnlyCollection_1_System_Collections_Generic_IListU3CTU3E_RemoveAt_m1592158292_gshared
uPf:_PlatformNotSupportedException__ctor_m3301654967
wsj:_emscripten_glFrustum__wrapper
Ref:_ReceiveRecordAsyncResult_get_CompletedWithError_m2670396551
F4g:__Z37RuntimeInvoker_Enumerator_t2983962278PFvvEPK10MethodInfoPvPS4_
bNd:_Decimal_Equals_m1798565377
nLa:__ZN17GlobalGameManager8TransferI24GenerateTypeTreeTransferEEvRT_
BYg:__Z38RuntimeInvoker_ContentType_t1028629049PFvvEPK10MethodInfoPvPS4_
qmg:__ZL95Component_t3819376471_CustomAttributesCacheGenerator_Component_GetComponentInParent_m1617315419P21CustomAttributesCache
aCg:__ZL66InputField_t1631627530_CustomAttributesCacheGenerator_m_CaretColorP21CustomAttributesCache
sdb:__ZN15SerializeTraitsINSt3__26vectorIN9ShaderLab20SerializedSubProgram15MatrixParameterENS0_9allocatorIS4_EEEEE8TransferI24GenerateTypeTreeTransferEEvRS7_RT_
CTf:_TypeBuilder_check_created_m2929267877
ORg:__Z121RuntimeInvoker_Int64_t909078037_Int32_t2071877448_Int32_t2071877448_Int32_t2071877448_Int32_t2071877448_Int32_t2071877448PFvvEPK10MethodInfoPvPS4_
_Hb:__Z20SyncFenceCullResultsR11CullResults
Mqa:__ZN15TextureTFMethod20IsBoneCountSupportedEi
HNa:__ZN14RenderSettings23VirtualRedirectTransferER24GenerateTypeTreeTransfer
JJd:_DateTime_System_IConvertible_ToSByte_m2575078084_AdjustorThunk
bqb:__Z22TransferField_NonArrayI17RemapPPtrTransfer27Converter_SimpleNativeClassI8GUIStyleEEvRK23StaticTransferFieldInfoR31RuntimeSerializationCommandInfoRT0_
$$b:__ZNK17AnimationCurveTplIfE20EvaluateWithoutCacheEfRf
$8i:__ZN6il2cpp2os6Thread12QueueUserAPCEPFvPvES2_
YNa:__ZN19ShaderPropertySheet10SetTextureERK23FastTexturePropertyNameP7Texture
WVd:_Array_InternalArray__IEnumerable_GetEnumerator_TisDictionaryEntry_t3048875398_m3498834924_gshared
mSe:_Collection_1_IsValidItem_m1304951912_gshared
w6b:__ZN4Mesh10SetNormalsEPK8Vector3fj
H_f:_PropertyInfo__ctor_m1808219471
XFd:_Convert_ToDateTime_m4161927553
ITf:_TypeBuilder_GetConstructors_m774120094
or:__ZN17AnimationCurveTplIfE8TransferI14SafeBinaryReadEEvRT_
uMg:__Z75RuntimeInvoker_Boolean_t3825574718_RuntimeObject_MonoIOErrorU26_t1029615899PFvvEPK10MethodInfoPvPS4_
RSh:_RegularExpression_set_GroupCount_m2991393456
YJd:_Calendar_get_EraNames_m452820602
FYa:__ZNSt3__26vectorIN15QualitySettings14QualitySettingENS_9allocatorIS2_EEE6assignIPS2_EENS_9enable_ifIXaasr21__is_forward_iteratorIT_EE5valuesr16is_constructibleIS2_NS_15iterator_traitsIS9_E9referenceEEE5valueEvE4typeES9_S9_
gwa:__ZNK5Unity9Component10GetEnabledEv
DIb:__ZNK19ShaderPropertySheet11HasPropertyERKN9ShaderLab16FastPropertyNameE
uJd:_DateTime_System_IConvertible_ToByte_m2670443498_AdjustorThunk
ukh:_ValueCollection_System_Collections_Generic_ICollectionU3CTValueU3E_Contains_m3650367146_gshared
PMi:_il2cpp_class_get_image
z2:__Z16AsyncReadRequestP16AsyncReadCommand
kkg:__ZL81BigInteger_t925946153_CustomAttributesCacheGenerator_BigInteger__ctor_m4013661868P21CustomAttributesCache
MBi:__ZNK15dense_hashtableINSt3__24pairIK10KeyWrapperIPK22Il2CppGenericParameterEP11Il2CppClassEES6_N6il2cpp5utils11PointerHashIS4_EEN14dense_hash_mapIS6_S9_SE_NS6_14EqualsComparerINS0_8equal_toIS5_EEEENS0_9allocatorISA_EEE9SelectKeyESJ_SL_E12test_deletedEj
h5e:_BigInteger_op_Addition_m1734797151
U_a:__ZN15dense_hashtableINSt3__24pairIKN4core12basic_stringIcNS2_20StringStorageDefaultIcEEEE13dynamic_arrayI4PPtrI6SpriteELj4EEEES6_20StringHash32FunctionIS6_EN14dense_hash_mapIS6_SC_SF_NS0_8equal_toIS6_EE13stl_allocatorISD_L18MemLabelIdentifier81ELi16EEE9SelectKeyESI_SL_E4findERS7_
jRe:_Collection_1_System_Collections_IList_set_Item_m3488446830_gshared
bUf:_EnumBuilder_CreateNotSupportedException_m62763134
iTc:__ZNK12HeaderHelper3GetERKN4core12basic_stringIcNS0_20StringStorageDefaultIcEEEE
Gnf:_X509Chain_CheckRevocation_m2480313486
fwe:_Math_Log_m3371716878
p3a:__ZN9InputAxis8TransferI14SafeBinaryReadEEvRT_
u$:__ZNK21ExecutionOrderManager30GetCustomAwakeFromLoadQueueForEPKN5Unity4TypeE
KSc:__Z27RegisterModule_UnityConnectv
lBd:_Hashtable__ctor_m4280223555
p$f:_ParameterInfo_get_IsRetval_m1881464570
Wvf:_RealProxy__ctor_m3041043303
yle:_NumberFormatter_Init_m2654758994
GWc:_HMACSHA1__ctor_m1168389339
kK:__ZN10ObjectPoolIN4FMOD12ChannelGroupENS0_13ChannelGroupIEE7SetSizeEi
Dae:_PrimalityTest_BeginInvoke_m966469054
SVh:_Bounds_get_max_m1939845278_AdjustorThunk
x$e:_ReadOnlyCollection_1_System_Collections_Generic_ICollectionU3CTU3E_Clear_m1785953911_gshared
HNf:_UInt64_System_IConvertible_ToInt16_m2797150165_AdjustorThunk
D5d:_Array_InternalArray__get_Item_TisLabelData_t3712112744_m863115768_gshared
mne:_Int32_Parse_m753946802
vwg:__ZL113GUITargetAttribute_t863467180_CustomAttributesCacheGenerator_GUITargetAttribute_GetGUITargetAttrValue_m3706077059P21CustomAttributesCache
UV:__Z22ValidateTlsfAllocationPvjiS_
cqi:_AudioConfigurationChangeHandler_Invoke_m653824108
lMe:_List_1_RemoveAt_m2331128844_gshared
xWi:__ZN14dense_hash_mapI10KeyWrapperINSt3__24pairIPK9EventInfoP11Il2CppClassEEEj17ReflectionMapHashIS8_ENS9_14EqualsComparerINS1_8equal_toIS8_EEEENS1_9allocatorINS2_IKS9_jEEEEE15set_deleted_keyERSH_
SXf:_UnmanagedMarshal_ToMarshalAsAttribute_m3695569337
tnb:__Z14resize_trimmedINSt3__26vectorI17AnimationCurveTplIfE13stl_allocatorIS3_L18MemLabelIdentifier1ELi16EEEEEvRT_j
xTb:__ZN25CameraStackRenderingState19SetupLastEyeCamerasERK11CameraStack
DCa:__Z12GUIDToStringRK9UnityGUID
hpd:_LayoutElement_get_minHeight_m2070403283
kG:__ZN11SoundHandleC2ERKS_
Yw:__ZN17AnimationPlayableC2E18DirectorPlayerType
j7e:_RSASslSignatureFormatter__ctor_m2530528184
qHi:__ZNK6il2cpp5utils11collections13ArrayValueMapIPK10Il2CppType17Il2CppInteropData26InteropDataToTypeConverterNS_8metadata14Il2CppTypeLessENS8_26Il2CppTypeEqualityComparerEE10find_firstERKS5_
ALa:__ZN15SerializeTraitsI12fixed_bitsetILi24EjEE8TransferI18StreamedBinaryReadILb0EEEEvRS1_RT_
iae:_BigInteger_op_Addition_m1196561843
vXb:__Z29StdTemplateConversionFunctionItxEbPvR14SafeBinaryRead
Zyi:_CanvasRenderer_INTERNAL_CALL_GetColor_m3192682614
nMh:_FormatterData__ctor_m3974986124
l6f:__ZL64FileNotFoundException_t4200667904_CustomAttributesCacheGeneratorP21CustomAttributesCache
cYc:_RijndaelManagedTransform_get_CanReuseTransform_m3735256596
Qmg:__ZL97GameObject_t1756533147_CustomAttributesCacheGenerator_GameObject_GetComponentInParent_m1178052983P21CustomAttributesCache
JAd:_Comparer__cctor_m1327316974
kqe:_MonoIO_ExistsFile_m1421941572
gLd:_DateTime_op_GreaterThanOrEqual_m3818963848
Zu:__ZN17AnimationPlayable18DeallocateBindingsEv
eVb:__ZN6Camera25StandaloneRenderToCubemapEP7TextureiPFvPK9SceneNodePK4AABBR9IndexListPvESA_j
bgd:_DefaultControls_SetDefaultTextValues_m1707718380
ccd:_TouchInputModule_UseFakeInput_m2112019004
b8c:_EventSystem_get_baseEventDataCache_m4294741599
MNa:__ZN14RenderSettings18TransferDeprecatedI14SafeBinaryReadEEvRT_
wX:__ZN12TLSAllocatorI14StackAllocatorE8AllocateEji
u0:__ZN16ScriptingManager18GetMonoScriptCacheEi
KJg:__Z62RuntimeInvoker_Void_t1841601450_RuntimeObject_Int64_t909078037PFvvEPK10MethodInfoPvPS4_
rqg:__ZL104RectTransform_t3349966182_CustomAttributesCacheGenerator_RectTransform_INTERNAL_get_anchorMax_m190830848P21CustomAttributesCache
FDi:__ZN15dense_hashtableINSt3__24pairIK10KeyWrapperIPK11Il2CppClassEPKcEES6_N6il2cpp5utils11PointerHashIS3_EEN14dense_hash_mapIS6_S9_SE_NS6_14EqualsComparerINS0_8equal_toIS5_EEEENS0_9allocatorISA_EEE9SelectKeyESJ_SL_E15set_deleted_keyERKSA_
ikd:_GridLayoutGroup_CalculateLayoutInputHorizontal_m2355123124
Ykg:__ZL84Locale_t4255929017_CustomAttributesCacheGenerator_Locale_GetText_m512920887____args1P21CustomAttributesCache
Qlb:__Z18Transfer_BlittableI14SafeBinaryReadLb1EyEvRK29SerializationCommandArgumentsR31RuntimeSerializationCommandInfo
$sg:__ZL89U3CInvokeMessageIdSubscribersU3Ec__AnonStorey0_t1899782350_CustomAttributesCacheGeneratorP21CustomAttributesCache
Vlc:__ZN8JSONRead8TransferIfEEvRT_PKc17TransferMetaFlagsb
Rth:_U3CGetEnumeratorU3Ec__Iterator0_Reset_m2980566576_gshared
p0e:_ReadOnlyCollection_1_System_Collections_ICollection_get_IsSynchronized_m4063596282_gshared
wtd:__ZN21InterfaceFuncInvoker2IP12Il2CppObjectP6Type_tS1_E6InvokeEjP11Il2CppClassS1_S3_S1_
Snj:__ZNSt3__212basic_stringIcNS_11char_traitsIcEENS_9allocatorIcEEE6appendEPKcj
g7f:__ZL54TypeBuilder_t3308873219_CustomAttributesCacheGeneratorP21CustomAttributesCache
sla:__ZN6prcoreL17RemapGenericFloatI18TexFormatARGBFloat17TexFormatRGBAHalfEEvPKNS_9InnerInfoE
$Se:_Collection_1_CheckWritable_m691269733_gshared
IL:__ZN11AudioSource21ApplyCachedParametersE12SoundChannel
B4g:__Z54RuntimeInvoker_Void_t1841601450_IntPtr_t_RuntimeObjectPFvvEPK10MethodInfoPvPS4_
FUf:_GenericTypeParameterBuilder_GetAttributeFlagsImpl_m3338182267
AQ:__ZN13Simd4iFactoryIN6detail9FourTupleEEC2Eiiii
Cue:_SynchronizedReader__ctor_m1408327515
i5h:_X509Store_LoadCrl_m1146720614
t0g:__Z59RuntimeInvoker_Int32_t2071877448_KeyValuePair_2_t3749587448PFvvEPK10MethodInfoPvPS4_
p1e:_ReadOnlyCollection_1_System_Collections_IList_Clear_m1858417639_gshared
oCd:_Slot_t2022531261_marshal_pinvoke_cleanup
Sii:_UnityAction_3_Invoke_m1025098032_gshared
sWa:__ZN15SerializeTraitsI33EnlightenTerrainChunksInformationE8TransferI14SafeBinaryReadEEvRS0_RT_
uwi:_Predicate_1__ctor_m1567825400_gshared
e2b:__ZNK32RendererMaterialAnimationBinding9BindValueER6ObjectRKN11UnityEngine9Animation14GenericBindingERNS3_10BoundCurveE
TSa:__Z13GetIAnimationv
Bja:__ZL18stbir__support_onef
$Fe:_List_1_System_Collections_IList_Remove_m2040310137_gshared
WVh:_Bounds_SetMinMax_m2094075031_AdjustorThunk
IOh:_Match_get_Regex_m3526002767
w6f:__ZL49Stream_t3255436806_CustomAttributesCacheGeneratorP21CustomAttributesCache
Gnc:__Z26Transfer_UnityEngineObjectI9JSONWriteLb0EEvRK29SerializationCommandArgumentsR31RuntimeSerializationCommandInfo
nRa:__ZNSt3__26vectorIN4core12basic_stringIcNS1_20StringStorageDefaultIcEEEE13stl_allocatorIS5_L18MemLabelIdentifier1ELi16EEE6assignINS_11__wrap_iterIPS5_EEEENS_9enable_ifIXaasr21__is_forward_iteratorIT_EE5valuesr16is_constructibleIS5_NS_15iterator_traitsISF_E9referenceEEE5valueEvE4typeESF_SF_
OMf:_UInt32_System_IConvertible_ToInt16_m2251335934_AdjustorThunk
UJc:__ZNSt3__27__sort5IRNS_6__lessIN2UI14DepthSortEntryES3_EEPS3_EEjT0_S7_S7_S7_S7_T_
gtd:_Boolean_System_IConvertible_ToType_m3990189691
jTi:__ZNSt3__218uninitialized_copyIPNS_4pairIK10KeyWrapperINS1_IPK11Il2CppImageP11Il2CppClassEEEjEESC_EET0_T_SE_SD_
Ba:invoke_vdd
v8:__ZN14dense_hash_mapIN4core12basic_stringIcNS0_20StringStorageDefaultIcEEEE13dynamic_arrayI4PPtrI6SpriteELj4EE20StringHash32FunctionIS4_ENSt3__28equal_toIS4_EE13stl_allocatorINSC_4pairIKS4_S9_EEL18MemLabelIdentifier81ELi16EEE15set_deleted_keyERSH_
eCh:_InternalEnumerator_1_Dispose_m3838127340_AdjustorThunk
_Od:_Double_System_IConvertible_ToUInt32_m624993430
Tyg:__ZL89PointerEventData_t1599784723_CustomAttributesCacheGenerator_U3CdraggingU3Ek__BackingFieldP21CustomAttributesCache
tHc:__ZZ29InitializeTextRenderingModulevEN27cleanupAfterLoadRegistrator7ForwardEv
rIf:_Scheduler_Add_m376749205
ww:__ZN27AnimationLayerMixerPlayable24ProcessAnimationLayerMixEP33AnimationPlayableEvaluationOutputP35AnimationPlayableEvaluationConstantP32AnimationPlayableEvaluationInputS1_if
iTb:__Z29PluginsIssueRenderingExtEvent26UnityRenderingExtEventTypePv
jJi:_WebRequestUtils_RedirectTo_m675215376
ODh:_InternalEnumerator_1_Dispose_m3464626239_AdjustorThunk
f1b:__Z14RandomRotationP9Texture2DPhiiii
Eze:_OutOfMemoryException__ctor_m1932883273
IAh:_InternalEnumerator_1_MoveNext_m1594563423_AdjustorThunk
T7d:_SimpleCollator_IsIgnorable_m2485013022
OJe:_List_1_System_Collections_IList_Insert_m2036969360_gshared
Knd:_InputField_GetUnclampedCharacterLineFromPosition_m1912794077
Ere:_ReadDelegate__ctor_m885671467
oBh:_InternalEnumerator_1_System_Collections_IEnumerator_Reset_m4085710193_AdjustorThunk
ELd:_DateTimeOffset_ToString_m2121173678_AdjustorThunk
Hkg:__ZL50X509Crl_t1699034837_CustomAttributesCacheGeneratorP21CustomAttributesCache
CRg:__Z74RuntimeInvoker_RuntimeObject_RuntimeObject_Int16_t4041245914_RuntimeObjectPFvvEPK10MethodInfoPvPS4_
ej:_JS_WebRequest_SetResponseHandler
xyj:_glDeleteProgram__wrapper
kbc:__Z50Register_UnityEngine_Camera_INTERNAL_get_pixelRectv
Kka:__ZN6prcoreL18BlitFloatToIntegerERK14ImageReferenceRS0_
bge:_X509CertificateCollection_get_Item_m410866272
Gmi:_EqualityComparer_1_System_Collections_IEqualityComparer_Equals_m1705945391_gshared
TJb:__Z13GetIPhysics2Dv
LT:__ZN11UnityEngine15CloudWebService14RestDownloader17OnCompleteContentEv
Ckd:_LayoutGroup_SetChildAlongAxis_m1615929339
GRg:__Z75RuntimeInvoker_RuntimeObject_RuntimeObject_Double_t4078015681_RuntimeObjectPFvvEPK10MethodInfoPvPS4_
UQg:__Z200RuntimeInvoker_Boolean_t3825574718_RuntimeObject_RuntimeObject_RuntimeObject_Int32_t2071877448_DateTimeU26_t3448131235_SByte_t454417549_BooleanU26_t3168250738_SByte_t454417549_ExceptionU26_t1467204777PFvvEPK10MethodInfoPvPS4_
Qa:invoke_viffi
sy:__ZN17AnimationPlayable28UpdateInternalStateRecursiveILi1ELb0EEEvPK35AnimationPlayableEvaluationConstant
Q4i:__ZN6il2cpp2gcL10CleanupCCWEPvS1_
Ta:invoke_vifff
gvh:_InternalEnumerator_1__ctor_m2111763266_gshared
Cdc:__Z53Register_UnityEngine_Input_INTERNAL_get_mousePositionv
jxj:_glGetVertexAttribiv__wrapper
Le:_emscripten_request_fullscreen
nui:__ZL25UnresolvedVirtualCall_212P12Il2CppObjecti40CustomAttributeTypedArgument_t1498197914PK10MethodInfo
xCb:__ZN20LocalFileSystemWebGL6DeleteER13FileEntryDatab
PMd:_Decimal_System_IConvertible_ToUInt16_m1621568250
Ne:_emscripten_glDisableVertexAttribArray
Qm:FUNCTION_TABLE_iiiifiiii
lJf:_TimeSpan_get_TotalMinutes_m1645177229_AdjustorThunk
ic:invoke_fifffi
Jjh:_Enumerator__ctor_m3539306986_gshared
eha:__ZN4gles23ClearCurrentFramebufferEP7ApiGLESbbbRK10ColorRGBAffi
Sw:__ZN7mecanim12statemachine20CreateStateWorkspaceEjjjRNS_6memory9AllocatorE
rbe:__ZN21InterfaceFuncInvoker3IP22ByteU5BU5D_t3397334013S1_iiE6InvokeEjP11Il2CppClassP12Il2CppObjectS1_ii
fwh:_InternalEnumerator_1_System_Collections_IEnumerator_get_Current_m3680087284_gshared
Ye:_emscripten_glDeleteObjectARB
Tf:_IMG_Load
sve:_UnexceptionalStreamReader_Read_m3839775235
K_h:_Input_get_compositionCursorPos_m1028058884
_la:__ZN6prcoreL27StretchGenericFloatBilinearI18TexFormatARGBFloatEEvPKNS_9InnerInfoE
Vfc:__Z53Register_UnityEngine_RenderTexture_Internal_GetHeightv
v6d:_Dropdown_GetOrAddComponent_TisRuntimeObject_m2875934266_gshared
iwf:_RealProxy_SetTargetDomain_m3940877656
Lla:__ZN6prcoreL17RemapGenericFloatI17TexFormatRGBAHalf18TexFormatARGBFloatEEvPKNS_9InnerInfoE
GPd:_Enum_System_IConvertible_ToInt32_m2459904362
JRg:__Z61RuntimeInvoker_RuntimeObject_Double_t4078015681_RuntimeObjectPFvvEPK10MethodInfoPvPS4_
cPg:__Z211RuntimeInvoker_Int32_t2071877448_RuntimeObject_Int32_t2071877448_Int32_t2071877448_Int32_t2071877448_Int32_t2071877448_RuntimeObject_DecoderFallbackBufferU26_t3597875002_ByteU5BU5DU26_t790777611_SByte_t454417549PFvvEPK10MethodInfoPvPS4_
ijc:__Z14GetBuiltinSkini
g8e:_ContentInfo__ctor_m3871771681
Z6c:_BaseInput_set_compositionCursorPos_m2632248731
ioi:_Enumerator_System_Collections_IEnumerator_Reset_m2573763156_gshared
_1g:__Z74RuntimeInvoker_Void_t1841601450_Int32_t2071877448_MonoResource_t3127387157PFvvEPK10MethodInfoPvPS4_
_pe:_DirectoryInfo_Initialize_m2216118894
H1c:_WindowsIdentity_Dispose_m2649088337
Fgb:__ZN2UI13RectTransform23VirtualRedirectTransferER14SafeBinaryRead
X6a:__ZN24GenerateTypeTreeTransfer8TransferINSt3__26vectorIN4core12basic_stringIcNS3_20StringStorageDefaultIcEEEE13stl_allocatorIS7_L18MemLabelIdentifier13ELi16EEEEEEvRT_PKc17TransferMetaFlags
_Qe:_Collection_1_System_Collections_IList_Contains_m323652826_gshared
nDe:_List_1_System_Collections_ICollection_get_SyncRoot_m3733894943_gshared
yIe:_List_1_Reverse_m302978607_gshared
Rcb:__ZNSt3__26vectorIN9ShaderLab20SerializedSubProgramENS_9allocatorIS2_EEE6assignIPS2_EENS_9enable_ifIXaasr21__is_forward_iteratorIT_EE5valuesr16is_constructibleIS2_NS_15iterator_traitsIS9_E9referenceEEE5valueEvE4typeES9_S9_
Spc:__Z18Transfer_BlittableI8JSONReadLb0E8BitFieldEvRK29SerializationCommandArgumentsR31RuntimeSerializationCommandInfo
cxf:_SoapServices_RegisterInteropXmlType_m2949236705
aSi:__ZNK15dense_hashtableINSt3__24pairIK10KeyWrapperIPK10Il2CppTypeEjEES6_N6il2cpp8metadata14Il2CppTypeHashEN14dense_hash_mapIS6_jSB_NS6_14EqualsComparerINSA_26Il2CppTypeEqualityComparerEEENS0_9allocatorIS8_EEE9SelectKeyESF_SH_E10test_emptyERK24dense_hashtable_iteratorIS8_S6_SB_SJ_SF_SH_E
Nvb:__ZL17Transfer_GUIStyleI18StreamedBinaryReadILb1EELb0EEvRK29SerializationCommandArgumentsR31RuntimeSerializationCommandInfo
M5c:_String_CharCopy_m2550399897
NTg:__Z234RuntimeInvoker_RuntimeObject_Int16_t4041245914_RuntimeObject_Int32_t2071877448_Int32_t2071877448_Int32_t2071877448_SByte_t454417549_SByte_t454417549_SByte_t454417549_SByte_t454417549_Int16_t4041245914_SByte_t454417549_SByte_t454417549PFvvEPK10MethodInfoPvPS4_
Xab:__ZN9ShaderLab14SerializedPass8TransferI14SafeBinaryReadEEvRT_
akc:__Z71Register_UnityEngine_GUILayoutUtility_INTERNAL_CALL_Internal_MoveWindowv
pO:__ZN12AudioManager16SetListenerPauseEb
O6a:__ZNSt3__26vectorIN30RuntimeInitializeOnLoadManager9ClassInfoE13stl_allocatorIS2_L18MemLabelIdentifier13ELi16EEE6assignINS_11__wrap_iterIPS2_EEEENS_9enable_ifIXaasr21__is_forward_iteratorIT_EE5valuesr16is_constructibleIS2_NS_15iterator_traitsISC_E9referenceEEE5valueEvE4typeESC_SC_
f$i:__ZN6il2cpp2vm9Exception25RaiseOutOfMemoryExceptionERKNS_5utils10StringViewIDsEE
BRe:_Collection_1_IsValidItem_m2254106115_gshared
RTf:_TypeBuilder_GetEvent_m3876348075
mdh:_Slider_OnMove_m641164662
da:invoke_viiiiiiiiiii
nkj:___syscall_ret
uIf:_Scheduler__ctor_m3716265742
gde:_MACAlgorithm_Final_m4076939925
QOi:__ZNSt3__212basic_stringIcNS_11char_traitsIcEENS_9allocatorIcEEE6assignINS_11__wrap_iterIPKcEEEENS_9enable_ifIXaasr21__is_forward_iteratorIT_EE5valuesr38__libcpp_string_gets_noexcept_iteratorISC_EE5valueERS5_E4typeESC_SC_
Tdf:_TlsServerKeyExchange_ProcessAsSsl3_m462106368
K_a:__ZN11ChannelInfo8TransferI19StreamedBinaryWriteILb0EEEEvRT_
Nvh:_InternalEnumerator_1_System_Collections_IEnumerator_get_Current_m3583252352_gshared
F1h:_Object_op_Implicit_m1757773010
sTf:_EnumBuilder_get_FullName_m2818393911
n5e:_BigInteger_op_RightShift_m852685747
Bte:_StreamAsyncResult_get_Done_m2858832609
rcc:__Z34Register_UnityEngine_Gradient_Initv
oli:_ObjectPool_1_set_countAll_m1742773675_gshared
Azf:_SerializationEntry_get_Value_m1628109884_AdjustorThunk
A7c:_BaseInputModule_GetAxisEventData_m3903709281
U5d:_Array_InternalArray__get_Item_TisUriScheme_t1876590943_m1821482697_gshared
k4e:_BigInteger__ctor_m3239748086
FZa:__ZN13ScreenManager23SetIsOrientationEnabledE18EnabledOrientationb
uri:__ZL24UnresolvedVirtualCall_57P12Il2CppObjectiPK10MethodInfo
T9h:_HitInfo_SendMessage_m3395411273
Hgg:__ZL79Convert_t2607082565_CustomAttributesCacheGenerator_Convert_ToUInt16_m1043031438P21CustomAttributesCache
Cw:__ZN7mecanim5human25HumanPoseAddOverrideLayerERNS0_9HumanPoseERKS1_fRKNS_6bitsetILj70EEE
V$b:__ZN13ProduceHelperI9TransformLb0EE7ProduceE18MemLabelIdentifier18ObjectCreationMode
Fui:__ZL25UnresolvedVirtualCall_230P12Il2CppObject19Vector3_t2243707580PK10MethodInfo
CTg:__Z42RuntimeInvoker_AlertDescription_t844791462PFvvEPK10MethodInfoPvPS4_
lRh:_Alternation_get_Alternatives_m1445219249
Fph:_DefaultComparer_GetHashCode_m2506382068_gshared
lth:_EqualityComparer_1_System_Collections_IEqualityComparer_GetHashCode_m1012273405_gshared
n_d:_Array_InternalArray__ICollection_Add_TisHitInfo_t1761367055_m2956071622_gshared
ACh:_InternalEnumerator_1_MoveNext_m470170271_AdjustorThunk
GDa:__ZN10GameObject23VirtualRedirectTransferER18StreamedBinaryReadILb0EE
YAe:_Enumerator_get_Current_m2577424081_gshared
mFh:_InternalEnumerator_1_Dispose_m2270401482_AdjustorThunk
og:_glFrontFace
$yf:_ObjectRecord_get_IsUnsolvedObjectReference_m2202692850
hqf:_FactoryCache_Cleanup_m4130035987
TMh:__ZN23InterfaceActionInvoker1IP18Context_t502196753E6InvokeEjP11Il2CppClassP12Il2CppObjectS1_
Z8h:_Vector2_op_Addition_m4229571528
cHi:__ZNK15dense_hashtableINSt3__24pairIK10KeyWrapperIPK19Il2CppGenericMethodEPK26Il2CppGenericMethodIndicesEES6_N6il2cpp8metadata23Il2CppGenericMethodHashEN14dense_hash_mapIS6_SA_SE_NS6_14EqualsComparerINSD_26Il2CppGenericMethodCompareEEENS0_9allocatorISB_EEE9SelectKeyESI_SK_E12test_deletedEj
U_b:__ZN13ProduceHelperI19LowerResBlitTextureLb0EE7ProduceE18MemLabelIdentifier18ObjectCreationMode
EPb:__ZNSt3__26vectorI16ShadowCasterData13stl_allocatorIS1_L18MemLabelIdentifier2ELi16EEE21__push_back_slow_pathIKS1_EEvRT_
qNf:_UInt32_ToString_m1783596809
kNe:_List_1_Sort_m269561757_gshared
gvj:_glUniform1i__wrapper
aIc:__Z51Register_UnityEngine_TextGenerator_GetLinesInternalv
Doi:_HashSet_1_Init_m1258286688_gshared
AZe:_ReadOnlyCollection_1_System_Collections_IList_RemoveAt_m525136953_gshared
HXd:__ZN21InterfaceFuncInvoker1Ii19Vector4_t2243707581E6InvokeEjP11Il2CppClassP12Il2CppObjectS0_
ala:__ZN6prcoreL17RemapGenericFloatI17TexFormatRGBFloat18TexFormatRGBAFloatEEvPKNS_9InnerInfoE
Qti:__ZL25UnresolvedVirtualCall_187P12Il2CppObject20TimeSpan_t3430258949S1_PK10MethodInfo
vNf:_UInt64_System_IConvertible_ToBoolean_m3012279573_AdjustorThunk
kLf:_Type_get_IsGenericTypeDefinition_m2147901038
CSc:__ZN20UnityConnectSettings10InitializeEv
oNh:_ContextAttribute_Freeze_m4133346275
Khe:_GregorianCalendar__ctor_m3794576475
lNf:_UInt32_TryParse_m4283512434
xbi:_TrackedReference_GetHashCode_m1278837032
t3i:__ZN15dense_hashtableI10KeyWrapperIP18Il2CppGenericClassES3_N6il2cpp8metadata22Il2CppGenericClassHashEN14dense_hash_setIS3_S6_NS3_14EqualsComparerINS5_25Il2CppGenericClassCompareEEENSt3__29allocatorIS3_EEE8IdentityESA_SD_E8min_sizeEjj
bG:__ZN9AudioClip11CreateSoundEv
phh:_ShimEnumerator_MoveNext_m3313047792_gshared
ieb:__ZN9ShaderLab20SerializedSubProgram15VectorParameter8TransferI19StreamedBinaryWriteILb0EEEEvRT_
SJf:_TimeSpan_op_Inequality_m257547441
LWi:__ZN14dense_hash_mapI10KeyWrapperINSt3__24pairIPK9FieldInfoP11Il2CppClassEEEj17ReflectionMapHashIS8_ENS9_14EqualsComparerINS1_8equal_toIS8_EEEENS1_9allocatorINS2_IKS9_jEEEEEC2EjRKSB_RKSF_
lSi:__ZNK15dense_hashtableINSt3__24pairIK10KeyWrapperINS1_IPK10MethodInfoP11Il2CppClassEEEjEES9_17ReflectionMapHashIS8_EN14dense_hash_mapIS9_jSD_NS9_14EqualsComparerINS0_8equal_toIS8_EEEENS0_9allocatorISB_EEE9SelectKeyESI_SK_E13find_positionERSA_
kTf:_EnumBuilder_get_Assembly_m4285228003
Cda:__ZN13GfxDeviceGLES20CreateComputeProgramEPKhj
PFd:_DateTimeFormatInfo_get_RoundtripPattern_m562440017
XRc:__ZN11UnityEngine7Connect16PersistentValues13RestoreValuesER8JSONRead
ski:_U3CStartU3Ec__Iterator0_System_Collections_Generic_IEnumeratorU3CobjectU3E_get_Current_m1702093362_gshared
YAa:__ZN20ArchiveStorageReader31TryToReadDirectoryFromBlockDataEyPKvj
Eqh:_DefaultComparer__ctor_m3947565964_gshared
FOd:_Double_System_IConvertible_ToByte_m3004284950_AdjustorThunk
gxf:_TypeEntry_get_AssemblyName_m1762285107
E0g:__Z55RuntimeInvoker_Int32_t2071877448_LabelFixup_t4090909514PFvvEPK10MethodInfoPvPS4_
v1i:__ZN6il2cpp2vmL11GetIdentityEP14Il2CppIUnknown
Hce:_SmallXmlParser_ReadCDATASection_m2558307107
Tdj:_GC_push_gc_structures
dpi:_PCMReaderCallback_BeginInvoke_m2451387560
Lcd:_AspectRatioFitter_get_aspectRatio_m3023618874
qLi:__ZN6il2cpp6icalls8mscorlib6SystemL8IsPublicEPK9EventInfo
fsf:_Enumerator__ctor_m3782962052
jVi:__ZN15dense_hashtableINSt3__24pairIK10KeyWrapperIPK14Il2CppAssemblyEPK22Il2CppMonoAssemblyNameEES6_N6il2cpp5utils11PointerHashIS4_EEN14dense_hash_mapIS6_SA_SF_NS6_14EqualsComparerINS0_8equal_toIS5_EEEENS0_9allocatorISB_EEE9SelectKeyESK_SM_E4swapERSP_
pDd:_Enumerator_get_Current_m1271212567
dbj:__ZThn4_N6il2cpp2vm13ComObjectBase18ReleaseMarshalDataEP13Il2CppIStream
$ra:__Z22GetShaderCachePathGLESv
mQg:__Z51RuntimeInvoker_UInt16_t986882611_Double_t4078015681PFvvEPK10MethodInfoPvPS4_
akf:_IPAddress_ParseIPV6_m2209709575
S9g:_U3CClickRepeatU3Ec__Iterator0_MoveNext_m1747924386
k3e:_Comparison_1_Invoke_m1670081898_gshared
Heh:_Toggle_set_group_m3833595685
cqd:_LayoutRebuilder_ForceRebuildLayoutImmediate_m566681977
b$a:__ZNSt3__213__stable_sortIRNS_4lessI4PPtrI11SpriteAtlasEEENS_11__wrap_iterIPS4_EEEEvT0_SA_T_NS_15iterator_traitsISA_E15difference_typeEPNSD_10value_typeEi
Nra:__ZNSt3__26vectorIPN19ConstantBuffersGLES11ConstBufferENS_9allocatorIS3_EEE21__push_back_slow_pathIKS3_EEvRT_
v_d:_Array_InternalArray__ICollection_Add_TisVector4_t2243707581_m698578249_gshared
i6h:_PropertyName_ToString_m1129982609_AdjustorThunk
mY:__ZN8keywords6CreateEPKc
S:Math_imul
TYa:__ZN11PlayerPrefs6GetIntERKN4core12basic_stringIcNS0_20StringStorageDefaultIcEEEEi
bGi:__ZN6il2cpp5utils13dynamic_arrayIPK10Il2CppTypeLj4EEC2ERKS5_
i2c:_SecurityFrame_t1002202659_marshal_pinvoke_back
KHc:__Z45TextGenerator_CUSTOM_INTERNAL_get_rectExtentsP12Il2CppObjectP5RectTIfE
lne:_Int32_Equals_m321398519_AdjustorThunk
xVd:_SetPropertyUtility_SetStruct_TisChar_t3454481338_m2333420724_gshared
ERe:_Collection_1_IsSynchronized_m2601980439_gshared
MBd:_Hashtable_ContainsKey_m2716576664
cP:__ZN11AudioSource12SetAudioClipEP9AudioClip
jPh:_PatternCompiler_EmitCategory_m1696942454
_Md:_Decimal_decimalFloorAndTrunc_m3655683429
P_d:_Array_InternalArray__ICollection_CopyTo_TisInt32_t2071877448_m984622488_gshared
_Z:__ZN18ScriptingArguments9AddObjectE18ScriptingObjectPtr
$Lc:__Z39CanvasGroup_Get_Custom_PropInteractableP12Il2CppObject
XQ:__ZN11UnityEngine15CloudWebService16SessionContainerD2Ev
gSc:__ZL38InitializeUnityConnectScriptingClassesv
TTb:__ZN13ProbeRenderer8ConvolveEbijjb
uha:__ZN17GenericDynamicVBOC2ER9GfxDevice13GfxBufferModejj
NMh:_Context_get_HasDynamicSinks_m1998518649
jic:__ZZN10GUIManager14InitGUIManagerEvEN41PreUpdateIMGUISendQueuedEventsRegistrator7ForwardEv
uii:_UnityAction_1_Invoke_m2903588655_gshared
oS:__ZN11UnityEngine15CloudWebService17SessionEventQueue10PurgeItemsEj
E6c:_AbstractEventData_get_used_m4208553917
yUb:__ZN6Camera16StandaloneRenderENS_10RenderFlagEP6ShaderRKN4core12basic_stringIcNS3_20StringStorageDefaultIcEEEE
wqd:_Array_System_Collections_IList_get_Item_m2088124007
Qqd:_Array_GetLength_m2083296647
Ldg:__ZL58SecurityElement_t2325568386_CustomAttributesCacheGeneratorP21CustomAttributesCache
GTa:__ZNK12CubemapArray13GetIsReadableEv
wzd:_SynchronizedArrayListWrapper_ToArray_m1522185111
fvb:__Z18Transfer_BlittableI18StreamedBinaryReadILb1EELb1EtEvRK29SerializationCommandArgumentsR31RuntimeSerializationCommandInfo
M1c:_SecurityContext_get_FlowSuppressed_m420202521
TLg:__Z55RuntimeInvoker_DayOfWeek_t721777893_DateTime_t693205669PFvvEPK10MethodInfoPvPS4_
Lba:__ZN9GfxDevice20DeallocRenderSurfaceEP17RenderSurfaceBase
OOf:_ValueType_ToString_m3796301715
tna:__ZN20GpuProgramParameters36UpdatePrepareValuesMaximumBufferSizeEv
Udc:__Z53Register_UnityEngine_Quaternion_INTERNAL_CALL_Inversev
W1d:_Array_qsort_TisUICharInfo_t3056636800_m2607408901_gshared
D9h:_Screen_get_height_m3831644396
uFa:__ZN12BaseRenderer23RendererBecameInvisibleEv
Ztc:__ZN20TextRenderingPrivate8FontImpl13CharacterInfo8TransferI18StreamedBinaryReadILb0EEEEvRT_
usb:__Z29Transfer_Blittable_ArrayFieldI24GenerateTypeTreeTransferfEvRT_R9ArrayInfoRK23StaticTransferFieldInfo
V3:__ZNSt3__26__treeINS_12__value_typeIN4core12basic_stringIcNS2_20StringStorageDefaultIcEEEES6_EENS_19__map_value_compareIS6_S7_NS_4lessIS6_EELb1EEE13stl_allocatorIS7_L18MemLabelIdentifier13ELi16EEE7destroyEPNS_11__tree_nodeIS7_PvEE
eKg:__Z76RuntimeInvoker_RuntimeObject_RuntimeObject_SByte_t454417549_SByte_t454417549PFvvEPK10MethodInfoPvPS4_
NVb:__ZN19CustomRenderTexture9AddParentE4PPtrIS_E
Ewh:_InternalEnumerator_1_MoveNext_m930150026_AdjustorThunk
HXa:__ZN8Gradient8TransferI14SafeBinaryReadEEvRT_
Mji:_UnityEvent_1_Invoke_m1533100983_gshared
mRa:__ZNSt3__26vectorIN4core12basic_stringIcNS1_20StringStorageDefaultIcEEEE13stl_allocatorIS5_L18MemLabelIdentifier1ELi16EEE7reserveEj
ujf:_FileWebRequest__ctor_m4003648606
VDg:__ZL71SpriteState_t1353336012_CustomAttributesCacheGenerator_m_DisabledSpriteP21CustomAttributesCache
IPd:_Enum_System_IConvertible_ToSByte_m3488526280
IXf:_TypeBuilder_ToString_m1952363535
V8a:__ZN18IDCollectorFunctorD0Ev
gHi:__ZNK15dense_hashtableI10KeyWrapperIPK19Il2CppGenericMethodES4_N6il2cpp8metadata23Il2CppGenericMethodHashEN14dense_hash_setIS4_S7_NS4_14EqualsComparerINS6_26Il2CppGenericMethodCompareEEENSt3__29allocatorIS4_EEE8IdentityESB_SE_E4findERKS4_
Jib:__ZNK20LocalFileSystemPosix9IsSymLinkERK13FileEntryData
Ncj:_GC_new_free_list_inner
rph:_DefaultComparer_Equals_m85211180_gshared
GUe:_Collection_1_System_Collections_IList_IndexOf_m1950953062_gshared
Bxe:_MonoType_InternalGetEvent_m532443236
Hri:__ZL24UnresolvedVirtualCall_70P12Il2CppObjectPK10MethodInfo
zTe:_Collection_1_IndexOf_m2700825189_gshared
PGh:_Comparer_1_get_Default_m2605397692_gshared
dei:_MathfInternal__cctor_m2774058555
Cob:__Z35Transfer_Blittable_FixedBufferFieldI17RemapPPtrTransferiEvRK29SerializationCommandArgumentsR31RuntimeSerializationCommandInfo
Gqc:__ZN8JSONRead8TransferI10RectOffsetEEvRT_PKc17TransferMetaFlagsb
c2i:__ZNK15dense_hashtableINSt3__24pairIK10KeyWrapperINS1_IPKcS4_EEEiEES6_24NamespaceAndNamePairHashN14dense_hash_mapIS6_iS9_NS6_14EqualsComparerI26NamespaceAndNamePairEqualsEENS0_9allocatorIS8_EEE9SelectKeyESD_SF_E12test_deletedERK24dense_hashtable_iteratorIS8_S6_S9_SH_SD_SF_E
YR:__ZN9JSONWrite8TransferIN11UnityEngine15CloudWebService14DataErrorEvent15FileErrorDetailEEEvRT_PKc17TransferMetaFlags
l6c:_Decoder__ctor_m2623573910
JKa:__Z21ClearFenceWithoutSyncR8JobFence
eJ:__ZN12SoundManager20RegisterModifiedClipEP10SampleClip
aYh:_Logger__ctor_m1903664092
BL:__ZN11AudioSource4PlayEd
ZEi:__ZN15dense_hashtableI10KeyWrapperIPK17Il2CppGenericInstES4_N6il2cpp8metadata21Il2CppGenericInstHashEN14dense_hash_setIS4_S7_NS4_14EqualsComparerINS6_24Il2CppGenericInstCompareEEENSt3__29allocatorIS4_EEE8IdentityESB_SE_E13set_empty_keyERKS4_
Iib:__ZNK20LocalFileSystemPosix8IsHiddenERK13FileEntryData
lsh:_EqualityComparer_1_System_Collections_IEqualityComparer_Equals_m3589836321_gshared
Tce:_SmallXmlParser_IsNameChar_m1561000202
x3h:_X501__cctor_m2610532554
i9f:__ZL95SafeHandle_t2733794115_CustomAttributesCacheGenerator_SafeHandle_DangerousGetHandle_m1328172664P21CustomAttributesCache
s0g:__Z48RuntimeInvoker_Int32_t2071877448_Link_t865133271PFvvEPK10MethodInfoPvPS4_
vgh:_Enumerator_VerifyState_m3173176371_gshared
O5c:_StringComparer__ctor_m2275216983
CPi:__ZNSt3__214__split_bufferINS_12basic_stringIcNS_11char_traitsIcEENS_9allocatorIcEEEERNS4_IS6_EEED2Ev
iMe:_List_1_CheckCollection_m2220107869_gshared
AUa:__ZN7Cubemap23VirtualRedirectTransferER18StreamedBinaryReadILb0EE
Taf:_RecordProtocol_EncodeRecord_m3884270352
$Zc:_SHA256_Create_m896954069
xFc:_Read_CVT
IId:_Convert_ToUInt32_m776714429
jBa:__ZN12FileAccessor4SeekEx10FileOrigin
P1g:__Z66RuntimeInvoker_Void_t1841601450_Int32_t2071877448_Slot_t2022531261PFvvEPK10MethodInfoPvPS4_
irb:__ZL26Transfer_SimpleNativeClassI24GenerateTypeTreeTransfer17AnimationCurveTplIfELb0EEvRK29SerializationCommandArgumentsR31RuntimeSerializationCommandInfo
Grc:__ZN8JSONRead21TransferSTLStyleArrayI13dynamic_arrayI9BoundsIntLj4EEEEvRT_17TransferMetaFlags
CWa:__ZN24GenerateTypeTreeTransfer8TransferI13dynamic_arrayI33EnlightenTerrainChunksInformationLj4EEEEvRT_PKc17TransferMetaFlags
qrd:_Array_CreateInstance_m3327690220
Y4:__ZN16LightmapSettings20DidChangeActiveSceneEP10UnitySceneS1_
Ksb:__Z18Transfer_BlittableI19StreamedBinaryWriteILb0EELb0EN4math12int3_storageEEvRK29SerializationCommandArgumentsR31RuntimeSerializationCommandInfo
XFg:__ZL59g_AssemblyU2DCSharp_Assembly_CustomAttributesCacheGeneratorP21CustomAttributesCache
ELi:__ZN6il2cpp5utils9PathUtils8BasenameIcEENSt3__212basic_stringIT_NS3_11char_traitsIS5_EENS3_9allocatorIS5_EEEERKSA_
Ojc:__Z35Register_UnityEngine_Event_get_typev
Gde:_PrivateKeyInfo_DecodeRSA_m1427048948
r$i:__ZN6il2cpp2vm9Exception23GetInvalidCastExceptionERKNS_5utils10StringViewIDsEE
r5e:_BigInteger_op_GreaterThanOrEqual_m2643115413
WPf:_Assembly_FillName_m1934025015
bpe:_IntPtr_op_Explicit_m1073656736
G4c:_String_IndexOf_m2126171214
Coe:_Int64_ToString_m1544341651_AdjustorThunk
ty:__ZN8Animator28BuildControllerPlayableCacheEv
tje:_Guid_CheckNull_m2903986431
Oig:__ZL62CrossContextDelegate_t754146990_CustomAttributesCacheGeneratorP21CustomAttributesCache
j$:__Z63ThreadAndSerializationSafeCheckGetMonoBehaviourBeingTransferredv
xfj:_GC_enable
Ocf:_TlsClientCertificateVerify_ProcessAsSsl3_m3377063356
m9i:__GLOBAL__sub_I_GenericMethod_cpp
iVi:__ZN15dense_hashtableINSt3__24pairIK10KeyWrapperIPK14Il2CppAssemblyEPK22Il2CppMonoAssemblyNameEES6_N6il2cpp5utils11PointerHashIS4_EEN14dense_hash_mapIS6_SA_SF_NS6_14EqualsComparerINS0_8equal_toIS5_EEEENS0_9allocatorISB_EEE9SelectKeyESK_SM_EC2ERKSP_j
vbd:_StandaloneInputModule_set_repeatDelay_m2820945738
Dqe:_EndOfStreamException__ctor_m4268387737
vMf:_UInt16_ToString_m4213290405
xdc:__Z37Register_UnityEngine_Input_GetAxisRawv
YNe:_List_1_GetIndex_m433539411_gshared
Sbg:__ZL59StreamingContext_t1417235061_CustomAttributesCacheGeneratorP21CustomAttributesCache
hLh:_ChannelServices_RegisterChannel_m3832858065
PPd:_Enum_GetName_m1226611481
Y3e:_Func_2_Invoke_m4121137703_gshared
nL:__ZN11AudioSource5ResetEv
aKb:__ZN12ImageFilters27SetSurfaceUseResolvedBufferEP13RenderTextureb
u4g:__Z74RuntimeInvoker_DictionaryEntry_t3048875398_RuntimeObject_Int32_t2071877448PFvvEPK10MethodInfoPvPS4_
IPg:__Z53RuntimeInvoker_DateTime_t693205669_Single_t2076509932PFvvEPK10MethodInfoPvPS4_
q$a:__ZN14Texture2DArray23VirtualRedirectTransferER18StreamedBinaryReadILb0EE
MRh:_Literal_CompileLiteral_m276843152
wgb:__ZN2UI13RectTransform13AwakeFromLoadE17AwakeFromLoadMode
IRh:_Reference__ctor_m4110013284
bPb:__ZN14qsort_internal30FindAndMovePivotToLastPositionIP20ShadowCasterSortDatai26ShadowCasterSortDataSorterEEvT_S4_T0_T1_
DFi:__ZNK15dense_hashtableI10KeyWrapperIPK19Il2CppGenericMethodES4_N6il2cpp8metadata23Il2CppGenericMethodHashEN14dense_hash_setIS4_S7_NS4_14EqualsComparerINS6_26Il2CppGenericMethodCompareEEENSt3__29allocatorIS4_EEE8IdentityESB_SE_E3endEv
Ikb:__Z18Transfer_BlittableI14SafeBinaryReadLb1EiEvRK29SerializationCommandArgumentsR31RuntimeSerializationCommandInfo
mui:__ZL25UnresolvedVirtualCall_211P12Il2CppObject38CustomAttributeNamedArgument_t94157543PK10MethodInfo
f9a:__ZN17PersistentManager13GetAllFileIDsERKN4core12basic_stringIcNS0_20StringStorageDefaultIcEEEER13dynamic_arrayIxLj8EE
P_e:_ReadOnlyCollection_1_GetEnumerator_m713393110_gshared
bwf:_ProxyAttribute_GetPropertiesForNewContext_m3587421540
Qrd:_Array_LastIndexOf_m4096535198
xxd:_ArrayList_Add_m1719188324
VOd:_Double_System_IConvertible_ToSByte_m1653690240_AdjustorThunk
LTg:__Z59RuntimeInvoker_RuntimeObject_Byte_t3683104436_RuntimeObjectPFvvEPK10MethodInfoPvPS4_
JVh:_Bounds_get_size_m3951110137
yk:_glGetStringi
Fgi:_GUIStyleState_t3801000545_marshal_pinvoke
A3i:__ZNK15dense_hashtableI10KeyWrapperIP18Il2CppGenericClassES3_N6il2cpp8metadata22Il2CppGenericClassHashEN14dense_hash_setIS3_S6_NS3_14EqualsComparerINS5_25Il2CppGenericClassCompareEEENSt3__29allocatorIS3_EEE8IdentityESA_SD_E10test_emptyERK30dense_hashtable_const_iteratorIS3_S3_S6_SF_SA_SD_E
xSd:_CultureInfo_set_NumberFormat_m1618950525
l0a:__ZN18StreamedBinaryReadILb0EE21TransferSTLStyleArrayI13dynamic_arrayI8Vector4fLj4EEEEvRT_17TransferMetaFlags
Rnf:_X509Store__ctor_m1573680316
eof:_X509Chain_get_CertificateCollection_m324631835
ysh:_EqualityComparer_1__cctor_m1011898363_gshared
ucd:_AnimationTriggers__ctor_m2623627182
dYd:_Array_InternalArray__IndexOf_TisClientCertificateType_t4001384466_m1168139450_gshared
aA:__ZN8Animator9WriteStepEy
sUf:_FieldBuilder_get_Name_m2243491233
KS:__ZN11UnityEngine15CloudWebService20WebRequestRestClient18GetResponseHeadersEv
U4b:__ZN16PropertyAccessorC2Ev
aZa:__ZNSt3__23mapIN4core12basic_stringIcNS1_20StringStorageDefaultIcEEEE9PrefValueNS_4lessIS5_EENS_9allocatorINS_4pairIKS5_S6_EEEEEixERSB_
Dvb:__Z35Transfer_Blittable_FixedBufferFieldI18StreamedBinaryReadILb1EEaEvRK29SerializationCommandArgumentsR31RuntimeSerializationCommandInfo
w4b:__ZN15DirectorManager22ConstructPlayableGraphEv
sZa:__ZN13ScreenManager16SetScreenTimeoutEi
Lpb:__Z18Transfer_BlittableI17RemapPPtrTransferLb0EdEvRK29SerializationCommandArgumentsR31RuntimeSerializationCommandInfo
Y_c:_SymmetricAlgorithm_set_IV_m4262655606
Hdh:_StencilMaterial__cctor_m2963056855
Lmi:_EqualityComparer_1_System_Collections_IEqualityComparer_Equals_m315020809_gshared
xRf:_CustomAttributeNamedArgument_GetHashCode_m3715408876_AdjustorThunk
RHc:__Z38Register_UnityEngine_Font_HasCharacterv
jnf:_X509Certificate2_AppendBuffer_m3517242299
aTb:__Z35IntersectSpherePlaneBoundsOptimizedRKN4math7_float4EPS1_i
tSd:_CultureInfo_get_IsNeutralCulture_m3874876470
ONd:_Delegate_CreateDelegate_m3813023227
Asi:__ZL25UnresolvedVirtualCall_117P12Il2CppObjecthS0_PK10MethodInfo
XTh:_Uri_get_AbsoluteUri_m2120317928
m6i:__ZN6il2cpp2os5posix15PosixWaitObject13InterruptWaitEv
ufd:_ColorTween_TweenValue_m3279916815
H7c:_BaseInputModule_IsModuleSupported_m4272494372
x4:__Z22CleanupLODGroupManagerPv
o_d:_Array_InternalArray__ICollection_Add_TisContentType_t1028629049_m2984242302_gshared
Kjc:__Z21Event_CUSTOM_PopEventP12Il2CppObject
il:_glUniform3fv
Dij:__ZNK6il2cpp8metadata24Il2CppGenericInstCompareclERK10KeyWrapperIPK17Il2CppGenericInstES8_
S5a:__ZNSt3__218__insertion_sort_3IRN15ResourceManager10Dependency6SorterEPS2_EEvT0_S6_T_
JCe:_Enumerator_System_Collections_IEnumerator_Reset_m3796537546_AdjustorThunk
DGc:_UNITY_FT_Init_Class_tt_service_gx_multi_masters
RRg:__Z53RuntimeInvoker_Int32_t2071877448_TimeSpan_t3430258949PFvvEPK10MethodInfoPvPS4_
aCh:_InternalEnumerator_1_System_Collections_IEnumerator_Reset_m3249248421_AdjustorThunk
gIg:__Z64RuntimeInvoker_RuntimeObject_Int32_t2071877448_Int16_t4041245914PFvvEPK10MethodInfoPvPS4_
kxe:_IntComparer_Compare_m3057931085
LNb:__ZNK16LightmapSettings31GetRealtimeLightmapDecodeValuesEv
vK:__ZN5audio5mixer12SetSuspendedERNS0_16AudioMixerMemoryEb
aab:__ZN17PersistentManager21UnloadNonDirtyStreamsEv
vLg:__Z63RuntimeInvoker_DSAParameters_t1872138834_BooleanU26_t3168250738PFvvEPK10MethodInfoPvPS4_
N$g:__Z62RuntimeInvoker_Boolean_t3825574718_PlayableBinding_t2498078091PFvvEPK10MethodInfoPvPS4_
g0i:__ZN6il2cpp2vm13LivenessStateC2EP11Il2CppClassjPFvPP12Il2CppObjectiPvES7_PFvvESB_
N6d:_Array_ConvertAll_TisRuntimeObject_TisRuntimeObject_m2423585546_gshared
FIb:__ZN12ImageFilters4BlitER17ShaderPassContextP7TextureP13RenderTextureiPK18SharedMaterialDataPKcP6ShaderiNS_9BlitFlagsE11CubemapFaceRK8Vector2fSH_
zlf:_Oid__ctor_m1936781897
yS:__ZN11UnityEngine15CloudWebService10RestClientINS0_23WebRequestRestHeaderMapEED2Ev
WIh:_ResourceSet__ctor_m1222864106
NPe:_Collection_1_System_Collections_IList_get_Item_m3376056117_gshared
El:_emscripten_glDepthMask
O8c:__ZN23InterfaceActionInvoker1IP28PointerEventData_t1599784723E6InvokeEjP11Il2CppClassP12Il2CppObjectS1_
z0f:__ZL76UInt16_t986882611_CustomAttributesCacheGenerator_UInt16_TryParse_m1818885113P21CustomAttributesCache
ICe:_Enumerator_VerifyState_m3639069574_gshared
Fia:__ZN4crnd25static_huffman_data_model22prepare_decoder_tablesEv
lPe:_Enumerator_MoveNext_m689054299_gshared
Q4e:_ModulusRing_Difference_m662924064
DBh:_InternalEnumerator_1_MoveNext_m1869236997_gshared
Ydd:_CanvasUpdateRegistry_ObjectValidForUpdate_m855695984
Nmd:_InputField_set_onValueChanged_m2406388125
Jic:__Z23GUIStatePopDisplayIndexv
wYe:_ReadOnlyCollection_1_System_Collections_ICollection_get_SyncRoot_m2702046016_gshared
pX:__ZL22CleanupUnityWebStreamsPv
Nxb:__Z18Transfer_BlittableI18StreamedBinaryReadILb0EELb0E10ColorRGBAfEvRK29SerializationCommandArgumentsR31RuntimeSerializationCommandInfo
mif:_ListDictionary_Add_m4276262662
b5:__Znaj
EYc:_RIPEMD160Managed_GGG_m1639995340
Xyj:_emscripten_glEnableClientState__wrapper
gZ:__ZN17MessageIdentifierC2EPKcNS_7OptionsEPKN5Unity4TypeES1_
djh:_Enumerator_System_Collections_IEnumerator_get_Current_m1648049763_gshared
Xhj:__ZN6il2cpp6icalls8mscorlib4Mono8Security12Cryptography18KeyPairPersistence15_ProtectMachineEP12Il2CppString
eMg:__Z31RuntimeInvoker_Char_t3454481338PFvvEPK10MethodInfoPvPS4_
oFa:__ZN11GameManager15ThreadedCleanupEv
CKe:_List_1__ctor_m1337392449_gshared
QP:__Z55Register_UnityEngine_AudioSource_get_spatializeInternalv
Z_a:__ZN15dense_hashtableINSt3__24pairIKN4core12basic_stringIcNS2_20StringStorageDefaultIcEEEE13dynamic_arrayI4PPtrI6SpriteELj4EEEES6_20StringHash32FunctionIS6_EN14dense_hash_mapIS6_SC_SF_NS0_8equal_toIS6_EE13stl_allocatorISD_L18MemLabelIdentifier81ELi16EEE9SelectKeyESI_SL_E12resize_deltaEjj
due:_TextWriter__ctor_m2225796097
VLh:__ZN21InterfaceFuncInvoker0IP24StringU5BU5D_t1642385972E6InvokeEjP11Il2CppClassP12Il2CppObject
Kxa:__ZN14SafeBinaryRead8TransferI14ConstantStringEEvRT_PKc17TransferMetaFlags
Zea:__ZNK6Camera16GetStereoEnabledEv
H1b:__ZN12LightManager15InitializeClassEv
QGa:__ZN9ShaderLab11shaderprops16GetComputeBufferEPK19ShaderPropertySheetS3_NS_16FastPropertyNameE
Qsg:__ZL86Logger_t3328995178_CustomAttributesCacheGenerator_Logger_set_filterLogType_m3982626604P21CustomAttributesCache
m_:__ZN18ScriptingArgumentsC2Ev
_Jf:_TimeZone_IsDaylightSavingTime_m875882154
Uuh:_ArrayReadOnlyList_1_Insert_m503707439_gshared
tuj:_emscripten_glBlendFuncSeparate__wrapper
F9e:_CipherSuiteCollection_System_Collections_IList_set_Item_m750275607
Gfa:__Z17HasSampledTexture14GraphicsFormat13formatSupport
DJb:__ZNK25CameraStackRenderingState27GetStereoImageEffectTextureEb
GZc:_SHA1CryptoServiceProvider__ctor_m3127563759
np:__ZN8Vector3f8TransferI14SafeBinaryReadEEvRT_
aJi:__ZN6il2cpp6icalls6System6System3Net7Sockets6Socket7ReceiveEiP11Il2CppArrayiiNS4_11SocketFlagsEPi
LFg:__ZL103BaseVertexEffect_t2504093552_CustomAttributesCacheGenerator_BaseVertexEffect_ModifyVertices_m3446986347P21CustomAttributesCache
so:FUNCTION_TABLE_ii
akh:_Enumerator_MoveNext_m335649778_AdjustorThunk
iFa:__ZN10TagManager8TransferI18StreamedBinaryReadILb0EEEEvRT_
rGg:__Z45RuntimeInvoker_Char_t3454481338_RuntimeObjectPFvvEPK10MethodInfoPvPS4_
gnc:__Z18Transfer_BlittableI9JSONWriteLb0E8BitFieldEvRK29SerializationCommandArgumentsR31RuntimeSerializationCommandInfo
pNf:_UInt32_ToString_m3894907091_AdjustorThunk
JWd:_Array_InternalArray__IEnumerable_GetEnumerator_TisPlayableBinding_t2498078091_m2095426925_gshared
V$h:_Matrix4x4__ctor_m828876617_AdjustorThunk
Kwi:_Predicate_1__ctor_m2863314033_gshared
nSd:_CultureInfo_get_TextInfo_m1582311326
rZd:_Array_ForEach_TisRuntimeObject_m1849351808_gshared
Fhh:_ShimEnumerator_get_Key_m616785465_gshared
wpg:__ZL76Object_t1021602117_CustomAttributesCacheGenerator_Object_Destroy_m3959286051P21CustomAttributesCache
xce:_SmallXmlParser_Error_m1832158746
drf:_RepeatContext_get_IsLazy_m1620488045
xk:_glDeleteVertexArrays
ICa:__Z24CreateDirectoryRecursiveRKN4core12basic_stringIcNS_20StringStorageDefaultIcEEEE
Osj:b41
Ndb:__ZN9ShaderLab20SerializedSubProgram8TransferI18StreamedBinaryReadILb0EEEEvRT_
Fte:_StreamAsyncResult_get_AsyncWaitHandle_m4218169359
Nsj:b40
IRb:__Z9EndJobSetR8JobFence11JobPriority
Sdf:_TlsServerSettings_set_SignedParams_m1826385315
wIc:__ZN2UI13CanvasManager9AddCanvasEPNS_6CanvasE
i0a:__ZN9Texture3D8TransferI19StreamedBinaryWriteILb0EEEEvRT_
fKb:__ZNK6Camera22CalculateRenderingPathEv
Aoc:__ZN9JSONWrite8TransferI5RectTIfEEEvRT_PKc17TransferMetaFlags
KB:__ZN11UnityEngine9Animation37SetGenericRootTransformPropertyValuesERKNS0_30AnimatorGenericBindingConstantERKN7mecanim10ValueArrayER9Transformbb
Voa:__Z13ConvertMipmap14GraphicsFormatPKvS_Pviiii
j8e:_ContentInfo_get_Content_m1802070908
cii:_InvokableCall_4_Find_m2012236736_gshared
Qpb:__ZL12InvokeMethodI17RemapPPtrTransferEvRK29SerializationCommandArgumentsR31RuntimeSerializationCommandInfo
Vfe:_X509Certificate_get_PublicKey_m714501701
QSg:__Z70RuntimeInvoker_Boolean_t3825574718_UInt16_t986882611_Int32_t2071877448PFvvEPK10MethodInfoPvPS4_
Uod:_U3CMouseDragOutsideRectU3Ec__Iterator1_System_Collections_IEnumerator_get_Current_m561728752
kVh:_AsyncOperation_InternalDestroy_m2067452588
izc:_tt_sbit_decoder_load_image
V4c:_String_LastIndexOf_m290475879
hqg:__ZL92Transform_t3275118058_CustomAttributesCacheGenerator_Transform_SetAsFirstSibling_m1896679420P21CustomAttributesCache
wXd:__ZN21InterfaceFuncInvoker1Ii22UILineInfo_t3621277874E6InvokeEjP11Il2CppClassP12Il2CppObjectS0_
Hpg:__ZL113PlayableHandle_t213697122_CustomAttributesCacheGenerator_PlayableHandle_INTERNAL_CALL_IsValidInternal_m3649184361P21CustomAttributesCache
Old:_Image_get_layoutPriority_m2151045813
dYi:__ZN15dense_hashtableINSt3__24pairIK10KeyWrapperIP11Il2CppClassES4_EES5_N6il2cpp8metadata16SZArrayClassHashEN14dense_hash_mapIS5_S4_SA_NS5_14EqualsComparerINS9_19SZArrayClassCompareEEENS0_9allocatorIS7_EEE9SelectKeyESE_SG_EC2EjRKSA_RKSE_RKSI_
F2d:_Array_Sort_TisInt32_t2071877448_m1860415737_gshared
Vue:_TextReader_Read_m975794707
Dic:__ZNSt3__24listIN10GUIManager12SortedScriptE11memory_poolIS2_EE6__sortI13OldSortScriptEENS_15__list_iteratorIS2_PvEESA_SA_jRT_
zNf:_UInt64_System_IConvertible_ToChar_m1930853313_AdjustorThunk
Jcf:_TlsClientCertificate_SendCertificates_m1096074091
scd:_UIBehaviour_OnCanvasHierarchyChanged_m762109874
wCd:_SyncHashtable_get_Item_m408601391
mcg:__ZL45DSA_t903174880_CustomAttributesCacheGeneratorP21CustomAttributesCache
rPe:_Stack_1_System_Collections_ICollection_CopyTo_m2104527616_gshared
UEf:_StringBuilder_AppendFormat_m1666670800
TWg:__Z97RuntimeInvoker_Boolean_t3825574718_RuntimeObject_TextGenerationSettings_t2543476768_RuntimeObjectPFvvEPK10MethodInfoPvPS4_
gQc:__ZN18UnityConnectClient12CloseServiceEv
tpb:__Z18Transfer_BlittableI17RemapPPtrTransferLb1E8BitFieldEvRK29SerializationCommandArgumentsR31RuntimeSerializationCommandInfo
t_i:__ZN6il2cpp6icalls8mscorlib6System9ThreadingL11ThreadStartEPv
W6:__ZN15DirectorManager12OnSampleTimeEv
n0e:_ReadOnlyCollection_1_System_Collections_IList_Remove_m3878418841_gshared
Smd:_InputField_EnforceContentType_m1902926812
BXa:__ZN15dense_hashtableINSt3__24pairIKiiEEi21InstanceIDHashFunctorN14dense_hash_mapIiiS4_NS0_8equal_toIiEE13stl_allocatorIS3_L18MemLabelIdentifier67ELi16EEE9SelectKeyES7_SA_E12resize_deltaEjj
zva:__ZN12CachedReader10Align4ReadEv
UTh:_Uri_op_Equality_m110355127
NXe:_Collection_1_CopyTo_m42272870_gshared
rVh:_DefaultExecutionOrder_get_order_m3383619944
p$:__ZN15dense_hashtableINSt3__24pairIKiP6ObjectEEi21InstanceIDHashFunctorN14dense_hash_mapIiS4_S6_NS0_8equal_toIiEE13stl_allocatorIS5_L18MemLabelIdentifier67ELi16EEE9SelectKeyES9_SC_E12maybe_shrinkEv
dQi:_RaycastHit2D_get_point_m2962370910_AdjustorThunk
kwa:__ZNK9Behaviour22GetTypeVirtualInternalEv
xdd:_CanvasScaler_set_referencePixelsPerUnit_m1188599784
m2g:__Z74RuntimeInvoker_Void_t1841601450_Int32_t2071877448_RaycastHit2D_t4063908774PFvvEPK10MethodInfoPvPS4_
a3e:_Comparison_1_EndInvoke_m179917407_gshared
t$b:__ZNK28MonoBehaviourPropertyBinding12SetPPtrValueERKN11UnityEngine9Animation10BoundCurveEi
NTb:__Z21GetScriptingArraySize17ScriptingArrayPtr
wtc:__ZN20TextRenderingPrivate8FontImpl8TransferI14SafeBinaryReadEEvRT_
qRh:__ZN23InterfaceActionInvoker1IP19LinkRef_t2090853131E6InvokeEjP11Il2CppClassP12Il2CppObjectS1_
tjc:__ZN11IMGUIModule21ClearDeveloperConsoleEv
ZGg:__Z110RuntimeInvoker_Boolean_t3825574718_RuntimeObject_SByte_t454417549_Int64U26_t763825331_ExceptionU26_t1467204777PFvvEPK10MethodInfoPvPS4_
Hca:__ZN9GfxDevice17ImmediateTexCoordEifff
gQh:_Parser_ParseRegularExpression_m2390577313
PAc:_ft_black_new
nsd:_Array_double_swapper_m1175307080
nRh:_Alternation_AddAlternative_m623421443
Gof:_X509CertificateEnumerator_System_Collections_IEnumerator_Reset_m327358896
ATg:__Z65RuntimeInvoker_Void_t1841601450_Byte_t3683104436_Byte_t3683104436PFvvEPK10MethodInfoPvPS4_
e1c:_Hash__ctor_m2554411450
Vle:_NumberFormatter_AppendDigits_m1308372770
j9:__ZN30dense_hashtable_const_iteratorINSt3__24pairIKN4core12basic_stringIcNS2_20StringStorageDefaultIcEEEE10vector_setI4PPtrI11SpriteAtlasENS0_4lessISB_EE13stl_allocatorISB_L18MemLabelIdentifier81ELi16EEEEES6_20StringHash32FunctionIS6_EN14dense_hash_mapIS6_SH_SK_NS0_8equal_toIS6_EESE_ISI_LSF_81ELi16EEE9SelectKeyESN_SO_EC2EPK15dense_hashtableISI_S6_SK_SQ_SN_SO_EPKSI_SX_b
J2c:_Single_System_IConvertible_ToDateTime_m2510003459_AdjustorThunk
XNd:_Delegate_RemoveImpl_m3666700529
osj:_emscripten_glUniform4f__wrapper
Fif:_NameObjectCollectionBase_OnDeserialization_m3478980442
NXh:_CustomYieldInstruction_MoveNext_m3850519634
Emd:_InputField_set_caretColor_m2252440840
dD:__ZN8Animator8TransferI19StreamedBinaryWriteILb0EEEEvRT_
PFa:__ZNK6Camera16GetProjectionFarEv
Eq:__Z24InverseTransformRotationRK23TransformAccessReadOnlyRKN4math7_float4E
nwe:_MissingFieldException__ctor_m1161042282
qYd:_Array_InternalArray__IndexOf_TisSlot_t2267560602_m1912863273_gshared
H0h:_Mesh_get_uv3_m1531319041
$Sa:__ZNK14PlayableOutput11DerivesFromE17ScriptingClassPtr
nUa:__ZN7Texture34CreateFileTextureUploadInstructionE18TextureUploadFlagsj
vca:__ZN9GfxDevice21ResetDynamicResourcesEv
jqa:__ZN13ComputeShader14SetBufferParamEjRKN9ShaderLab16FastPropertyNameE15ComputeBufferID
VMa:__ZThn280_N31CanvasBatchIntermediateRenderer20OnAssetBoundsChangedEv
u3e:_Comparison_1_EndInvoke_m4174686984_gshared
Qzf:_StreamingContext__ctor_m3063421596_AdjustorThunk
a0e:_ReadOnlyCollection_1_System_Collections_Generic_IListU3CTU3E_Insert_m3054305464_gshared
Z_b:__ZN19LowerResBlitTexture13ApplySettingsEv
z1f:__ZL70IntPtr_t_CustomAttributesCacheGenerator_IntPtr_op_Explicit_m3896766622P21CustomAttributesCache
WC:__ZN8Animator8TransferI14SafeBinaryReadEEvRT_
PXi:__ZN15dense_hashtableINSt3__24pairIK10KeyWrapperIP11Il2CppClassES4_EES5_N6il2cpp8metadata16SZArrayClassHashEN14dense_hash_mapIS5_S4_SA_NS5_14EqualsComparerINS9_19SZArrayClassCompareEEENS0_9allocatorIS7_EEE9SelectKeyESE_SG_E4swapERSJ_
sDa:__ZN17GlobalGameManager23VirtualRedirectTransferER18StreamedBinaryReadILb0EE
JYd:_Array_InternalArray__IndexOf_TisTypeTag_t141209596_m2882894956_gshared
Tch:_Slider_get_value_m4182660424
O2:__Z23AsyncReadForceCloseFileRKN4core12basic_stringIcNS_20StringStorageDefaultIcEEEE
ht:__ZN17AnimationPlayable34CollectAnimatorControllerPlayablesER13dynamic_arrayIP26AnimatorControllerPlayableLj4EE
hO:__ZN16BaseVideoTexture19UpdateVideoTexturesEv
cMa:__Z28BuildSingleStreamChannelInfo17ShaderChannelMaskRK20VertexChannelsLayoutS_S2_P11ChannelInfo
WHa:__ZNK16LightmapSettings23HasLightProbeTetrahedraEv
Wbf:_Context_get_WriteSequenceNumber_m243492531
MZa:__ZN6Sprite23VirtualRedirectTransferER19StreamedBinaryWriteILb0EE
s7f:__ZL51Assembly_t4268412390_CustomAttributesCacheGeneratorP21CustomAttributesCache
N4c:_String_LastIndexOfAny_m1473637802
Xdh:_Text_get_resizeTextMaxSize_m2671487437
j1h:_PlayerEditorConnectionEvents_InvokeMessageIdSubscribers_m795891627
SGe:_List_1_System_Collections_ICollection_CopyTo_m3062449209_gshared
oRi:__ZNK15dense_hashtableINSt3__24pairIK10KeyWrapperINS1_IPK9FieldInfoP11Il2CppClassEEEjEES9_17ReflectionMapHashIS8_EN14dense_hash_mapIS9_jSD_NS9_14EqualsComparerINS0_8equal_toIS8_EEEENS0_9allocatorISB_EEE9SelectKeyESI_SK_E5beginEv
qQa:__ZNK9ShaderLab7Program19HasMatchingVariantsERK13dynamic_arrayI16ShaderKeywordSetLj4EE
QA:__ZN15SerializeTraitsIN4math4trsXEE8TransferI8BlobSizeEEvRS1_RT_
pga:__ZN14DataBufferGLES11CopySubDataEPKS_jjj
de:_emscripten_glVertexPointer
tua:__ZNSt3__26__treeI20DeviceDepthStateGLES11memcmp_lessIS1_S1_ENS_9allocatorIS1_EEE7destroyEPNS_11__tree_nodeIS1_PvEE
zid:_Graphic__ctor_m821539719
aGe:_List_1_System_Collections_Generic_ICollectionU3CTU3E_get_IsReadOnly_m1614481629_gshared
RLi:__ZN6il2cpp2vm7Runtime47RaiseExecutionEngineExceptionIfMethodIsNotFoundEPK10MethodInfo
HPb:__Z17GetFrustumPortionPK8Vector3fffPS_
xOf:_UnauthorizedAccessException__ctor_m259001183
T0i:__ZN15dense_hashtableINSt3__24pairIK10KeyWrapperIP14Il2CppIUnknownEjEES5_N6il2cpp5utils11PointerHashIS3_EEN14dense_hash_mapIS5_jSB_NS5_14EqualsComparerINS0_8equal_toIS4_EEEENS0_9allocatorIS7_EEE9SelectKeyESG_SI_E14squash_deletedEv
vgd:_DefaultControls_CreateDropdown_m1384069408
nad:_PointerEventData_get_clickCount_m4064532478
x_e:_ReadOnlyCollection_1_System_Collections_Generic_ICollectionU3CTU3E_get_IsReadOnly_m3508872969_gshared
FQd:_EventArgs__cctor_m1350395667
xhi:_InvokableCall_1_remove_Delegate_m1748003978_gshared
Daa:__ZNK9GfxDevice27GetPlatformAdjustedViewportEv
k5h:_X509Stores_Open_m2057354563
gRd:_CCGregorianCalendar_is_leap_year_m567513478
emf:_Oid_get_Value_m2271181078
Osd:_Attribute_IsDefined_m2118467641
ici:_SpriteAtlasManager_Register_m447878083
Fde:_PrivateKeyInfo_Normalize_m3959595934
h$g:__Z68RuntimeInvoker_Void_t1841601450_Int32_t2071877448_Color32_t874517518PFvvEPK10MethodInfoPvPS4_
Xvh:_InternalEnumerator_1_System_Collections_IEnumerator_get_Current_m3125080595_gshared
nVe:_Collection_1_System_Collections_IList_Add_m2091889616_gshared
Y4b:__ZN16StreamedResource8TransferI24GenerateTypeTreeTransferEEvRT_
Rhd:_DropdownItem_OnPointerEnter_m761897861
hra:__ZN10Matrix3x3f15InvertTransposeEv
nUd:_Array_InternalArray__ICollection_Remove_TisKeyValuePair_2_t1174980068_m2768765894_gshared
rHb:__Z11IsBatchmodev
XSe:_Collection_1_set_Item_m2199807215_gshared
qob:__Z29Transfer_Blittable_ArrayFieldI14SafeBinaryRead8Vector3fEvRT_R9ArrayInfoRK23StaticTransferFieldInfo
evg:__ZL75Event_t3028476042_CustomAttributesCacheGenerator_Event_PopEvent_m4241312794P21CustomAttributesCache
BMf:_UInt32_System_IConvertible_ToBoolean_m91295134
fHf:_Monitor_Monitor_test_synchronised_m1542589500
crg:__ZL68RuntimePlatform_t1869584967_CustomAttributesCacheGenerator_WP8PlayerP21CustomAttributesCache
luc:__ZN20TextRenderingPrivate8FontImpl18ResetCachedTextureEv
U0f:__ZL75String_t_CustomAttributesCacheGenerator_String_Concat_m626692867____values0P21CustomAttributesCache
see:_SymmetricTransform_TransformFinalBlock_m4192185386
gje:_TextInfo__ctor_m1263401274
WOf:_Version_get_Major_m3385239713
Vki:_ListPool_1_Release_m3047738410_gshared
vdj:_GC_print_finalization_stats
Kbf:_Context_get_SecurityProtocolFlags_m3295551796
Tkh:_ValueCollection__ctor_m927733289_gshared
Vwa:__ZN11NamedObject15ThreadedCleanupEv
jCh:_InternalEnumerator_1__ctor_m2981879621_AdjustorThunk
Pac:__Z53Register_UnityEngine_Behaviour_get_isActiveAndEnabledv
rkf:_IPAddress_ToString_m267966740
tmi:_EqualityComparer_1__ctor_m3971803374_gshared
bq:__ZNSt3__26vectorIN4core12basic_stringIcNS1_20StringStorageDefaultIcEEEENS_9allocatorIS5_EEE8__appendEj
u_g:__Z64RuntimeInvoker_Boolean_t3825574718_IntPtr_t_ObjectU26_t597476745PFvvEPK10MethodInfoPvPS4_
g5a:__ZN26PlayerSettingsSplashScreen8TransferI17RemapPPtrTransferEEvRT_
Izh:_InternalEnumerator_1_get_Current_m3922357178_gshared
AKi:__ZN6il2cpp6icalls8mscorlib6SystemL17CollectTypeFieldsINS_5utils10functional10TrueFilterEEEvP11Il2CppClassPKS7_iRNSt3__26vectorIP9FieldInfoNSB_9allocatorISE_EEEERKT_
yAg:__ZL72ColorBlock_t2652774230_CustomAttributesCacheGenerator_m_HighlightedColorP21CustomAttributesCache
qKf:_Type_get_IsValueType_m1733572463
CZb:__Z13GetTagManagerv
Wwh:_InternalEnumerator_1_Dispose_m1748410190_AdjustorThunk
RUd:_Array_InternalArray__ICollection_Remove_TisUInt16_t986882611_m65494986_gshared
Q_e:_ReadOnlyCollection_1_IndexOf_m3054637117_gshared
Uzi:__ZL10roundUp128PyS_
HQ:__ZN11UnityEngine15CloudWebService17CloudJobSchedulerD0Ev
I3c:_String_System_IConvertible_ToBoolean_m2696751322
v7a:__ZN18LoadSceneOperation7PerformEv
WIc:__ZNK2UI11CanvasGroup22GetTypeVirtualInternalEv
a0h:_Matrix4x4_MultiplyPoint3x4_m1436516889
Q4c:_String_LastIndexOfAny_m4281325295
DZg:__Z163RuntimeInvoker_Void_t1841601450_RuntimeObject_Int32_t2071877448_SByte_t454417549_SByte_t454417549_SingleU26_t4173844468_SingleU26_t4173844468_SingleU26_t4173844468PFvvEPK10MethodInfoPvPS4_
Xic:__Z21CleanupGlobalGUIStatev
VIf:_TimeSpan__ctor_m1888018443_AdjustorThunk
f4g:__Z74RuntimeInvoker_Int32_t2071877448_UIVertex_t1204258818_UIVertex_t1204258818PFvvEPK10MethodInfoPvPS4_
rCd:_SyncHashtable_get_Count_m3694444082
Gxb:__Z18Transfer_BlittableI18StreamedBinaryReadILb0EELb1EN4math12int3_storageEEvRK29SerializationCommandArgumentsR31RuntimeSerializationCommandInfo
qPi:__ZNSt3__26vectorINS_12basic_stringIcNS_11char_traitsIcEENS_9allocatorIcEEEENS4_IS6_EEE8allocateEj
nGg:__Z56RuntimeInvoker_RuntimeObject_RuntimeObject_RuntimeObjectPFvvEPK10MethodInfoPvPS4_
Rsa:__ZN22VertexDeclarationCache5ClearEv
mab:__ZN15CacheWriterBase18GetAddressOfMemoryEv
Nv:__Z27ProcessRootMotionEmptyMixerP35AnimationPlayableEvaluationConstantP32AnimationPlayableEvaluationInputP33AnimationPlayableEvaluationOutput
lRb:__ZN6Camera24PrepareCullingParametersERK23CameraCullingParameters13RenderingPathR11CullResults
i7b:__Z12SetIUISystemP9IUISystem
I7a:__ZN19RuntimeSceneManager22EndIntegrateMainThreadEP10UnitySceneNS_11LoadingModeE
rdg:__ZL84Evidence_t1407710183_CustomAttributesCacheGenerator_Evidence_GetHashCode_m1260371757P21CustomAttributesCache
H_e:_ReadOnlyCollection_1_System_Collections_ICollection_get_IsSynchronized_m2344337514_gshared
Spb:__Z26Transfer_UnityEngineObjectI17RemapPPtrTransferLb0EEvRK29SerializationCommandArgumentsR31RuntimeSerializationCommandInfo
zZg:__Z34RuntimeInvoker_FitMode_t4030874534PFvvEPK10MethodInfoPvPS4_
X4c:_String_IsNullOrEmpty_m2802126737
zvd:_Byte_Parse_m1442736478
koe:_Int64_Parse_m3258022240
H4c:_String_IndexOfOrdinal_m3591623977
JBf:_CryptoConfig_EncodeLongNumber_m2352037787
UKf:_Type_GetMethod_m475234662
p3c:_Single_GetHashCode_m3102305584
iAe:_KeyValuePair_2__ctor_m1877755778_AdjustorThunk
JKh:_ActivationServices_get_ConstructionActivator_m1726426854
lsb:__Z29Transfer_Blittable_ArrayFieldI24GenerateTypeTreeTransfer4AABBEvRT_R9ArrayInfoRK23StaticTransferFieldInfo
gvi:_Hacker_RunMainMenu_m908116088
Sfg:__ZL76Convert_t2607082565_CustomAttributesCacheGenerator_Convert_ToChar_m245844937P21CustomAttributesCache
mfg:__ZL52Activator_t1850728717_CustomAttributesCacheGeneratorP21CustomAttributesCache
xej:_GC_adj_bytes_allocd
wdh:_SpriteState_t1353336012_marshal_pinvoke_cleanup
j_d:_Array_InternalArray__ICollection_Add_TisKeyframe_t1449471340_m887263954_gshared
P$d:_Array_InternalArray__Insert_TisDateTime_t693205669_m1484996356_gshared
YGe:_List_1_System_Collections_IList_Remove_m3933652540_gshared
Amh:_Dictionary_2_System_Collections_IDictionary_GetEnumerator_m1484720898_gshared
Rse:_MonoIO_get_ConsoleInput_m2976499023
LWf:_OpCode_get_Size_m481593949_AdjustorThunk
Qzd:_BitArrayEnumerator_checkVersion_m3839504595
crd:_Array_GetUpperBound_m1352329707
D0i:__ZN6il2cpp6icalls8mscorlib6System10Reflection10MonoMethod19get_base_definitionEP22Il2CppReflectionMethod
Ca:invoke_fiiifii
s4c:_String_TrimEnd_m3153143011
uLd:_DateTimeOffset_Equals_m3728302791_AdjustorThunk
Ggi:_GUIStyleState_t3801000545_marshal_pinvoke_back
pOa:__ZN20SphericalHarmonicsL219AddDirectionalLightERKN4math7_float3ERKNS0_7_float4E
RJf:_TimeSpan_op_GreaterThanOrEqual_m3997050520
Jgg:__ZL77Convert_t2607082565_CustomAttributesCacheGenerator_Convert_ToUInt16_m36213644P21CustomAttributesCache
N6:__Z26ScheduleJobForEachInternalR8JobFencePFvPvjES1_iPFvS1_E11JobPriority
pmf:_OidEnumerator_MoveNext_m1889267785
I6d:_Mesh_GetAllocArrayFromChannel_TisVector3_t2243707580_m799130432_gshared
cHb:__ZZ23InitPlayerLoopCallbacksvEN41PostLateUpdateProfilerEndFrameRegistrator7ForwardEv
B7b:__ZN9Scripting18RaiseMonoExceptionEPKcz
uVa:__ZN9Texture2D8TransferI19StreamedBinaryWriteILb0EEEEvRT_
Uhd:_OptionData__ctor_m3070653720
Kki:_TweenRunner_1_StartTween_m3792842064_gshared
f2b:__ZN9ShaderLab16FastPropertyName15InitBy28BitHashEj
R2c:_Single_System_IConvertible_ToInt32_m3269519527_AdjustorThunk
Exi:_TextGenerationSettings_Equals_m1603221718
MZc:_SHA1Internal_ProcessBlock_m4070037334
DEa:__ZN17PersistentManager17IsObjectAvailableEi
eKh:_Marshal_copy_from_unmanaged_m98320635
V0d:_Array_InternalArray__set_Item_TisDouble_t4078015681_m24756265_gshared
qYh:_Display_RelativeMouseAtImpl_m700362000
Rci:_Vector2_get_right_m4262310679
C$b:__ZN13ProduceHelperIN2UI13RectTransformELb0EE7ProduceE18MemLabelIdentifier18ObjectCreationMode
O0a:__ZN17PackedFloatVector12UnpackFloatsEPfiiii
Dui:__ZL25UnresolvedVirtualCall_228P12Il2CppObjectiPK10MethodInfo
$dg:__ZL113EncoderReplacementFallback_t4228544112_CustomAttributesCacheGenerator_EncoderReplacementFallback__ctor_m517300448P21CustomAttributesCache
HYe:_ReadOnlyCollection_1__ctor_m3671019970_gshared
Ry:__ZN17AnimationPlayable28UpdateInternalStateRecursiveILi3ELb0EEEvPK35AnimationPlayableEvaluationConstant
Dda:__ZN13GfxDeviceGLES21DestroyComputeProgramER12ObjectHandleI18ComputeProgram_TagPvE
nGd:_Convert_ToDecimal_m2007036836
IZi:__ZN6il2cpp6icalls8mscorlib6System5Array12SetValueImplEP11Il2CppArrayP12Il2CppObjecti
B4:__ZN17UniqueIDGenerator16DestroyPureIndexEj
f1:__ZL21AppendNestedClassName17ScriptingClassPtrRN4core17string_with_labelILi1EEE
xbb:__ZN14SafeBinaryRead21TransferSTLStyleArrayINSt3__26vectorIN9ShaderLab20SerializedSubProgram12UAVParameterENS1_9allocatorIS5_EEEEEEvRT_17TransferMetaFlags
MMh:_Context_NotifyDynamicSinks_m1367144344
wfh:_Enumerator__ctor_m1897170543_AdjustorThunk
eV:__ZNK13BaseAllocator10IsAssignedEv
QR:__ZN24TextDOMTransferWriteBaseI9JSONWriteE12PushMetaFlagEi
Z3h:_X509Certificate_GetSubjectName_m1189079906
upc:__Z18Transfer_BlittableI8JSONReadLb1E10ColorRGBAfEvRK29SerializationCommandArgumentsR31RuntimeSerializationCommandInfo
rog:__ZL79Mesh_t1356156583_CustomAttributesCacheGenerator_Mesh_Internal_Create_m384282753P21CustomAttributesCache
xaf:_TlsClientCertificateVerify__ctor_m110646389
cma:__ZN6prcoreL26RemapGenericIntegerToFloatI17TexFormatARGB888815TexFormatRFloatEEvPKNS_9InnerInfoE
qOi:_UpdatedEventHandler__ctor_m2169897603
tV:__ZN5Mutex6UnlockEv
Pti:__ZL25UnresolvedVirtualCall_186P12Il2CppObject6Guid_tS1_PK10MethodInfo
VMh:_Context_GetServerContextSinkChain_m390126977
dPi:__ZN6il2cpp2vm17TypeNameParseInfoD2Ev
EI:__ZN4FMOD7Channel7setModeEj
yue:_StringReader_Read_m513112775
hXa:__ZNK8Renderer8GetLayerEv
HPe:_Collection_1_System_Collections_IList_Insert_m266942173_gshared
xKa:__ZN12FlareManager11DeleteFlareEi
kRe:_Collection_1_Add_m2613548553_gshared
Rx:__ZN7mecanim9animation22DestroyBlendTreeOutputEPNS0_15BlendTreeOutputERNS_6memory9AllocatorE
PLb:__ZNK6Camera20GetReplacementShaderEv
Wtj:_glProgramBinary__wrapper
mMd:_Decimal__ctor_m569480123_AdjustorThunk
Mjf:_HttpWebRequest__cctor_m3013631978
zhj:__ZNSt3__26__treeINS_12__value_typeINS_12basic_stringIcNS_11char_traitsIcEENS_9allocatorIcEEEEPFvvEEENS_19__map_value_compareIS7_SA_NS_4lessIS7_EELb1EEENS5_ISA_EEE4findIS7_EENS_15__tree_iteratorISA_PNS_11__tree_nodeISA_PvEEiEERKT_
Lbb:__ZNSt3__26vectorIN9ShaderLab20SerializedSubProgram14ConstantBufferENS_9allocatorIS3_EEE7reserveEj
rja:__ZL23stbir__calculate_memoryP11stbir__info
mOg:__Z83RuntimeInvoker_Void_t1841601450_Int64_t909078037_Int32_t2071877448_Int64_t909078037PFvvEPK10MethodInfoPvPS4_
ISi:__ZNK15dense_hashtableINSt3__24pairIK10KeyWrapperINS1_IPK10MethodInfoP11Il2CppClassEEEjEES9_17ReflectionMapHashIS8_EN14dense_hash_mapIS9_jSD_NS9_14EqualsComparerINS0_8equal_toIS8_EEEENS0_9allocatorISB_EEE9SelectKeyESI_SK_E12test_deletedERK24dense_hashtable_iteratorISB_S9_SD_SM_SI_SK_E
_5f:__ZL90BinaryReader_t2491843768_CustomAttributesCacheGenerator_BinaryReader_ReadSByte_m1712621355P21CustomAttributesCache
Wpg:__ZL101Transform_t3275118058_CustomAttributesCacheGenerator_Transform_INTERNAL_set_localPosition_m2606735056P21CustomAttributesCache
J9g:_Scrollbar_FindSelectableOnRight_m3219495255
a$h:_Logger_IsLogTypeAllowed_m243840823
Srh:_EqualityComparer_1_System_Collections_IEqualityComparer_GetHashCode_m487741360_gshared
NIc:__ZNSt3__227__insertion_sort_incompleteIRPFbPN2UI6CanvasES3_EPS3_EEbT0_S8_T_
t7h:_Rect_set_width_m2294291744_AdjustorThunk
SIb:__ZNK6Camera18GetRenderRectangleEv
MGi:__ZN6il2cpp5utils13dynamic_arrayIPK10Il2CppTypeLj4EE7reserveEj
ASi:__ZNK15dense_hashtableINSt3__24pairIK10KeyWrapperINS1_IPK10MethodInfoP11Il2CppClassEEEjEES9_17ReflectionMapHashIS8_EN14dense_hash_mapIS9_jSD_NS9_14EqualsComparerINS0_8equal_toIS8_EEEENS0_9allocatorISB_EEE9SelectKeyESI_SK_E3endEv
X_a:__ZN13sorted_vectorIN4core12basic_stringIcNS0_20StringStorageDefaultIcEEEENSt3__24lessIS4_EE13stl_allocatorIS4_L18MemLabelIdentifier81ELi16EEE4findIS4_EENS5_11__wrap_iterIPS4_EERKT_
y$d:_Array_InternalArray__ICollection_CopyTo_TisVector3_t2243707580_m509487340_gshared
$8e:_CipherSuite_get_KeyBlockSize_m2993514247
$pc:__ZL26Transfer_SimpleNativeClassI8JSONRead10RectOffsetLb1EEvRK29SerializationCommandArgumentsR31RuntimeSerializationCommandInfo
hMc:__Z44CanvasRenderer_CUSTOM_INTERNAL_CALL_SetColorP12Il2CppObjectRK10ColorRGBAf
Ycj:_GC_should_collect
TKh:_UrlAttribute_Equals_m1587451932
B7i:__ZNSt3__26__treeINS_12basic_stringIcNS_11char_traitsIcEENS_9allocatorIcEEEENS_4lessIS6_EENS4_IS6_EEE12__find_equalIS6_EERPNS_16__tree_node_baseIPvEESG_RKT_
Qmc:__Z18Transfer_BlittableI9JSONWriteLb1EsEvRK29SerializationCommandArgumentsR31RuntimeSerializationCommandInfo
Ame:_Int16_ToString_m4099416068_AdjustorThunk
JVc:_DSAParameters_t1872138834_marshal_pinvoke_cleanup
Xva:__ZN6ObjectD2Ev
j8b:__ZN9Transform16SetLocalRotationERK11Quaternionf
MHb:__ZN13RenderManager37RenderCamerasWithScriptableRenderLoopEi
Vae:_ASN1_Element_m2600236165
CY:__ZN23InstancedPropInfoStaticL16RegisterCallbackEPv
n4i:__ZN15dense_hashtableINSt3__24pairIK10KeyWrapperIP12Il2CppObjectEN6il2cpp2gc9CachedCCWEEES5_NS7_5utils11PointerHashIS3_EEN14dense_hash_mapIS5_S9_SD_NS5_14EqualsComparerINS0_8equal_toIS4_EEEENS0_9allocatorISA_EEE9SelectKeyESI_SK_E16reset_thresholdsEv
ZA:__ZN7mecanim8skeleton25SkeletonPoseComputeLocalQEPKNS0_8SkeletonEPKNS0_13SkeletonPoseTIN4math4trsXEEEPS7_ii
_4i:__ZN6il2cpp2os19ReleaseSocketHandleEj
aMg:__Z92RuntimeInvoker_Void_t1841601450_DateTime_t693205669_DateTime_t693205669_TimeSpan_t3430258949PFvvEPK10MethodInfoPvPS4_
j4f:__ZL128SafeHandleZeroOrMinusOneIsInvalid_t1177681199_CustomAttributesCacheGenerator_SafeHandleZeroOrMinusOneIsInvalid__ctor_m3340306667P21CustomAttributesCache
xN:__ZN11AudioModule16GetDSPSampleRateEv
y9i:__ZN15dense_hashtableINSt3__24pairIK10KeyWrapperIPK19Il2CppGenericMethodEP10MethodInfoEES6_N6il2cpp8metadata23Il2CppGenericMethodHashEN14dense_hash_mapIS6_S9_SD_NS6_14EqualsComparerINSC_26Il2CppGenericMethodCompareEEENS0_9allocatorISA_EEE9SelectKeyESH_SJ_E5clearEv
V4b:__ZN16PropertyAccessor5ClearEv
BSf:_TypeBuilder_get_next_table_index_m1415870184
Xoj:___cxa_can_catch
B5e:_SequentialSearchPrimeGeneratorBase_GenerateNewPrime_m296245934
Ewd:_Char_GetUnicodeCategory_m4273361321
gMb:__ZN6Camera28DefaultPerformRenderFunctionD0Ev
bwe:_Math_Round_m565516458
DMh:_Identity_get_ClientDynamicProperties_m767245959
Vvh:_InternalEnumerator_1__ctor_m675130983_AdjustorThunk
Ylh:_Dictionary_2_Clear_m899854001_gshared
f6i:__ZN6il2cpp2os5posix15PosixWaitObjectC2ENS2_4TypeE
$Jb:__ZN6Camera21PostMultiCustomRenderENS_10RenderFlagEb
qXf:_TypeBuilder_create_generic_class_m986834171
Rpa:__ZN12_GLOBAL__N_112UploadImagesEP7ApiGLESjji14GraphicsFormatPKhjS2_iiii16TextureUsageModePh
QEb:__ZN23ShaderVariantCollection13WarmupShadersEv
Jbf:_Context_set_ProtocolNegotiated_m1177527245
FMf:_UInt32_System_IConvertible_ToChar_m1056040486
M0:__Z25GetCommonScriptingClassesv
qhf:_TlsStream_get_Length_m1562309511
k8a:__Z27scripting_gc_collect_unsafei
CN:__ZN11AudioModule20SuspendVideoTexturesEv
Tzd:_CaseInsensitiveComparer__ctor_m1125492797
FP:__Z59Register_UnityEngine_AudioExtensionManager_GetAudioListenerv
C1b:__ZN12CubemapArrayC2E18MemLabelIdentifier18ObjectCreationMode
r4g:__Z73RuntimeInvoker_DictionaryEntry_t3048875398_RuntimeObject_SByte_t454417549PFvvEPK10MethodInfoPvPS4_
BEd:_Convert_ToByte_m395020137
Erb:__Z26Transfer_UnityEngineObjectI24GenerateTypeTreeTransferLb0EEvRK29SerializationCommandArgumentsR31RuntimeSerializationCommandInfo
eQi:_RaycastHit2D_get_normal_m1680752829
Xwc:_UNITY_FT_GlyphLoader_CheckPoints
JJe:_List_1_System_Collections_ICollection_CopyTo_m1995866425_gshared
lve:_TextWriter_WriteLine_m1754475888
tKa:__ZN15SharedLightData7PrecalcEv
IFa:__ZN10Matrix4x4fmLERKS_
vq:__ZN4PPtrI9TransformE8TransferI18StreamedBinaryReadILb0EEEEvRT_
v5d:_Array_InternalArray__get_Item_TisDouble_t4078015681_m2215331088_gshared
xdg:__ZL57PrincipalPolicy_t289802916_CustomAttributesCacheGeneratorP21CustomAttributesCache
avb:__Z35Transfer_Blittable_FixedBufferFieldI18StreamedBinaryReadILb1EEsEvRK29SerializationCommandArgumentsR31RuntimeSerializationCommandInfo
fUe:_Collection_1_ClearItems_m3446813399_gshared
Qlh:_Dictionary_2_Init_m3666073812_gshared
$Ke:_List_1_AsReadOnly_m1681105545_gshared
KAa:__ZN15ArchiveReadFileD0Ev
lee:_SymmetricTransform_TransformBlock_m1524716432
Rgi:_GUIUtility_TakeCapture_m1786193394
mXd:_Array_compare_TisColor32_t874517518_m3842009370_gshared
GXg:__Z105RuntimeInvoker_Boolean_t3825574718_RuntimeObject_Vector2_t2243707579_RuntimeObject_Vector2U26_t3911752445PFvvEPK10MethodInfoPvPS4_
tPc:__ZN11UnityEngine15PlatformWrapper18GetOperatingSystemEv
F9:__ZNSt3__26vectorIP14DataBufferGLESNS_9allocatorIS2_EEE21__push_back_slow_pathIKS2_EEvRT_
lEh:_InternalEnumerator_1__ctor_m2458691472_AdjustorThunk
h1e:_ReadOnlyCollection_1_System_Collections_Generic_ICollectionU3CTU3E_Remove_m974176789_gshared
LNd:_Delegate_return_type_match_m4278947849
sod:_InputField_GenerateHightlight_m1346735465
qp:__ZN15SerializeTraitsI13dynamic_arrayIiLj4EEE19ResizeSTLStyleArrayERS1_i
JZh:_UnityEventBase_ToString_m2323130098
wTh:_Uri_ParseNoExceptions_m1151989845
UDd:_GC_SuppressFinalize_m953228702
Mwc:_FT_MSB
kgf:_InternalAsyncResult_get_ProceedAfterHandshake_m552962842
bxf:_SoapServices_PreLoad_m490411755
a8h:_RectOffset__ctor_m2517237351
ELg:__Z63RuntimeInvoker_RuntimeObject_Int32_t2071877448_SByte_t454417549PFvvEPK10MethodInfoPvPS4_
Vhj:__ZN6il2cpp6icalls8mscorlib4Mono8Security12Cryptography18KeyPairPersistence10_CanSecureEP12Il2CppString
Jth:_Action_1_Invoke_m4180501989_gshared
Bch:_Slider__ctor_m3124136916
eGh:_DefaultComparer__ctor_m3180706193_gshared
CLe:_List_1_System_Collections_Generic_IEnumerableU3CTU3E_GetEnumerator_m3625278020_gshared
Y9:__ZN13GfxDeviceGLES14SetRasterStateEPK17DeviceRasterState
TPg:__Z51RuntimeInvoker_Int16_t4041245914_Single_t2076509932PFvvEPK10MethodInfoPvPS4_
Zlb:__Z30TransferField_LinearCollectionI14SafeBinaryReadEvRK29SerializationCommandArgumentsR31RuntimeSerializationCommandInfo
ind:_InputField_set_caretPositionInternal_m231166704
dbf:_TlsServerHello__ctor_m3032108168
Pua:__ZN14SafeBinaryRead11EndTransferEv
V6f:__ZL98ILGenerator_t99948092_CustomAttributesCacheGenerator_ILGenerator_Mono_GetCurrentOffset_m3553856682P21CustomAttributesCache
rmb:__ZN14SafeBinaryRead8TransferI8MonoPPtrEEvRT_PKc17TransferMetaFlags
Poh:_Dictionary_2_System_Collections_Generic_ICollectionU3CSystem_Collections_Generic_KeyValuePairU3CTKeyU2CTValueU3EU3E_Remove_m1705959559_gshared
$9h:_SerializeField__ctor_m2670658200
VDh:_InternalEnumerator_1_System_Collections_IEnumerator_get_Current_m1533037706_gshared
Rqa:__ZN21UniformBufferTFMethod13MapBoneBufferEj
Vef:_RecordProtocol_SendChangeCipherSpec_m3542001341
G1d:_Array_InternalArray__set_Item_TisVector3_t2243707580_m1390667454_gshared
eic:__ZN12GUIClipState10BeginOnGUIER10InputEvent
XZi:__ZNSt3__26vectorIcNS_9allocatorIcEEEC2Ej
ice:_KeyPairPersistence_CanSecure_m2251009700
Dw:__ZN7mecanim5human14HumanPoseClearERNS0_9HumanPoseERKNS_6bitsetILj70EEE
gCb:__ZN9TextAsset15ThreadedCleanupEv
Iuf:_ReturnMessage_get_Properties_m531965085
CUf:_GenericTypeParameterBuilder_IsSubclassOf_m563999142
UQd:_Exception_ToString_m627574695
YXf:_AddEventAdapter_Invoke_m3970567975
O6:__Z21CompleteFenceInternalR8JobFence
Ejc:__Z30Event_Get_Custom_PropModifiersP12Il2CppObject
rRi:__ZN30dense_hashtable_const_iteratorINSt3__24pairIK10KeyWrapperINS1_IPK9FieldInfoP11Il2CppClassEEEjEES9_17ReflectionMapHashIS8_EN14dense_hash_mapIS9_jSD_NS9_14EqualsComparerINS0_8equal_toIS8_EEEENS0_9allocatorISB_EEE9SelectKeyESI_SK_E30advance_past_empty_and_deletedEv
fph:_Dictionary_2_ContainsValue_m2375979648_gshared
yt:__ZN7mecanim9animation16CreateClipOutputEPKNS0_4ClipERNS_6memory9AllocatorE
Q$d:_Array_InternalArray__Insert_TisDecimal_t724701077_m1429254816_gshared
eli:_ListPool_1_Get_m2998644518_gshared
YOg:__Z191RuntimeInvoker_Int32_t2071877448_RuntimeObject_Int32_t2071877448_Int32_t2071877448_RuntimeObject_Int32_t2071877448_SByte_t454417549_Int32U26_t455636984_BooleanU26_t3168250738_SByte_t454417549PFvvEPK10MethodInfoPvPS4_
ZIf:_TimeSpan_get_Days_m1002111510
Qzb:__ZNSt3__218__stable_sort_moveIRN10vector_mapI17ScriptingClassPtrPKN5Unity4TypeENS_4lessIS2_EENS_9allocatorINS_4pairIS2_S6_EEEEE13value_compareENS_11__wrap_iterIPSB_EEEEvT0_SJ_T_NS_15iterator_traitsISJ_E15difference_typeEPNSM_10value_typeE
rab:__ZN6Shader21AwakeFromLoadThreadedEv
ela:__ZN6prcoreL17RemapGenericFloatI17TexFormatRGBFloat17TexFormatRGBAHalfEEvPKNS_9InnerInfoE
YBg:__ZL70InputField_t1631627530_CustomAttributesCacheGenerator_m_CharacterLimitP21CustomAttributesCache
rMe:_List_1_get_Capacity_m2443158653_gshared
EUc:__ZN13RuntimeStaticINSt3__26vectorIjNS0_9allocatorIjEEEELb0EE16StaticInitializeEPv
nT:__ZN13UploadHandler10OnSentDataEj
cjj:__ZN6il2cpp2os9SemaphoreC2Eii
Tvh:_InternalEnumerator_1_get_Current_m2960188445_AdjustorThunk
oTg:__Z56RuntimeInvoker_UriHostNameType_t2148127109_RuntimeObjectPFvvEPK10MethodInfoPvPS4_
tmb:__ZNSt3__26vectorI8MonoPPtr13stl_allocatorIS1_L18MemLabelIdentifier1ELi16EEE8__appendEj
aeh:_Text_set_alignByGeometry_m1514652028
FKb:__ZN14qsort_internal30FindAndMovePivotToLastPositionIP17RODataReplacementi19ROSorterReplacementEEvT_S4_T0_T1_
ara:__ZN15UniformTFMethod20IsBoneCountSupportedEi
qre:_FileStream_get_Position_m465478322
rFi:__ZN14dense_hash_setI10KeyWrapperIPK19Il2CppGenericMethodEN6il2cpp8metadata23Il2CppGenericMethodHashENS4_14EqualsComparerINS6_26Il2CppGenericMethodCompareEEENSt3__29allocatorIS4_EEEC2EjRKS7_RKSA_
dqj:dynCall_viidi
U$d:_Array_InternalArray__Insert_TisInt64_t909078037_m3039874636_gshared
Otd:_Convert_ToInt16_m1787678274
Meh:_ToggleGroup_NotifyToggleOn_m997426227
Ys:__ZN8Playable18OnApplicationPauseEb
dff:_RSASslSignatureDeformatter_SetKey_m1150106904
y_:__ZN24ScriptingMethodFiltering17FilterOnSignatureENS_18MethodSearchFilterE
URf:_TypeBuilder_get_Module_m1668298460
t9g:_Scrollbar_ClickRepeat_m3403943364
AO:__ZN13ProduceHelperI9AudioClipLb0EE7ProduceE18MemLabelIdentifier18ObjectCreationMode
kWb:__ZN18ScreenManagerWebGL13SetLockCursorE14CursorLockMode
rDc:_cf2_arrstack_finalize
Hxe:_MonoType_GetMethodsByName_m1854415088
Kfh:_Enumerator_get_CurrentValue_m3147984131_gshared
Tui:_DisplayBuffer_CutViewport_m34694897
KSf:_DerivedType_GetMethods_m165266904
Sde:_RSAManaged_EncryptValue_m4089823119
n$b:__ZN13MonoBehaviour19HandleNotificationsEPviR11MessageData
bXh:_Component_get_gameObject_m2159020946
Jjj:__ZN6il2cpp2os9EventImpl5ResetEv
NHi:__ZN6il2cpp2vm13MetadataCache23GetMethodGenericContextEPK10MethodInfo
Xph:_DefaultComparer_GetHashCode_m926363525_gshared
xei:_Event_get_keyCode_m4176847855
tah:_ScrollRect_get_verticalScrollbar_m2455612493
ese:_ReadDelegate_Invoke_m2091885836
TTf:_TypeBuilder_GetField_m2112455315
xtj:b58
ytj:b59
ftj:b52
qtj:b53
dtj:b50
etj:b51
vtj:b56
wtj:b57
ttj:b54
utj:b55
O9d:_Kernel_Multiply_m3585610531
C8e:_CertificateSelectionCallback_EndInvoke_m3525317639
eL:__ZN4PPtrI15AudioMixerGroupE8TransferI18StreamedBinaryReadILb0EEEEvRT_
oJd:_DateTime__ctor_m3604679583_AdjustorThunk
$Pi:_RaycastHit2D_t4063908774_marshal_pinvoke
tsd:_SimpleEnumerator_Reset_m1341779532
APi:__ZNSt3__214__split_bufferINS_12basic_stringIcNS_11char_traitsIcEENS_9allocatorIcEEEERNS4_IS6_EEEC2EjjS8_
fde:_MACAlgorithm_Core_m2390605245
ZCh:_InternalEnumerator_1_System_Collections_IEnumerator_get_Current_m30488070_gshared
x3b:__ZN10GameObject12CleanupClassEv
wzh:_InternalEnumerator_1_System_Collections_IEnumerator_Reset_m2624612805_AdjustorThunk
g3f:__ZL108ArrayReadOnlyList_1_t3367196019_CustomAttributesCacheGenerator_ArrayReadOnlyList_1_GetEnumerator_m3031680693P21CustomAttributesCache
Maa:__ZN9GfxDevice25SetShaderPropertiesSharedERK19ShaderPropertySheet
cki:_IndexedSet_1_GetEnumerator_m3646001838_gshared
QJg:__Z96RuntimeInvoker_Int32_t2071877448_RuntimeObject_Int32_t2071877448_Int32_t2071877448_RuntimeObjectPFvvEPK10MethodInfoPvPS4_
SBb:__ZN10MonoScript17MainThreadCleanupEv
Tha:__ZN18AsyncUploadManager19AsyncResourceUploadER9GfxDeviceii9TextureID
G7g:_VertexHelper_AddUIVertexTriangleStream_m4009409241
MGh:_Comparer_1__ctor_m844571340_gshared
P2b:__ZL25InitializeDefaultMaterialv
HMc:__Z53Register_UnityEngine_CanvasRenderer_get_materialCountv
SW:__GLOBAL__sub_I_runtime_graphics_lod_0_cpp
sBa:__ZN19FileAccessorHandlerD2Ev
sng:__ZL84RectOffset_t3387826427_CustomAttributesCacheGenerator_RectOffset_Cleanup_m3560058379P21CustomAttributesCache
ofh:_VertexHelper_AddVert_m3290455716
Zcg:__ZL56SHA256Managed_t2029745292_CustomAttributesCacheGeneratorP21CustomAttributesCache
R6f:__ZL126GenericTypeParameterBuilder_t1370236603_CustomAttributesCacheGenerator_GenericTypeParameterBuilder_MakeGenericType_m2955814622P21CustomAttributesCache
Qya:__ZN17PersistentManager12UnloadStreamERKN4core12basic_stringIcNS0_20StringStorageDefaultIcEEEEb
JZb:__ZN14dense_hash_mapIN4core12basic_stringIcNS0_20StringStorageDefaultIcEEEE10vector_setI4PPtrI11SpriteAtlasENSt3__24lessIS8_EE13stl_allocatorIS8_L18MemLabelIdentifier81ELi16EEE20StringHash32FunctionIS4_ENS9_8equal_toIS4_EESC_INS9_4pairIKS4_SF_EELSD_81ELi16EEEixERSL_
fZa:__ZN13ScreenManager17RequestResolutionEiibi
VUc:_DESTransform__ctor_m4096028381
lNi:_il2cpp_unity_liveness_calculation_from_statics
Z3d:_Dictionary_2_Do_CopyTo_TisDictionaryEntry_t3048875398_TisDictionaryEntry_t3048875398_m983412647_gshared
gx:__ZNK26AnimatorControllerPlayable11DerivesFromE17ScriptingClassPtr
mIf:_Scheduler_get_Instance_m1989471839
TXa:__ZN8Renderer8TransferI17RemapPPtrTransferEEvRT_
U4g:__Z76RuntimeInvoker_Boolean_t3825574718_UIVertex_t1204258818_UIVertex_t1204258818PFvvEPK10MethodInfoPvPS4_
wTe:_Collection_1_Contains_m1299140035_gshared
stj:_glBlitFramebuffer__wrapper
p_d:_Array_InternalArray__ICollection_Add_TisUICharInfo_t3056636800_m968274080_gshared
mli:_ObjectPool_1__ctor_m1532275833_gshared
Tda:__ZN13GfxDeviceGLES19SetSinglePassStereoE16SinglePassStereo
L4g:__Z72RuntimeInvoker_Boolean_t3825574718_Color32_t874517518_Color32_t874517518PFvvEPK10MethodInfoPvPS4_
Api:_AudioSourceExtension_set_audioSource_m650845743
YOe:_Queue_1_System_Collections_ICollection_get_IsSynchronized_m3521628381_gshared
s1f:__ZL64IntPtr_t_CustomAttributesCacheGenerator_IntPtr__ctor_m3803259710P21CustomAttributesCache
fLe:_List_1_GetIndex_m3262928832_gshared
qfc:__Z33Sprite_CUSTOM_INTERNAL_get_borderP12Il2CppObjectP8Vector4f
jUb:__ZN16ReflectionProbes9GetCameraEv
_eb:__ZL18IsGpuProgramUsable20ShaderGpuProgramTypePK6Shader
she:_ArgumentException__ctor_m2105824819
kLc:__ZN2UI6Canvas17SetSortingLayerIDEi
_cd:_BaseMeshEffect_get_graphic_m3358796463
c6i:__ZN6il2cpp2vm11MethodStack23CleanupForCurrentThreadEv
Udi:_YieldInstruction__ctor_m3378690795
bwi:_Predicate_1_Invoke_m695569038_gshared
VAe:_Enumerator_VerifyState_m825848279_AdjustorThunk
pLa:__ZN20TierGraphicsSettings8TransferI24GenerateTypeTreeTransferEEvRT_
Kgi:_GUIStyleState_Cleanup_m824895509
YHg:__Z77RuntimeInvoker_Int32_t2071877448_RuntimeObject_RuntimeObject_SByte_t454417549PFvvEPK10MethodInfoPvPS4_
dob:__ZN14SafeBinaryRead21TransferSTLStyleArrayI13dynamic_arrayI4AABBLj4EEEEvRT_17TransferMetaFlags
KRa:__ZN18UnityPropertySheet8TransferI19StreamedBinaryWriteILb0EEEEvRT_
rdf:_TlsServerCertificate_checkServerIdentity_m3836435780
F7:__ZNSt3__26__treeINS_12__value_typeIiN11TypeManager18TypeCallbackStructEEENS_19__map_value_compareIiS4_NS_4lessIiEELb1EEENS_9allocatorIS4_EEE7destroyEPNS_11__tree_nodeIS4_PvEE
Uee:_PKCS12_Decrypt_m2353135969
ZWh:_Color32_ToString_m685380321
wZf:_MonoEvent_ToString_m386956596
_qg:__ZL70RuntimePlatform_t1869584967_CustomAttributesCacheGenerator_FlashPlayerP21CustomAttributesCache
L2d:_Array_Sort_TisRuntimeObject_m3309514378_gshared
wad:_PointerEventData_get_pointerPress_m880101744
_ea:__ZL19GetCameraTargetRectRK6Camerabb
tOc:__ZN11UnityEngine7Connect17XRDeviceInfoEventD0Ev
bih:_Transform_1_BeginInvoke_m1786442111_gshared
Yke:_Int32_GetFormatException_m1729046182
dEa:__ZN13dynamic_arrayIN10GameObject13ComponentPairELj4EE6insertEPS1_RKS1_
aQe:_Collection_1_get_Count_m3834276648_gshared
aV:__ZN21UnityDefaultAllocatorI17LowLevelAllocatorE10DeallocateEPv
tr:__ZN15PackedIntVector8TransferI14SafeBinaryReadEEvRT_
bYf:_FieldInfo_get_IsLiteral_m267898096
Owg:__ZL84Canvas_t209405766_CustomAttributesCacheGenerator_Canvas_get_isRootCanvas_m3746337338P21CustomAttributesCache
HJg:__Z45RuntimeInvoker_RuntimeObject_Int64_t909078037PFvvEPK10MethodInfoPvPS4_
rgf:_SslStreamBase_EndNegotiateHandshake_m1732321201
zih:_Transform_1_BeginInvoke_m1167293475_gshared
hH:__ZN13AudioListener8DoUpdateEv
glc:__ZN5Unity9rapidjson13GenericReaderINS0_4UTF8IcEES3_13JSONAllocatorE9ParseTrueILj1ENS0_25GenericInsituStringStreamIS3_EENS0_15GenericDocumentIS3_S4_S4_EEEEvRT0_RT1_
wEd:__Z13bankers_roundd
X4a:__ZN14SafeBinaryRead8TransferI5RectTIfEEEvRT_PKc17TransferMetaFlags
oi:_emscripten_glGenFramebuffers
EBd:_Hashtable_CopyTo_m2778915805
A7:__ZN17BaseObjectManager16StaticInitializeEPv
_Rf:_ConstructorBuilder_get_IsCompilerContext_m2796899803
_Xd:_Array_IndexOf_TisUIVertex_t1204258818_m613887160_gshared
Qab:__ZNSt3__26vectorIN9ShaderLab26SerializedShaderDependencyENS_9allocatorIS2_EEE26__swap_out_circular_bufferERNS_14__split_bufferIS2_RS4_EE
Xfd:_FloatTween_GetDuration_m1757342579_AdjustorThunk
XEd:_DateTime_CoreParse_m2014268103
YIh:_ResourceSet_Dispose_m2968479859
nwa:__ZN9Behaviour23VirtualRedirectTransferER17RemapPPtrTransfer
wnc:__Z18Transfer_BlittableI9JSONWriteLb0EyEvRK29SerializationCommandArgumentsR31RuntimeSerializationCommandInfo
UPa:__ZN13RenderTexture15ThreadedCleanupEv
cXd:_Array_BinarySearch_TisRuntimeObject_m3361740551_gshared
zTa:__ZN12CubemapArray23VirtualRedirectTransferER14SafeBinaryRead
BYh:_DrivenRectTransformTracker_Clear_m4190599786
Ct:__ZN21AnimationClipPlayable16ProcessHumanPassEPK35AnimationPlayableEvaluationConstantPK32AnimationPlayableEvaluationInputP33AnimationPlayableEvaluationOutput
zcc:__Z51Register_UnityEngine_QualitySettings_set_vSyncCountv
o1e:_ReadOnlyCollection_1_System_Collections_IList_Add_m616574295_gshared
Zke:_Int32_ProcessTrailingWhitespace_m2812079777
afa:__ZN18ProceduralMaterial9ReloadAllEbb
Dec:__Z43RectTransform_CUSTOM_INTERNAL_set_sizeDeltaP12Il2CppObjectRK13Vector2fIcall
nlf:_WebProxy__ctor_m3679722173
uyh:_InternalEnumerator_1_Dispose_m2743309309_AdjustorThunk
j2i:__ZN15dense_hashtableINSt3__24pairIK10KeyWrapperINS1_IPKcS4_EEEiEES6_24NamespaceAndNamePairHashN14dense_hash_mapIS6_iS9_NS6_14EqualsComparerI26NamespaceAndNamePairEqualsEENS0_9allocatorIS8_EEE9SelectKeyESD_SF_E6insertERKS8_
Fwa:__ZN24GenerateTypeTreeTransfer18BeginArrayTransferEPKcS1_Ri17TransferMetaFlags
gia:__Z16DecompressCrunchPKhRjR13TextureFormatiiii18MemLabelIdentifier
tNe:_List_1__ctor_m2082969060_gshared
im:___syscall51
mm:___syscall54
V2i:__ZNSt3__26__treeINS_12__value_typeIP24Il2CppReflectionAssemblyPvEENS_19__map_value_compareIS3_S5_NS_4lessIS3_EELb1EEENS_9allocatorIS5_EEE12__find_equalIS3_EERPNS_16__tree_node_baseIS4_EESH_RKT_
Nfb:__ZN9ShaderLab9SubShader19CreateFromSubShaderERKS0_
_wg:__ZL84Canvas_t209405766_CustomAttributesCacheGenerator_Canvas_get_targetDisplay_m150918273P21CustomAttributesCache
Dtb:__Z18Transfer_BlittableI19StreamedBinaryWriteILb0EELb1EjEvRK29SerializationCommandArgumentsR31RuntimeSerializationCommandInfo
UC:__ZNK8Animator20IsAnyRendererVisibleEv
YDc:_cff_builder_add_point1
d3i:__ZN6il2cpp2vm5Image21GetCachedResourceDataEPK11Il2CppImageRKNSt3__212basic_stringIcNS5_11char_traitsIcEENS5_9allocatorIcEEEE
Lkd:_HorizontalOrVerticalLayoutGroup_set_childControlWidth_m4209477792
TRg:__Z54RuntimeInvoker_TimeSpan_t3430258949_Double_t4078015681PFvvEPK10MethodInfoPvPS4_
e_d:_Array_InternalArray__ICollection_Add_TisUInt32_t2149682021_m2629016323_gshared
alb:__Z18Transfer_BlittableI14SafeBinaryReadLb0E10ColorRGBAfEvRK29SerializationCommandArgumentsR31RuntimeSerializationCommandInfo
za:invoke_iiiiiiiiii
fP:__ZN11AudioSource25GetNumExtensionPropertiesEv
lN:__ZNK7Texture10GetVRUsageEv
I$d:_Array_InternalArray__Insert_TisKeyValuePair_2_t888819835_m975554221_gshared
kOg:__Z59RuntimeInvoker_RuntimeObject_Int64_t909078037_RuntimeObjectPFvvEPK10MethodInfoPvPS4_
w7a:__ZN18LoadSceneOperation19IntegrateTimeSlicedEi
xIf:_Scheduler_SchedulerThread_m2209572785
Z7d:_SortKeyBuffer_GetResultAndReset_m2516956577
$ug:__ZL79Event_t3028476042_CustomAttributesCacheGenerator_Event_get_character_m788279814P21CustomAttributesCache
rYb:__ZN10FileSystem19SetCurrentDirectoryERKN4core12basic_stringIcNS0_20StringStorageDefaultIcEEEE
nli:_ObjectPool_1_get_countAll_m4217365918_gshared
g1:__ZN16ScriptingManager24NotifyScriptCacheReleaseEi
hkg:__ZL85UriParser_t1012511323_CustomAttributesCacheGenerator_UriParser_OnRegister_m4010407891P21CustomAttributesCache
C6f:__ZL63UnmanagedMemoryStream_t822875729_CustomAttributesCacheGeneratorP21CustomAttributesCache
Hac:__Z47Register_UnityEngine_Coroutine_ReleaseCoroutinev
r5h:_PlayableBehaviour__ctor_m1589016632
UH:__ZN15AudioReverbZone13SetFMODValuesEv
HZ:__ZL19StaticDestroyShaderPv
_d:_glRenderbufferStorageMultisample
qvf:_SoapTypeAttribute_get_XmlTypeName_m2546866572
P6h:_Ray_GetPoint_m2427899009
oy:__ZN23AnimationPlayableOutput17SetTargetAnimatorEP8Animator
DZe:_ReadOnlyCollection_1_System_Collections_IList_get_IsFixedSize_m158012227_gshared
Toc:__ZN9JSONWrite8TransferI13dynamic_arrayIN4math12int3_storageELj4EEEEvRT_PKc17TransferMetaFlags
m4h:_X509Chain__ctor_m1113875360
B0e:_ReadOnlyCollection_1__ctor_m2387481411_gshared
Mdf:_TlsServerHello_processProtocol_m1241336522
vkg:__ZL79ModulusRing_t80355992_CustomAttributesCacheGenerator_ModulusRing_Pow_m661630322P21CustomAttributesCache
mUd:_Array_InternalArray__ICollection_Remove_TisKeyValuePair_2_t888819835_m1287715465_gshared
Iwh:_InternalEnumerator_1_System_Collections_IEnumerator_Reset_m324760031_AdjustorThunk
rNh:_ContextAttribute_IsContextOK_m3281216012
pte:_PathTooLongException__ctor_m3212099251
Dzj:_pthread_cond_broadcast__wrapper
dzf:_ObjectManager_RaiseDeserializationEvent_m1611173032
Cr:__ZN17PackedFloatVector8TransferI18StreamedBinaryReadILb0EEEEvRT_
ong:__ZL88Screen_t786852042_CustomAttributesCacheGenerator_Screen_t786852042____width_PropertyInfoP21CustomAttributesCache
BUa:__ZN7Cubemap23VirtualRedirectTransferER17RemapPPtrTransfer
Ccc:__Z37Register_UnityEngine_Screen_get_widthv
Fhd:_DropdownItem_get_image_m2752143412
xri:__ZL24UnresolvedVirtualCall_60P12Il2CppObjectaPK10MethodInfo
L5b:__ZN22BlockMemoryCacheWriter11GetPathNameEv
ejd:_Graphic_Rebuild_m2617722358
wOi:_RaycastHit_get_point_m3350410423
n9f:__ZL86SafeHandle_t2733794115_CustomAttributesCacheGenerator_SafeHandle_SetHandle_m1980208835P21CustomAttributesCache
bLd:_DateTime_ToString_m3108726445_AdjustorThunk
UQ:__ZN19CloudServiceHandlerD2Ev
e5d:_Array_InternalArray__get_Item_TisTableRange_t2011406615_m602485977_gshared
lod:_InputField_Append_m2623574152
mhe:_ApplicationException__ctor_m1120437222
_Zf:_MonoMethod__ctor_m4091684020
Vo:stackAlloc
_ac:__Z44Camera_CUSTOM_INTERNAL_CALL_ScreenPointToRayP12Il2CppObjectRK8Vector3fR3Ray
VBa:__ZN25SingleBlockMemoryFileData4LockEPPv
gib:__ZN12HandlerChain5TouchER13FileEntryData
_Vf:_MethodBuilder_GetHashCode_m1713271764
o$g:__Z50RuntimeInvoker_Boolean_t3825574718_Link_t865133271PFvvEPK10MethodInfoPvPS4_
hQe:_Collection_1_IsSynchronized_m1319022347_gshared
g7d:_MSCompatUnicodeTable_GetResource_m3816716847
Frf:_Interval_get_IsSingleton_m1888598248_AdjustorThunk
rrd:_Array_CreateInstance_m15016505
vnb:__ZNSt3__26vectorI17AnimationCurveTplIfE13stl_allocatorIS2_L18MemLabelIdentifier1ELi16EEE6assignINS_11__wrap_iterIPS2_EEEENS_9enable_ifIXaasr21__is_forward_iteratorIT_EE5valuesr16is_constructibleIS2_NS_15iterator_traitsISC_E9referenceEEE5valueEvE4typeESC_SC_
Slj:_stat
bHa:__ZN9ShaderLab10SubProgram7CompileEv
pyi:_Canvas_get_isRootCanvas_m3746337338
mp:__ZN11Quaternionf8TransferI14SafeBinaryReadEEvRT_
h$d:_Array_InternalArray__ICollection_CopyTo_TisUInt16_t986882611_m3228377237_gshared
oEe:_List_1_Add_m4157722533_gshared
HCg:__ZL68Navigation_t1571958496_CustomAttributesCacheGenerator_m_SelectOnDownP21CustomAttributesCache
XHa:__ZN6CameraD2Ev
EXc:_RC2_set_KeySize_m2015782960
la:invoke_iiiiiiiiiiii
UOe:_Queue_1_GetEnumerator_m2842671368_gshared
dVe:_Collection_1_SetItem_m3715941382_gshared
Zhe:_NumberFormatInfo_get_CurrencyGroupSeparator_m2480433019
Iee:_StrongName_get_PublicKey_m3777577320
sJh:_RuntimeCompatibilityAttribute__ctor_m1331212510
qZh:_PersistentCallGroup_Initialize_m3729167844
IK:__ZN10AudioMixer12RebindOutputEv
VXi:__ZNK15dense_hashtableINSt3__24pairIK10KeyWrapperIP11Il2CppClassES4_EES5_N6il2cpp8metadata16SZArrayClassHashEN14dense_hash_mapIS5_S4_SA_NS5_14EqualsComparerINS9_19SZArrayClassCompareEEENS0_9allocatorIS7_EEE9SelectKeyESE_SG_E5beginEv
cCi:__ZN6il2cpp2vm17SetupFieldsLockedEP11Il2CppClassRKNS_2os12FastAutoLockE
jL:__ZN11AudioSourceD0Ev
VFe:_List_1_System_Collections_ICollection_CopyTo_m1530390632_gshared
KWe:_Collection_1_System_Collections_IEnumerable_GetEnumerator_m1452790461_gshared
gyh:_InternalEnumerator_1_System_Collections_IEnumerator_Reset_m3194282029_AdjustorThunk
yjb:__ZN16MemoryFileSystem4NameEv
jHe:__ZN21InterfaceFuncInvoker0I18Color32_t874517518E6InvokeEjP11Il2CppClassP12Il2CppObject
N7c:_BaseRaycaster_OnEnable_m3641767070
mNe:_List_1_ToArray_m2810936944_gshared
Z3e:_Func_2_BeginInvoke_m669892004_gshared
w5e:_PrimeGeneratorBase_get_PrimalityTest_m308005118
X1f:__ZL71Enum_t2459695545_CustomAttributesCacheGenerator_Enum_Format_m2294492821P21CustomAttributesCache
dhc:__Z13SetCopyBufferRKN4core12basic_stringIcNS_20StringStorageDefaultIcEEEE
BFe:_List_1_CheckIndex_m2328469916_gshared
HRg:__Z75RuntimeInvoker_RuntimeObject_RuntimeObject_Decimal_t724701077_RuntimeObjectPFvvEPK10MethodInfoPvPS4_
RNe:_List_1_AddRange_m3345533268_gshared
Kvc:_UNITY_FT_New_Size
W8b:__Z42ScriptingGetComponentsOfTypeFromGameObjectRK26ScriptingGetComponentsArgs
Mei:_GUI_set_changed_m3199207797
oOe:_List_1_get_Item_m3157283227_gshared
hXd:__ZN21InterfaceFuncInvoker2Ii38CustomAttributeNamedArgument_t94157543S0_E6InvokeEjP11Il2CppClassP12Il2CppObjectS0_S0_
Gug:__ZL92AudioSource_t1135106623_CustomAttributesCacheGenerator_AudioSource_get_isPlaying_m1207358099P21CustomAttributesCache
mId:_Convert_ToString_m2915777777
fSa:__ZNSt3__27__sort4IRPFbRKNS_4pairIN9ShaderLab16FastPropertyNameEN18UnityPropertySheet11UnityTexEnvEEES8_EPS6_EEjT0_SD_SD_SD_T_
nDc:_cf2_hintmap_build
xrg:__ZL54PropertyName_t217228410_CustomAttributesCacheGeneratorP21CustomAttributesCache
hBc:_Line_Up
nye:_MonoType_GetGenericTypeDefinition_m2363776160
KOe:_Queue_1__ctor_m1845245813_gshared
Tbf:_Context_set_SentConnectionEnd_m2641458842
fe:_emscripten_glBufferSubData
Cud:_Buffer_BlockCopyInternal_m2627156229
Jpb:__Z18Transfer_BlittableI17RemapPPtrTransferLb1EyEvRK29SerializationCommandArgumentsR31RuntimeSerializationCommandInfo
Zid:_Graphic_set_material_m329335629
w7c:_ExecuteEvents_get_pointerExitHandler_m3250605428
gka:__ZN6prcoreL12RemapGenericI15TexFormatRGB88817TexFormatARGB8888EEvPKNS_9InnerInfoE
Lp:__Z17CalculateGlobalRS23TransformAccessReadOnly
g_g:__Z70RuntimeInvoker_DictionaryEntry_t3048875398_RuntimeObject_RuntimeObjectPFvvEPK10MethodInfoPvPS4_
Byf:__ZN21InterfaceFuncInvoker1IP12Il2CppObject28StreamingContext_t1417235061E6InvokeEjP11Il2CppClassS1_S2_
I9d:_Kernel_multiByteDivide_m735279869
xoh:_Dictionary_2_ToTValue_m542772656_gshared
$Rc:__ZN23UnityPurchasingSettings10InitializeER6Object
Xti:__ZL25UnresolvedVirtualCall_194P12Il2CppObject6Guid_tS1_PK10MethodInfo
XHf:_Thread_GetNewManagedId_internal_m3211695465
Kzi:_UISystemProfilerApi_EndSample_m3264820872
Eha:__ZN17GenericDynamicVBO17DrawChunkInternalERK21DynamicVBOChunkHandle17ShaderChannelMaskS3_P17VertexDeclarationP16DrawBuffersRangeij
CUc:__ZN13RuntimeStaticINSt3__26vectorIN5physx25PxVehicleWheelQueryResultENS0_9allocatorIS3_EEEELb0EE16StaticInitializeEPv
$nb:__ZN14SafeBinaryRead21TransferSTLStyleArrayI13dynamic_arrayI9BoundsIntLj4EEEEvRT_17TransferMetaFlags
eab:__ZN22MemoryCacherReadBlocks14LockCacheBlockEjPPhS1_
Dtd:_Boolean_System_IConvertible_ToChar_m2637404801_AdjustorThunk
r3g:__Z55RuntimeInvoker_UICharInfo_t3056636800_Int32_t2071877448PFvvEPK10MethodInfoPvPS4_
L1c:_SecurityContext_Capture_m2535194991
XLf:_UInt16_System_IConvertible_ToSByte_m3044765342_AdjustorThunk
PSf:_DerivedType_IsArrayImpl_m684825803
p0f:__ZL47Byte_t3683104436_CustomAttributesCacheGeneratorP21CustomAttributesCache
RIb:__ZNK9GfxDevice26GetSinglePassStereoEyeMaskEv
CQg:__Z66RuntimeInvoker_Void_t1841601450_Int64_t909078037_Int32_t2071877448PFvvEPK10MethodInfoPvPS4_
Juc:__ZN20TextRenderingPrivate8FontImpl16CacheFontForTextEPtiifjPK13dynamic_arrayINS_16TextFormatChangeELj4EE
_0g:__Z52RuntimeInvoker_Int32_t2071877448_Vector3_t2243707580PFvvEPK10MethodInfoPvPS4_
Z1d:_Array_qsort_TisUIVertex_t1204258818_TisUIVertex_t1204258818_m512606409_gshared
uVc:__Z21ArrayElementTypeCheckP11Il2CppArrayPv
Iwj:_emscripten_glTexSubImage2D__wrapper
_if:_NameValueCollection_AsSingleString_m10599052
hPb:__ZN14qsort_internal30FindAndMovePivotToLastPositionIP21ForwardRenderPassDataiN23ForwardShaderRenderLoop18RenderObjectSorterILb0EEEEEvT_S6_T0_T1_
nze:_Object_InternalGetHashCode_m1371384246
x7g:_Navigation_get_defaultNavigation_m2185194207
SEg:__ZL73LayoutElement_t2808691390_CustomAttributesCacheGenerator_m_FlexibleHeightP21CustomAttributesCache
Uui:_DisplayBuffer__ctor_m2438399907
Tme:_Int32_System_IConvertible_ToSByte_m1449623243_AdjustorThunk
Gge:_AccessViolationException__ctor_m1270251537
NNc:__Z42Register_UnityEngine_Canvas_get_rootCanvasv
F4h:_X509ExtensionCollection_IndexOf_m3972100651
qmb:__Z14resize_trimmedINSt3__26vectorI8MonoPPtr13stl_allocatorIS2_L18MemLabelIdentifier1ELi16EEEEEvRT_j
Oe:_TTF_RenderText_Solid
RMf:_UInt32_System_IConvertible_ToInt64_m3091851828
wwe:_MissingMethodException__ctor_m3898429715
Cwf:_RemotingConfiguration_RegisterClientProviderTemplate_m514821425
xgh:_Enumerator_System_Collections_IEnumerator_Reset_m3085583937_gshared
O7:__ZN15dense_hashtableINSt3__24pairIKPKcPK4RTTIEES3_N11TypeManager23ConstCharPtrHashFunctorEN14dense_hash_mapIS3_S7_SA_NS9_19ConstCharPtrEqualToE13stl_allocatorIS8_L18MemLabelIdentifier7ELi16EEE9SelectKeyESC_SF_E15insert_noresizeERKS8_
Tde:_RSAManaged_ExportParameters_m2873993187
XDd:_Convert__cctor_m926133987
ePe:_Enumerator__ctor_m2816143215_AdjustorThunk
wSc:__ZN11UnityEngine7Connect16PersistentValuesC2Ev
$nf:_X509Chain_FindParent_m404663796
anc:__Z18Transfer_BlittableI9JSONWriteLb0E5RectTIiEEvRK29SerializationCommandArgumentsR31RuntimeSerializationCommandInfo
vwe:_MissingMemberException__ctor_m2164043278
bAi:__ZL7log2_32j
MSe:_Collection_1_CopyTo_m2282972507_gshared
ddd:_BaseVertexEffect__ctor_m358261091
joa:__Z15IsIEEE754Format14GraphicsFormat
Xpb:__Z19TransferField_ArrayI17RemapPPtrTransfer27Converter_UnityEngineObjectEvRK23StaticTransferFieldInfoR31RuntimeSerializationCommandInfoRT0_
Za:invoke_iifiii
R3:__ZN13RuntimeStaticINSt3__23mapIN4core12basic_stringIcNS2_20StringStorageDefaultIcEEEES6_NS0_4lessIS6_EE13stl_allocatorINS0_4pairIKS6_S6_EEL18MemLabelIdentifier13ELi16EEEELb0EE16StaticInitializeEPv
xcg:__ZL53HMACSHA384_t3026079344_CustomAttributesCacheGeneratorP21CustomAttributesCache
PNa:__ZN14RenderSettings8TransferI18StreamedBinaryReadILb0EEEEvRT_
$ba:__ZN13GfxDeviceGLES15UploadTexture2DE9TextureID16TextureDimensionPKhiii14GraphicsFormati18TextureUploadFlags16TextureUsageMode
q3c:_Single_GetHashCode_m3102305584_AdjustorThunk
Q3d:_Array_swap_TisVector3_t2243707580_m3036634038_gshared
LJ:__ZN4FMOD6System9createDSPEP20FMOD_DSP_DESCRIPTIONPPNS_3DSPE
Rsf:__ZN21InterfaceFuncInvoker0IP8String_tE6InvokeEjP11Il2CppClassP12Il2CppObject
yUh:_UriParser_set_SchemeName_m3624672465
OF:__ZN4FMOD8ChannelI11EndCallbackEv
n$c:_ToBase64Transform_TransformBlock_m2201454137
hjc:__ZN8GUIStyle14SetDefaultFontEPN13TextRendering4FontE
MWf:_OpCode_get_StackBehaviourPop_m3787015663_AdjustorThunk
gPh:_PatternCompiler_EmitCount_m3609178511
zYa:__ZN15QualitySettings23VirtualRedirectTransferER24GenerateTypeTreeTransfer
Kyg:__ZL89PointerEventData_t1599784723_CustomAttributesCacheGenerator_U3CpositionU3Ek__BackingFieldP21CustomAttributesCache
SNi:__ZN6il2cpp2os10FileHandleC2Ev
_Pg:__Z48RuntimeInvoker_SByte_t454417549_SByte_t454417549PFvvEPK10MethodInfoPvPS4_
wKg:__Z65RuntimeInvoker_Void_t1841601450_SByte_t454417549_SByte_t454417549PFvvEPK10MethodInfoPvPS4_
q4g:__Z54RuntimeInvoker_KeyValuePair_2_t888819835_RuntimeObjectPFvvEPK10MethodInfoPvPS4_
n4g:__Z65RuntimeInvoker_DictionaryEntry_t3048875398_IntPtr_t_RuntimeObjectPFvvEPK10MethodInfoPvPS4_
deg:__ZL84Encoding_t663144255_CustomAttributesCacheGenerator_Encoding_GetByteCount_m4104502544P21CustomAttributesCache
c9c:__ZN23InterfaceActionInvoker1IP25AxisEventData_t1524870173E6InvokeEjP11Il2CppClassP12Il2CppObjectS1_
Gvf:_ObjRef_set_TypeInfo_m1661789743
PEi:__ZN30dense_hashtable_const_iteratorINSt3__24pairIK10KeyWrapperIPK19Il2CppGenericMethodEPK26Il2CppGenericMethodIndicesEES6_N6il2cpp8metadata23Il2CppGenericMethodHashEN14dense_hash_mapIS6_SA_SE_NS6_14EqualsComparerINSD_26Il2CppGenericMethodCompareEEENS0_9allocatorISB_EEE9SelectKeyESI_SK_EppEv
Uhf:_HybridDictionary_Add_m1037587952
mvc:_UNITY_FT_Request_Metrics
QHa:__Z37GetBarycentricCoordinatesForOuterCellPPK8Vector3fRK13dynamic_arrayIS_Lj4EERS0_RK11TetrahedronR8Vector4fRf
J0i:__ZN6il2cpp6icalls8mscorlib6System10Reflection10MonoMethod29get_IsGenericMethodDefinitionEP22Il2CppReflectionMethod
nZi:__ZN6il2cpp2vm6Thread21AllocThreadStaticDataEi
VRh:__ZN23InterfaceActionInvoker4IiibP19LinkRef_t2090853131E6InvokeEjP11Il2CppClassP12Il2CppObjectiibS1_
_Ed:_DateTime_YearMonthDayFormats_m4204607055
Fed:_ColorBlock_set_disabledColor_m3502887543_AdjustorThunk
E9i:__ZN30dense_hashtable_const_iteratorINSt3__24pairIK10KeyWrapperIPK19Il2CppGenericMethodEP10MethodInfoEES6_N6il2cpp8metadata23Il2CppGenericMethodHashEN14dense_hash_mapIS6_S9_SD_NS6_14EqualsComparerINSC_26Il2CppGenericMethodCompareEEENS0_9allocatorISA_EEE9SelectKeyESH_SJ_EppEv
rO:__Z13RegisterClassI13AudioListenerEvv
P2g:__Z48RuntimeInvoker_Link_t865133271_Int32_t2071877448PFvvEPK10MethodInfoPvPS4_
_li:_Aes__ctor_m4020215067
zmc:__Z18Transfer_BlittableI9JSONWriteLb0E8Vector3fEvRK29SerializationCommandArgumentsR31RuntimeSerializationCommandInfo
u4:__ZN13RuntimeStaticI17UniqueIDGeneratorLb0EE13StaticDestroyEPv
Nf:_emscripten_glUniform4i
Ecg:__ZL46MD5_t1507972490_CustomAttributesCacheGeneratorP21CustomAttributesCache
cjd:_Graphic_OnDisable_m2360886868
sli:_ObjectPool_1_Release_m1615270002_gshared
Ze:_emscripten_glUniform4f
tj:___unlock
xcj:_GC_default_oom_fn
Eza:__ZN15dense_hashtableINSt3__24pairIKN4core12basic_stringIcNS2_20StringStorageDefaultIcEEEEP20ArchiveStorageReaderEES6_20StringHash32FunctionIS6_EN14dense_hash_mapIS6_S9_SC_NS0_8equal_toIS6_EE13stl_allocatorISA_L18MemLabelIdentifier55ELi16EEE9SelectKeyESF_SI_ED2Ev
abh:_ScrollRect_InternalCalculateOffset_m3083065267
eBh:_InternalEnumerator_1_System_Collections_IEnumerator_Reset_m1561424184_AdjustorThunk
LWb:__ZN13sorted_vectorINSt3__24pairIN4core12basic_stringIcNS2_20StringStorageDefaultIcEEEES6_EEN10vector_mapIS6_S6_27compare_tstring_insensitiveIS6_E13stl_allocatorIS7_L18MemLabelIdentifier38ELi16EEE13value_compareESD_E9erase_oneIS6_EEjRKT_
Xzd:_Comparer_Compare_m4132969818
UL:__ZN20SoundChannelInstance19setReverbPropertiesEP29FMOD_REVERB_CHANNELPROPERTIES
Ood:_U3CCaretBlinkU3Ec__Iterator0_System_Collections_Generic_IEnumeratorU3CobjectU3E_get_Current_m3541562536
hFh:_InternalEnumerator_1__ctor_m2808001655_AdjustorThunk
kCh:_InternalEnumerator_1_System_Collections_IEnumerator_Reset_m2571770313_AdjustorThunk
gYf:_FieldInfo_get_UMarshal_m1934544188
lqh:_DefaultComparer_Equals_m2171836276_gshared
q8:__ZN13RuntimeStaticI18SpriteAtlasManagerLb0EE13StaticDestroyEPv
F$i:__ZN6il2cpp2vm9Exception18GetFormatExceptionEPKc
Bag:__ZL55IMessageSink_t2189618969_CustomAttributesCacheGeneratorP21CustomAttributesCache
Mgc:__Z40Register_UnityEngine_Transform_IsChildOfv
H$h:_Mathf_Floor_m484333823
Pxd:_ArrayList_Sort_m923359189
veh:_Text_CalculateLayoutInputVertical_m1732119136
l_h:_Gradient_Init_m3042650694
Obc:__Z45Register_UnityEngine_Display_GetSystemExtImplv
jua:__ZN9GfxDevice31DrawIndexedNullGeometryIndirectE16GfxPrimitiveTypeP9GfxBuffer15ComputeBufferIDj
Bu:__ZN7mecanim9animation23TransformValuesFromClipEiiiRKNS_10ValueArrayERKNS0_10ClipOutputERKNS0_12ClipBindingsERS1_RNS_14ValueArrayMaskEb
$fe:_X509Certificate_GetSubjectName_m2120755276
$8:__ZN30dense_hashtable_const_iteratorINSt3__24pairIKN4core12basic_stringIcNS2_20StringStorageDefaultIcEEEE13dynamic_arrayI4PPtrI6SpriteELj4EEEES6_20StringHash32FunctionIS6_EN14dense_hash_mapIS6_SC_SF_NS0_8equal_toIS6_EE13stl_allocatorISD_L18MemLabelIdentifier81ELi16EEE9SelectKeyESI_SL_EC2EPK15dense_hashtableISD_S6_SF_SN_SI_SL_EPKSD_SU_b
_zi:__ZL17log2withScale_128yyi
Hog:__ZL58ResourceRequest_t2560315377_CustomAttributesCacheGeneratorP21CustomAttributesCache
VJc:__ZNSt3__218__insertion_sort_3IRNS_6__lessIN2UI14DepthSortEntryES3_EEPS3_EEvT0_S7_T_
D$b:__ZN2UI13RectTransform15InitializeClassEv
N5:__ZN13RuntimeStaticI15DirectorManagerLb0EE16StaticInitializeEPv
vqc:__ZN8JSONRead8TransferI23ManagedObjectTransfererEEvRT_PKc17TransferMetaFlagsb
R5e:_ASN1_get_Value_m2229768312
Uti:__ZL25UnresolvedVirtualCall_191P12Il2CppObjectsPK10MethodInfo
f7c:_BaseInput_get_touchCount_m998724785
M3a:__ZN11TimeManager6UpdateEv
n4h:_X509Chain_get_Status_m2726750609
Fod:_InputField_get_preferredWidth_m3185355225
MVe:_Collection_1_RemoveItem_m1406181352_gshared
PHf:_Thread_SetState_m3198426726
hyd:_ArrayListWrapper_Contains_m1158465965
D3d:_Array_swap_TisColor32_t874517518_m2203309732_gshared
q5e:_BigInteger_op_LessThan_m3825358479
Zlj:_fflush
sGa:__ZN17LightProbeContext4InitERK16LightmapSettingsRK14RenderSettings
Rtd:_Convert_ToInt32_m55151042
akj:__GLOBAL__sub_I_Error_cpp
wpi:_AudioSource_INTERNAL_CALL_ReadExtensionPropertyName_m3694806886
rRh:_Alternation_GetWidth_m4218808325
W1e:_ReadOnlyCollection_1_System_Collections_IList_Insert_m2651065875_gshared
BIa:__ZN10ColorRGBAf8TransferI19StreamedBinaryWriteILb0EEEEvRT_
cxc:_ft_bitmap_glyph_bbox
fjf:_TypeConverterAttribute__ctor_m4061167050
_ti:__ZL25UnresolvedVirtualCall_197P12Il2CppObject22ColorBlock_t2652774230PK10MethodInfo
HOe:_Enumerator_MoveNext_m3315718998_gshared
Z5i:__ZNSt3__26vectorI20Il2CppStackFrameInfoNS_9allocatorIS1_EEE7reserveEj
Aqg:__ZL75SpriteAtlasManager_t308281693_CustomAttributesCacheGenerator_atlasRequestedP21CustomAttributesCache
roh:_Dictionary_2_ContainsValue_m2760581195_gshared
gej:_GC_reclaim_uninit
ySb:__Z34ProcessIndexListIsNodeVisibleStep2RK22SceneCullingParametersPK9SceneNodePK4AABBR9IndexList
QBb:__ZN10MonoScriptD2Ev
xka:__ZN6prcoreL12RemapGenericI17TexFormatARGB888817TexFormatBGRA8888EEvPKNS_9InnerInfoE
hdh:_Slider_OnRectTransformDimensionsChange_m4109401172
jlf:_WebHeaderCollection_Get_m3391944907
idc:__Z39Input_CUSTOM_INTERNAL_get_mousePositionP8Vector3f
iAc:_tt_cmap13_char_next
Uwf:_ServerIdentity__ctor_m1576469955
Kfb:__ZN9ShaderLab4Pass16SetupPassOptionsEv
ah:_JS_Sound_ReleaseInstance
Oqg:__ZL72IL2CPPStructAlignmentAttribute_t130316838_CustomAttributesCacheGeneratorP21CustomAttributesCache
_aa:__ZN13GfxDeviceGLES19DrawBuffersIndirectEP9GfxBufferPK18VertexStreamSourceiP17VertexDeclaration17ShaderChannelMask16GfxPrimitiveType15ComputeBufferIDj
lKe:_List_1_Shift_m439051997_gshared
lgd:_DefaultControls_CreateScrollbar_m770089625
bKh:_InAttribute__ctor_m1401060713
tvj:_emscripten_glPixelStorei__wrapper
ISg:__Z98RuntimeInvoker_Void_t1841601450_Int32_t2071877448_Int32_t2071877448_SByte_t454417549_RuntimeObjectPFvvEPK10MethodInfoPvPS4_
CMd:_Decimal_System_IConvertible_ToDecimal_m1541432424_AdjustorThunk
Zyb:__Z29Transfer_Blittable_ArrayFieldI18StreamedBinaryReadILb0EEaEvRT_R9ArrayInfoRK23StaticTransferFieldInfo
ym:FUNCTION_TABLE_diddi
ACf:_EncoderExceptionFallbackBuffer__ctor_m3538569575
Uec:__Z26Material_CUSTOM_SetIntImplP12Il2CppObjectii
Hrg:__ZL108StackTraceUtility_t1881293839_CustomAttributesCacheGenerator_StackTraceUtility_ExtractStackTrace_m2375126700P21CustomAttributesCache
Hke:_Int16_System_IConvertible_ToSingle_m3277935657_AdjustorThunk
TKi:__ZNSt3__26vectorIPK10MethodInfoNS_9allocatorIS3_EEE21__push_back_slow_pathIRKS3_EEvOT_
Bgf:_SslStreamBase_get_KeyExchangeAlgorithm_m3712013038
SNh:_InternalRemotingServices__cctor_m3821625125
_cc:__Z42Register_UnityEngine_RectOffset_get_bottomv
VEf:_StringBuilder_Insert_m3322917127
uph:_DefaultComparer_Equals_m724229128_gshared
HJe:_List_1__cctor_m1337542316_gshared
mhh:_Enumerator_VerifyCurrent_m1702320752_AdjustorThunk
Psf:__ZN21InterfaceFuncInvoker0IP24ObjectU5BU5D_t3614634134E6InvokeEjP11Il2CppClassP12Il2CppObject
aob:__ZN9BoundsInt8TransferI14SafeBinaryReadEEvRT_
OGd:_Convert_ToDouble_m3520060872
Ouj:_emscripten_glUniform1f__wrapper
Opj:dynCall_di
jff:_SslCipherSuite_ComputeServerRecordMAC_m1876572367
tuc:__ZN20TextRenderingPrivate19NativeTextGeneratorC2ERK11UTF16StringPNS_8FontImplE11ColorRGBA32ifRK8Vector2fbifiibffbbbP13dynamic_arrayIN2UI8UIVertexELj4EE
gmc:__Z28RegisterModule_JSONSerializev
cHf:_Interlocked_CompareExchange_m3227034792
eWc:_HashAlgorithm_get_Hash_m931854461
zNi:_il2cpp_monitor_enter
lGh:_DefaultComparer_Compare_m3564013922_gshared
Mgb:__ZN2UI13RectTransform8TransferI14SafeBinaryReadEEvRT_
snc:__Z35Transfer_Blittable_FixedBufferFieldI9JSONWriteaEvRK29SerializationCommandArgumentsR31RuntimeSerializationCommandInfo
c7b:__Z20IsHumanControllingUsv
lIb:__ZNK19RenderEventsContext21ExecuteCommandBuffersEijR17ShaderPassContextR15RenderNodeQueueP19ProfilerInformationi
oUe:_Collection_1_RemoveAt_m3454169520_gshared
RV:__ZNK20DynamicHeapAllocatorI17LowLevelAllocatorE10GetPtrSizeEPKv
Qai:_Texture2D_GetPixelBilinear_m3514551520
Yu:__ZN17AnimationPlayable16AllocateBindingsEPK35AnimationPlayableEvaluationConstant
Ygd:_Dropdown_set_value_m2945561009
Raa:__ZN13GfxDeviceGLES17DestroyGpuProgramEPK10GpuProgram
Rhe:_GregorianCalendar_GetMonth_m523739832
Akb:__Z44InitializeTransferFunctionScriptingTraitsForI18StreamedBinaryReadILb0EEEvR31TransferFunctionScriptingTraits
xOb:__ZNSt3__218__insertion_sort_3IR23CompareReflectionProbesP31RuntimeReflectionProbeBlendInfoEEvT0_S5_T_
fqb:__ZN12NativeBufferI27Converter_SimpleNativeClassI8GradientEE15SetupForWritingER9ArrayInfo
D8:__ZNSt3__213__stable_sortIRNS_4lessIN4core12basic_stringIcNS2_20StringStorageDefaultIcEEEEEENS_11__wrap_iterIPS6_EEEEvT0_SC_T_NS_15iterator_traitsISC_E15difference_typeEPNSF_10value_typeEi
d_e:_ReadOnlyCollection_1_System_Collections_ICollection_get_IsSynchronized_m2987885125_gshared
BX:__ZN12_GLOBAL__N_113StaticDestroyEPv
eke:_Guid_ToString_m51661589
lmh:_Dictionary_2__ctor_m1512192236_gshared
Odh:_Text_set_font_m1095513810
xzj:_glUnmapBuffer__wrapper
bKd:_DateTime_System_IConvertible_ToUInt32_m1363211018_AdjustorThunk
Yld:_InputField_get_cachedInputTextGenerator_m881618486
$dc:__Z32Mesh_CUSTOM_ExtractArrayFromListP12Il2CppObject
FQf:_Binder_get_DefaultBinder_m965620943
Uyg:__ZL87PointerEventData_t1599784723_CustomAttributesCacheGenerator_U3CbuttonU3Ek__BackingFieldP21CustomAttributesCache
_qc:__ZN8JSONRead21TransferSTLStyleArrayINSt3__26vectorI8Gradient13stl_allocatorIS3_L18MemLabelIdentifier1ELi16EEEEEEvRT_17TransferMetaFlags
xcf:_SecurityParameters_Clear_m3409219757
h4a:__ZNSt3__218__insertion_sort_3IRNS_6__lessINS_4pairIPKN5Unity4TypeE7Hash128EES8_EEPS8_EEvT0_SC_T_
Prb:__ZN10RectOffset8TransferI24GenerateTypeTreeTransferEEvRT_
rsd:_SimpleEnumerator_get_Current_m482975946
Dmj:_srand
$qb:__Z18Transfer_BlittableI24GenerateTypeTreeTransferLb1E5RectTIiEEvRK29SerializationCommandArgumentsR31RuntimeSerializationCommandInfo
mIa:__ZNSt3__24listI4PPtrI6CameraENS_9allocatorIS3_EEE6removeERKS3_
vxe:_MonoTypeInfo__ctor_m1398838196
EJc:__ZN2UI13CanvasManager19RemoveDirtyRendererEPNS_6CanvasEPNS_14CanvasRendererE
zUh:_UriParser_set_DefaultPort_m1159216960
Qeh:_Toggle_Rebuild_m929023818
OFi:__ZN15dense_hashtableI10KeyWrapperIPK17Il2CppGenericInstES4_N6il2cpp8metadata21Il2CppGenericInstHashEN14dense_hash_setIS4_S7_NS4_14EqualsComparerINS6_24Il2CppGenericInstCompareEEENSt3__29allocatorIS4_EEE8IdentityESB_SE_E12resize_deltaEjj
b8b:__ZN8Material14DisableKeywordERKN4core12basic_stringIcNS0_20StringStorageDefaultIcEEEE
BWh:_CameraCallback_EndInvoke_m1254702166
fPc:__ZN11UnityEngine15PlatformWrapper25GetGraphicsRendererStringEv
_pg:__ZL97Transform_t3275118058_CustomAttributesCacheGenerator_Transform_INTERNAL_get_localScale_m275445901P21CustomAttributesCache
Tnd:_InputField_KeyPressed_m3066588581
mch:_Selectable_DoStateTransition_m539253088
w_c:_SHA512_Create_m439875055
yU:__ZN11UnityEngine15CloudWebService17WebFileDownloaderINS0_20WebRequestRestClientENS0_23WebRequestRestHeaderMapEED2Ev
Qb:invoke_vi
o_c:_SHA384Managed_update_m2629600295
CEg:__ZL68GridLayoutGroup_t1515633077_CustomAttributesCacheGenerator_m_SpacingP21CustomAttributesCache
Hoc:__ZN9JSONWrite8TransferI13dynamic_arrayI9BoundsIntLj4EEEEvRT_PKc17TransferMetaFlags
Ob:invoke_vd
pb:invoke_vf
TDh:_InternalEnumerator_1__ctor_m32322958_AdjustorThunk
Z2:__ZNK10GameObject8IsActiveEv
Gye:_NumberFormatter__cctor_m1641464619
zwg:__ZL67g_UnityEngine_PhysicsModule_Assembly_CustomAttributesCacheGeneratorP21CustomAttributesCache
PAf:_SByte_System_IConvertible_ToUInt32_m4256495110
L9c:_PointerEventData_set_eligibleForClick_m2036057844
Zna:__ZN18GfxFramebufferGLES23SetupDefaultFramebufferEPP17RenderSurfaceBaseS2_N2gl6HandleILNS3_10ObjectTypeE9EEE
fmj:_mbsinit
Yxg:__ZL70EventSystem_t3466835263_CustomAttributesCacheGenerator_m_FirstSelectedP21CustomAttributesCache
CZa:__ZN13ScreenManager18RequestOrientationE17ScreenOrientation
BCi:__ZN6il2cpp2vm5Class12SetupMethodsEP11Il2CppClass
s8b:__Z39DeleteLastPathNameComponentWithAnySlashRKN4core12basic_stringIcNS_20StringStorageDefaultIcEEEE
hic:__ZN10GUIManager14InitGUIManagerEv
vfg:__ZL62ApplicationException_t474868623_CustomAttributesCacheGeneratorP21CustomAttributesCache
UBg:__ZL68InputField_t1631627530_CustomAttributesCacheGenerator_m_KeyboardTypeP21CustomAttributesCache
sfh:_VerticalLayoutGroup_CalculateLayoutInputHorizontal_m497637066
gdd:_Button_get_onClick_m1595880935
Nki:_ListPool_1_Release_m3716853512_gshared
ZOg:__Z134RuntimeInvoker_Int32_t2071877448_RuntimeObject_Int32_t2071877448_Int32_t2071877448_RuntimeObject_Int32_t2071877448_Int32U26_t455636984PFvvEPK10MethodInfoPvPS4_
rsf:_MethodCall__ctor_m4106494862
cLg:__Z167RuntimeInvoker_Void_t1841601450_SByte_t454417549_SByte_t454417549_SByte_t454417549_SByte_t454417549_SByte_t454417549_SByte_t454417549_SByte_t454417549_SByte_t454417549PFvvEPK10MethodInfoPvPS4_
qkc:__Z37Register_UnityEngine_GUIStyle_Cleanupv
Ma:invoke_iiifii
g3b:__ZN8GUILayer12AddToManagerEv
kLi:__ZN6il2cpp6icalls8mscorlib6System8MonoType13IsPointerImplEP20Il2CppReflectionType
yGd:_Convert_ToDecimal_m2284596541
Mi:_emscripten_glFramebufferRenderbuffer
nRb:__ZN19CullingGroupManager17CullAndSendEventsERK22SceneCullingParametersiRK13CullingOutputRK8JobFence
Nkg:__ZL64CipherSuiteCollection_t2431504453_CustomAttributesCacheGeneratorP21CustomAttributesCache
l0g:__Z105RuntimeInvoker_Int32_t2071877448_RuntimeObject_UILineInfo_t3621277874_Int32_t2071877448_Int32_t2071877448PFvvEPK10MethodInfoPvPS4_
Adf:_TlsServerCertificateRequest_ProcessAsSsl3_m3017921864
goe:_Int64_GetHashCode_m4047499913
eEa:__ZN9Transform30EnsureTransformHierarchyExistsEv
XMi:_il2cpp_field_get_flags
NN:__ZN11AudioModule26SetDefaultMicrophoneDriverEPv
WVg:__Z52RuntimeInvoker_Vector4_t2243707581_Color_t2020392075PFvvEPK10MethodInfoPvPS4_
Psd:_Attribute_IsDefined_m216577166
Twd:_Char_ToUpper_m109978609
ozh:_InternalEnumerator_1_get_Current_m1089848479_gshared
SOd:_Double_System_IConvertible_ToInt64_m3798425616
ubd:_StandaloneInputModule_get_repeatDelay_m3025279
W_a:__ZN14dense_hash_mapIN4core12basic_stringIcNS0_20StringStorageDefaultIcEEEE13dynamic_arrayI4PPtrI6SpriteELj4EE20StringHash32FunctionIS4_ENSt3__28equal_toIS4_EE13stl_allocatorINSC_4pairIKS4_S9_EEL18MemLabelIdentifier81ELi16EEEixERSH_
CWb:__ZNSt3__26vectorINS_4pairIN4core12basic_stringIcNS2_20StringStorageDefaultIcEEEEPK17MessageIdentifierEENS_9allocatorISA_EEE12__move_rangeEPSA_SE_SE_
GKb:__ZN14qsort_internal17MedianOfThreeSwapIP17RODataReplacement19ROSorterReplacementEEvT_S4_S4_T0_
WXg:__Z60RuntimeInvoker_FramePressState_t1414739712_Int32_t2071877448PFvvEPK10MethodInfoPvPS4_
ORe:_Collection_1_System_Collections_IList_Insert_m3303840316_gshared
sBi:__ZNK15dense_hashtableINSt3__24pairIK10KeyWrapperIPK22Il2CppGenericParameterEP11Il2CppClassEES6_N6il2cpp5utils11PointerHashIS4_EEN14dense_hash_mapIS6_S9_SE_NS6_14EqualsComparerINS0_8equal_toIS5_EEEENS0_9allocatorISA_EEE9SelectKeyESJ_SL_E3endEv
o8b:__ZN17TransformInternal36OnScaleChangedCalculateTransformTypeE15TransformAccess
lzd:_SynchronizedArrayListWrapper_InsertRange_m709359548
Xza:__ZN17ArchiveFileSystem10ToAbsoluteEPKc
k5e:_BigInteger_op_Modulus_m13450242
yFd:_DateTime__ctor_m3604679583
UPc:__ZN19UnityConnectService15GetPlayerUserIdEv
oHd:_Convert_ToInt32_m2988544165
o2d:_Array_Resize_TisColor32_t874517518_m2219502085_gshared
wz:__ZN7mecanim6CRCKeyENS_7eStringE
bhf:_SslStreamBase_get_CanWrite_m2069502593
_5b:__ZL12SetPrefValueRKN4core12basic_stringIcNS_20StringStorageDefaultIcEEEERK9PrefValue
ibb:__ZL30ReconstructParamNamesFromTableIN9ShaderLab20SerializedSubProgram15MatrixParameterEEvRK14dense_hash_mapIiN4core17string_with_labelILi1EEE18SInt32HashFunctionNSt3__28equal_toIiEE13stl_allocatorINS8_4pairIKiS6_EEL18MemLabelIdentifier1ELi16EEERNS8_6vectorIT_NS8_9allocatorISL_EEEE
bSa:__ZL13SortTexByNameRKNSt3__24pairIN9ShaderLab16FastPropertyNameEN18UnityPropertySheet11UnityTexEnvEEES7_
naj:__ZN6il2cpp5utils11StringUtils6PrintfEPKcz
jYi:__ZNSt3__26vectorIN6il2cpp8metadata18GenericArrayMethodENS_9allocatorIS3_EEE7reserveEj
tSa:__ZN15NameToObjectMapI6ShaderNSt3__23mapI4PPtrIS0_EN4core12basic_stringIcNS5_20StringStorageDefaultIcEEEENS1_4lessIS4_EENS1_9allocatorINS1_4pairIKS4_S9_EEEEEENS1_8multimapIS9_S4_NSA_IS9_EENSC_INSD_IKS9_S4_EEEEEEE4FindERSK_
uhh:_ShimEnumerator_Reset_m98005789_gshared
_Ta:__ZN24GenerateTypeTreeTransfer21TransferResourceImageE19ActiveResourceImagePKcR13StreamingInfoPvjiPKN5Unity4TypeE
n7e:_PKCS1_Compare_m552424558
DIh:_ResourceEnumerator__ctor_m1679839941
S$e:_ReadOnlyCollection_1_System_Collections_IList_set_Item_m1377990618_gshared
yVf:_ILGenerator_make_room_m373147874
Xoh:_Dictionary_2_Init_m1045257495_gshared
Swf:_SingleCallIdentity__ctor_m1512303454
X4h:_X509Extension_get_Oid_m3620527052
laf:_TlsClientSettings_set_TargetHost_m3421266913
kYd:_Array_InternalArray__IndexOf_TisKeyValuePair_2_t888819835_m2660446234_gshared
sde:_PKCS1_Verify_v15_m2571212635
vNa:__ZNSt3__212__deque_baseI18ReflectionProbeJobNS_9allocatorIS1_EEED2Ev
Uy:__ZN11UnityEngine9Animation27DestroyAnimationSetBindingsEPNS0_20AnimationSetBindingsERN7mecanim6memory9AllocatorE
obb:__ZN15dense_hashtableINSt3__24pairIKiN4core17string_with_labelILi1EEEEEi18SInt32HashFunctionN14dense_hash_mapIiS5_S7_NS0_8equal_toIiEE13stl_allocatorIS6_L18MemLabelIdentifier1ELi16EEE9SelectKeyESA_SD_E13set_empty_keyERKS6_
ND:__ZN8Animator12CleanupClassEv
qCf:_DecoderReplacementFallbackBuffer__ctor_m1305504326
Yqc:__Z13TransferFieldI8JSONReadLb0E27Converter_SimpleNativeClassI10RectOffsetEEvRK23StaticTransferFieldInfoR31RuntimeSerializationCommandInfoRT1_
F4c:_String_IndexOf_m570401060
Hld:_Image_CalculateLayoutInputVertical_m1340533162
CPd:_Enum_System_IConvertible_ToDateTime_m2924690746
yhd:_Dropdown_CreateBlocker_m4109366440
$Vc:_HashAlgorithm_System_IDisposable_Dispose_m2106335965
g3i:__GLOBAL__sub_I_GenericMetadata_cpp
Aye:_NotImplementedException__ctor_m1305569814
ovg:__ZL67GUISettings_t622856320_CustomAttributesCacheGenerator_m_CursorColorP21CustomAttributesCache
yKi:__ZN6il2cpp6icalls8mscorlib6System8MonoType18GetFields_internalEP20Il2CppReflectionTypeiS5_
$Rb:__Z24CalculateSpotLightBoundsffRK10Matrix4x4fR15SpotLightBounds
j7d:_TailoringInfo__ctor_m2248501932
fPa:__ZNK13RenderTexture21GetShadowSamplingModeEv
PQ:__ZN23CloudWebServicesManager23VirtualRedirectTransferER14SafeBinaryRead
JKg:__Z150RuntimeInvoker_Int32_t2071877448_RuntimeObject_Int32_t2071877448_Int32_t2071877448_RuntimeObject_Int32_t2071877448_Int32_t2071877448_Int32_t2071877448PFvvEPK10MethodInfoPvPS4_
Jyd:_FixedSizeArrayListWrapper_InsertRange_m2690348965
tBb:__Z19ShouldTransferFieldR32SerializationCommandQueueBuilder17ScriptingClassPtriR18TransferField_InfoRK20CoreScriptingClasses
vXf:_FieldInfo_get_IsStatic_m1411173225
yTi:__ZNK15dense_hashtableINSt3__24pairIK10KeyWrapperINS1_IPK12PropertyInfoP11Il2CppClassEEEjEES9_17ReflectionMapHashIS8_EN14dense_hash_mapIS9_jSD_NS9_14EqualsComparerINS0_8equal_toIS8_EEEENS0_9allocatorISB_EEE9SelectKeyESI_SK_E12test_deletedEj
Ese:_MemoryStream_Read_m2289595005
Bsa:__ZN26SinglePassStereoSupportExt21SetStereoMatrixCommonE21MonoOrStereoscopicEye24BuiltinShaderMatrixParamRK10Matrix4x4f
rK:__ZN5audio5mixer22UpdateAudioMixerMemoryERKNS0_18AudioMixerConstantERNS0_16AudioMixerMemoryEfPN4FMOD6SystemEf
$sc:__ZL21InitializeCachedStripPv
TVc:_SignatureDescription_set_DigestAlgorithm_m3219799565
w_i:__ZN6il2cpp6icalls8mscorlib6System9Threading6Thread23GetCachedCurrentCultureEP12Il2CppThread
Xsg:__ZL94PlayerEditorConnectionEvents_t2252784345_CustomAttributesCacheGenerator_messageTypeSubscribersP21CustomAttributesCache
Hbh:_Selectable_get_allSelectables_m3045831006
TFa:__ZNK6Camera22GetWorldToCameraMatrixEv
zsd:_ArrayTypeMismatchException__ctor_m2892687300
U5i:__ZN6il2cpp2vm12GenericClass11IsValueTypeEP18Il2CppGenericClass
fKg:__Z49RuntimeInvoker_TypeCode_t2536926201_RuntimeObjectPFvvEPK10MethodInfoPvPS4_
qAb:__ZN13MonoBehaviour7SetNameEPKc
e8e:_ContentInfo__ctor_m3579805263
cEi:__ZN15dense_hashtableINSt3__24pairIK10KeyWrapperIPKcEP11Il2CppClassEES5_N6il2cpp5utils11StringUtils12StringHasherIS4_EEN14dense_hash_mapIS5_S8_SE_NS5_14EqualsComparerINSB_13VmStringUtils21CaseSensitiveComparerEEENS0_9allocatorIS9_EEE9SelectKeyESJ_SL_E15set_deleted_keyERKS9_
Pah:_ScrollRect_get_verticalNormalizedPosition_m1701804869
eX:__GLOBAL__sub_I_runtime_shaders_shaderimpl_0_cpp
tCg:__ZL138U3CMouseDragOutsideRectU3Ec__Iterator1_t2599668326_CustomAttributesCacheGenerator_U3CMouseDragOutsideRectU3Ec__Iterator1__ctor_m1439320044P21CustomAttributesCache
M7a:__ZN18AwakeFromLoadQueue5ClearEv
Ijh:_Enumerator_get_Current_m2986380627_AdjustorThunk
EQb:__ZNSt3__27__sort5IR15ReflProbeSorterPP15ReflectionProbeEEjT0_S6_S6_S6_S6_T_
j6:__ZN8Playable10DisconnectEPS_i
Fwh:_InternalEnumerator_1_get_Current_m1526874475_AdjustorThunk
ok:_glGenTransformFeedbacks
Jya:__ZN13LoadOperationD2Ev
_be:_KeyPairPersistence__ctor_m1817312194
syi:_Canvas_set_scaleFactor_m3986864146
LTd:_Array_InternalArray__ICollection_Contains_TisMark_t2724874473_m1640201705_gshared
DKh:_ActivatedClientTypeEntry_get_ContextAttributes_m53051138
hEb:__Z21PlayerStartFirstSceneb
nTf:_TypeBuilder_get_AssemblyQualifiedName_m2097258567
gSa:__ZNSt3__27__sort5IRPFbRKNS_4pairIN9ShaderLab16FastPropertyNameEN18UnityPropertySheet11UnityTexEnvEEES8_EPS6_EEjT0_SD_SD_SD_SD_T_
Sfa:__ZNK7ApiGLES18GetExtensionStringEv
dra:__ZN31TransformFeedbackSkinPoseBufferD0Ev
Puj:_emscripten_glVertexAttrib1f__wrapper
F8g:_RaycastAllCallback__ctor_m3281594834
ngf:_SslStreamBase_get_MightNeedHandshake_m3432170694
Sph:_DefaultComparer_Equals_m1281232537_gshared
F3f:__ZL99RuntimeFieldHandle_t2331729674_CustomAttributesCacheGenerator_RuntimeFieldHandle_Equals_m1202966418P21CustomAttributesCache
To:FUNCTION_TABLE_iiiiiiiii
end:_InputField_set_asteriskChar_m619206227
$Bf:_DES_IsSemiWeakKey_m3967392585
H3e:_Comparison_1__ctor_m2159122699_gshared
Nke:_Int16_System_IConvertible_ToUInt32_m883204517_AdjustorThunk
N_f:_MonoProperty_get_PropertyType_m1921201152
Sfd:_FloatTween_TweenValue_m3881535116_AdjustorThunk
Wcj:_GC_allochblk
$7a:__Z15UnloadGameScenev
szj:_glCheckFramebufferStatus__wrapper
mPg:__Z43RuntimeInvoker_Boolean_t3825574718_IntPtr_tPFvvEPK10MethodInfoPvPS4_
H6a:__ZNSt3__26vectorIN30RuntimeInitializeOnLoadManager15ClassMethodInfoE13stl_allocatorIS2_L18MemLabelIdentifier13ELi16EEE7reserveEj
ssg:__ZL59WriteOnlyAttribute_t14323075_CustomAttributesCacheGeneratorP21CustomAttributesCache
Egj:__ZN6il2cpp2vm6Atomic9IncrementEPVi
mVi:__ZN15dense_hashtableINSt3__24pairIK10KeyWrapperIPK14Il2CppAssemblyEPK22Il2CppMonoAssemblyNameEES6_N6il2cpp5utils11PointerHashIS4_EEN14dense_hash_mapIS6_SA_SF_NS6_14EqualsComparerINS0_8equal_toIS5_EEEENS0_9allocatorISB_EEE9SelectKeyESK_SM_E5clearEv
DD:__ZN16MecanimAnimationD0Ev
p4e:_BigInteger_get_Rng_m2525288368
sAe:_KeyValuePair_2__ctor_m1640124561_AdjustorThunk
Yzd:_CaseInsensitiveHashCodeProvider__ctor_m3775398833
q7h:_Rect_get_width_m3473344679
vcc:__Z36Renderer_Get_Custom_PropSortingOrderP12Il2CppObject
Efi:_GUIContent__cctor_m976962423
GRi:__ZNK15dense_hashtableINSt3__24pairIK10KeyWrapperIPK10Il2CppTypeEjEES6_N6il2cpp8metadata14Il2CppTypeHashEN14dense_hash_mapIS6_jSB_NS6_14EqualsComparerINSA_26Il2CppTypeEqualityComparerEEENS0_9allocatorIS8_EEE9SelectKeyESF_SH_E13find_positionERS7_
XOa:__ZN7Texture5ResetEv
Bqb:__Z18Transfer_BlittableI24GenerateTypeTreeTransferLb0E8Vector2fEvRK29SerializationCommandArgumentsR31RuntimeSerializationCommandInfo
qqb:__Z18Transfer_BlittableI24GenerateTypeTreeTransferLb1EhEvRK29SerializationCommandArgumentsR31RuntimeSerializationCommandInfo
R1a:__ZN10VertexData10DeallocateEv
YOi:__ZNSt3__214__split_bufferIiRNS_9allocatorIiEEEC2EjjS3_
$9b:__ZNK16TypeTreeIterator10ByteOffsetEv
Jid:_Graphic_get_rectTransform_m2697395074
s5:__ZnwjRKSt9nothrow_t
pC:__ZN8Animator11ClearObjectEv
FVg:__Z55RuntimeInvoker_Boolean_t3825574718_Playable_t1896841784PFvvEPK10MethodInfoPvPS4_
Bmf:_X500DistinguishedName_Decode_m3070515374
PQa:__ZN14SafeBinaryRead19TransferSTLStyleMapINSt3__23mapI39DeprecatedFastPropertyNameSerializationN18UnityPropertySheet11UnityTexEnvENS1_4lessIS3_EENS1_9allocatorINS1_4pairIKS3_S5_EEEEEEEEvRT_17TransferMetaFlags
skf:_IPv6Address_set_ScopeId_m1442934355
Umg:__ZL86GameObject_t1756533147_CustomAttributesCacheGenerator_GameObject_set_layer_m3642810622P21CustomAttributesCache
s4f:__ZL72PKCS12_t1362584794_CustomAttributesCacheGenerator_U3CU3Ef__switchU24mapBP21CustomAttributesCache
ezf:_ObjectManager_RaiseOnDeserializedEvent_m512850179
Ysg:__ZL87PlayerEditorConnectionEvents_t2252784345_CustomAttributesCacheGenerator_connectionEventP21CustomAttributesCache
W9b:__Z35UnregisterSerializationCacheBuilderPFv17ScriptingClassPtrR23CachedSerializationDataRbE
JGa:__Z30GetBuiltinVectorParamArraySize24BuiltinShaderVectorParam
NQi:__ZNSt3__218uninitialized_copyIPNS_4pairIK10KeyWrapperINS1_IPK14Il2CppAssemblyP11Il2CppClassEEEjEESC_EET0_T_SE_SD_
W6d:_CodePointIndexer__ctor_m797342079
Gtg:__ZL93TextGenerator_t647235000_CustomAttributesCacheGenerator_TextGenerator_Dispose_cpp_m1011672971P21CustomAttributesCache
VBg:__ZL64InputField_t1631627530_CustomAttributesCacheGenerator_m_LineTypeP21CustomAttributesCache
Ccg:__ZL61KeyedHashAlgorithm_t1374150027_CustomAttributesCacheGeneratorP21CustomAttributesCache
LWa:__ZN18StreamedBinaryReadILb0EE21TransferSTLStyleArrayI13dynamic_arrayI7Hash128Lj8EEEEvRT_17TransferMetaFlags
wzg:__ZL103PointerEventData_t1599784723_CustomAttributesCacheGenerator_PointerEventData_set_clickCount_m2095939005P21CustomAttributesCache
AXa:__ZN21RendererUpdateManager11AddRendererER8Renderer
A_b:__Z13RegisterClassI15ResourceManagerEvv
wzf:_SerializationEntry_t3485203212_marshal_pinvoke_back
EXg:__Z78RuntimeInvoker_Void_t1841601450_RuntimeObject_RuntimeObject_RectU26_t844847526PFvvEPK10MethodInfoPvPS4_
ilb:__Z35Transfer_Blittable_FixedBufferFieldI14SafeBinaryReadsEvRK29SerializationCommandArgumentsR31RuntimeSerializationCommandInfo
W0a:__ZN14SafeBinaryRead21TransferSTLStyleArrayI13dynamic_arrayIfLj4EEEEvRT_17TransferMetaFlags
afg:__ZL79Thread_t241561612_CustomAttributesCacheGenerator_Thread_GetHashCode_m2038641494P21CustomAttributesCache
oaj:__ZN6il2cpp5utils11StringUtils11Utf16ToUtf8EPKDs
k6a:__ZN18StreamedBinaryReadILb0EE21TransferSTLStyleArrayINSt3__26vectorIN15ResourceManager10DependencyE13stl_allocatorIS5_L18MemLabelIdentifier52ELi16EEEEEEvRT_17TransferMetaFlags
wPc:__ZN11UnityEngine15PlatformWrapper20IsRootedOrJailbrokenEv
kHb:__ZZ23InitPlayerLoopCallbacksvEN52PreLateUpdateScriptRunBehaviourLateUpdateRegistrator7ForwardEv
bnf:_X509Certificate2_GetNameInfo_m402390219
XRb:__Z33IntersectAABBPlaneBoundsOptimizedRK4AABBPKN4math7_float4Ei
wsd:_Swapper_BeginInvoke_m2652511022
_7h:_RectOffset_t3387826427_marshal_pinvoke_back
k3g:__Z54RuntimeInvoker_UriScheme_t1876590943_Int32_t2071877448PFvvEPK10MethodInfoPvPS4_
bVb:__ZN19ScriptingInvocation6InvokeI28ScriptingSystemTypeObjectPtrEET_P21ScriptingExceptionPtrb
cba:__ZN9GfxDevice19EndGeometryJobFrameEv
kqb:__ZN27Converter_SimpleNativeClassI17AnimationCurveTplIfEE17ScriptingToNativeER18ScriptingObjectPtrPS1_
Eij:__ZN6il2cpp8metadata24Il2CppGenericInstCompare7CompareERK10KeyWrapperIPK17Il2CppGenericInstES8_
n_g:__Z36RuntimeInvoker_Enumerator_t132208513PFvvEPK10MethodInfoPvPS4_
MEi:__ZNK15dense_hashtableINSt3__24pairIK10KeyWrapperIPK19Il2CppGenericMethodEPK26Il2CppGenericMethodIndicesEES6_N6il2cpp8metadata23Il2CppGenericMethodHashEN14dense_hash_mapIS6_SA_SE_NS6_14EqualsComparerINSD_26Il2CppGenericMethodCompareEEENS0_9allocatorISB_EEE9SelectKeyESI_SK_E5beginEv
_id:_Graphic_get_materialForRendering_m2600868951
Ls:__ZN27AnimationLayerMixerPlayable21UpdateLayerParametersEv
Tcf:_TlsClientSettings_get_ClientCertificate_m89435195
$bg:__ZL61AsymmetricAlgorithm_t784058677_CustomAttributesCacheGeneratorP21CustomAttributesCache
CVf:__ZN21InterfaceFuncInvoker1IiP12MemberInfo_tE6InvokeEjP11Il2CppClassP12Il2CppObjectS1_
hTe:_Collection_1_System_Collections_IList_Contains_m3210868188_gshared
CRh:_AnchorInfo_get_IgnoreCase_m2406760852
Z$b:__ZNK17AnimationCurveTplIfE8EvaluateEfPNS0_5CacheE
oGb:__Z31ManagerContextInitializeClassesv
BKi:__ZNSt3__213__vector_baseIP9FieldInfoNS_9allocatorIS2_EEED2Ev
Lff:_TlsException_get_Alert_m4022765752
Vxc:_ft_smooth_transform
j5f:__ZL53SortedList_t3004938869_CustomAttributesCacheGeneratorP21CustomAttributesCache
Qvc:_UNITY_FT_List_Finalize
nij:__ZN6il2cpp6icalls8mscorlib6System7Runtime8Remoting10Activation18ActivationServices34AllocateUninitializedClassInstanceEP20Il2CppReflectionType
JLb:__Z20LightAttenuateApproxRKfS0_
Pva:__ZN9Scripting30SetCachedPtrOnScriptingWrapperE18ScriptingObjectPtrP6Object
Itb:__Z18Transfer_BlittableI19StreamedBinaryWriteILb0EELb0EdEvRK29SerializationCommandArgumentsR31RuntimeSerializationCommandInfo
eW:__ZN17LowLevelAllocator6MallocEj
a6c:_ASCIIEncoding_GetBytes_m3649277167
Nnh:_Dictionary_2__ctor_m2457723796_gshared
HKa:__ZN18BlockRangeInternal16PopLastNodeIndexEP10BlockRangeji
ROf:_Version__ctor_m2972638031
nae:_Kernel_MultiplyByDword_m155008287
q0a:__ZN4MeshD0Ev
eOg:__Z121RuntimeInvoker_Void_t1841601450_Int64_t909078037_RuntimeObject_RuntimeObject_Int64_t909078037_RuntimeObject_RuntimeObjectPFvvEPK10MethodInfoPvPS4_
NUc:__ZL42RequestRecreateEyeTexturesBeforeNextUpdatev
Nkh:_ValueCollection_System_Collections_Generic_ICollectionU3CTValueU3E_get_IsReadOnly_m3005456072_gshared
k$e:_ReadOnlyCollection_1_System_Collections_ICollection_get_SyncRoot_m1577944046_gshared
Uea:__ZNK6Camera20IsCurrentlyRenderingEv
Au:__ZN21AnimationClipPlayable23ProcessRootMotionNoClipEPK35AnimationPlayableEvaluationConstantPK32AnimationPlayableEvaluationInputP33AnimationPlayableEvaluationOutput
qMc:__Z36CanvasRenderer_CUSTOM_SetPopMaterialP12Il2CppObjectS0_i
Tcg:__ZL58RijndaelManaged_t1034060848_CustomAttributesCacheGeneratorP21CustomAttributesCache
oOi:_UpdatedEventHandler_Invoke_m4240581743
znc:__Z18Transfer_BlittableI9JSONWriteLb0EdEvRK29SerializationCommandArgumentsR31RuntimeSerializationCommandInfo
AIa:__ZN6Camera8TransferI19StreamedBinaryWriteILb0EEEEvRT_
Ite:_TextReader__ctor_m3276128267
dFe:_List_1_System_Collections_Generic_ICollectionU3CTU3E_get_IsReadOnly_m3598018290_gshared
a_e:_ReadOnlyCollection_1_System_Collections_IList_Insert_m3679749778_gshared
Veh:_Toggle_OnDidApplyAnimationProperties_m325835214
Wkj:_wctomb
QVg:__Z55RuntimeInvoker_Void_t1841601450_Matrix4x4U26_t266301477PFvvEPK10MethodInfoPvPS4_
cbc:__Z27Camera_CUSTOM_GetAllCamerasP11Il2CppArray
rAb:__ZNK13MonoBehaviour25GetNeedsPerObjectTypeTreeEv
uxb:__Z35Transfer_Blittable_FixedBufferFieldI18StreamedBinaryReadILb0EEiEvRK29SerializationCommandArgumentsR31RuntimeSerializationCommandInfo
YDd:_Convert_InternalFromBase64String_m3682756716
Vc:___cxa_rethrow
Uog:__ZL79Sprite_t309593783_CustomAttributesCacheGenerator_Sprite_get_texture_m1594695778P21CustomAttributesCache
cpc:__Z18Transfer_BlittableI8JSONReadLb1EhEvRK29SerializationCommandArgumentsR31RuntimeSerializationCommandInfo
Vuj:_glBindRenderbuffer__wrapper
gvg:__ZL86GUI_t4082743951_CustomAttributesCacheGenerator_U3CnextScrollStepTimeU3Ek__BackingFieldP21CustomAttributesCache
O7b:__ZN10systeminfo23SupportsLocationServiceEv
vXg:__Z48RuntimeInvoker_Void_t1841601450_Rect_t3681755626PFvvEPK10MethodInfoPvPS4_
nJf:_TimeSpan_Add_m3228293154
Vph:_DefaultComparer_Equals_m4098991076_gshared
RUb:__ZN13MonoBehaviour8SetClassE17ScriptingClassPtr18ScriptingObjectPtr
L7e:_RC4__cctor_m523650203
vNh:_CrossContextDelegate_Invoke_m2908136830
tli:_Locale_GetText_m3480617287
ohe:_ApplicationIdentity_ToString_m800036884
vib:__ZN20LocalFileSystemPosix4ReadER13FileEntryDatayyPvPy
jPb:__ZNSt3__211__sift_downIRN23ForwardShaderRenderLoop18RenderObjectSorterILb0EEEP21ForwardRenderPassDataEEvT0_S7_T_NS_15iterator_traitsIS7_E15difference_typeES7_
Hve:_UnmanagedMemoryStream_get_Position_m4093669769
Kag:__ZL83MethodDictionary_t1742974787_CustomAttributesCacheGenerator_U3CU3Ef__switchU24map21P21CustomAttributesCache
ANg:__Z90RuntimeInvoker_Void_t1841601450_IntPtr_t_RuntimeObject_Int32_t2071877448_Int32_t2071877448PFvvEPK10MethodInfoPvPS4_
GAb:__ZN13MonoBehaviour5DoGUIENS_13GUILayoutTypeEii
X4e:_Kernel_Multiply_m1938858919
hTf:_DerivedType_IsDefined_m555719351
sOh:_Mark_get_IsDefined_m3332701456
yxa:__ZNK12TLSAllocatorI14StackAllocatorE8ContainsEPKv
O3a:__ZN11TimeManager8TransferI18StreamedBinaryReadILb0EEEEvRT_
hgb:__ZN15SerializeTraitsINSt3__23mapI4PPtrI6ShaderEN4core12basic_stringIcNS5_20StringStorageDefaultIcEEEENS0_4lessIS4_EENS0_9allocatorINS0_4pairIKS4_S9_EEEEEEE8TransferI24GenerateTypeTreeTransferEEvRSH_RT_
tde:_EncryptedPrivateKeyInfo__ctor_m3964541963
bVc:_DESTransform__cctor_m1179482644
Irh:_EqualityComparer_1_System_Collections_IEqualityComparer_GetHashCode_m1465362976_gshared
u1h:_Object_t1021602117_marshal_pinvoke_cleanup
D0a:__ZN14BlendShapeData8TransferI14SafeBinaryReadEEvRT_
NPd:_Enum_Format_m2294492821
Vfg:__ZL81Convert_t2607082565_CustomAttributesCacheGenerator_Convert_ToDateTime_m3810846875P21CustomAttributesCache
LTa:__ZN7Texture25ReloadFromStorageIfNeededEPvb
tmc:__Z35Transfer_Blittable_FixedBufferFieldI9JSONWritehEvRK29SerializationCommandArgumentsR31RuntimeSerializationCommandInfo
pPf:_OverflowException__ctor_m2564269836
Ehh:_ShimEnumerator_get_Entry_m2332479818_gshared
J7c:_BaseRaycaster_get_priority_m247683215
JKd:_DateTime_CheckDateTimeKind_m329345155_AdjustorThunk
cGc:_Update_Max
KZi:__ZN6il2cpp6icalls8mscorlib6SystemL15ThrowNoWideningEv
f0b:__ZNK23TransformChangeDispatch24GetChangeMaskForInterestENS_12InterestTypeE
qgc:__Z45Transform_CUSTOM_INTERNAL_CALL_TransformPointP12Il2CppObjectRK8Vector3fRS1_
RSe:__ZN23InterfaceActionInvoker2Ii18Color32_t874517518E6InvokeEjP11Il2CppClassP12Il2CppObjectiS0_
PYb:__ZL10KeyHandleriPK23EmscriptenKeyboardEventPv
fRa:__ZNSt3__26__treeINS_12__value_typeI39DeprecatedFastPropertyNameSerializationfEENS_19__map_value_compareIS2_S3_NS_4lessIS2_EELb1EEENS_9allocatorIS3_EEE7destroyEPNS_11__tree_nodeIS3_PvEE
Nzc:_tt_cmap4_char_index
gAh:_InternalEnumerator_1__ctor_m2582404099_gshared
OJf:_TimeSpan_op_Addition_m3421801803
Rhb:__ZNK12HandlerChain8IsHiddenERK13FileEntryData
nBg:__ZL50Graphic_t2426225576_CustomAttributesCacheGeneratorP21CustomAttributesCache
Apb:__ZL26Transfer_SimpleNativeClassI17RemapPPtrTransfer10RectOffsetLb0EEvRK29SerializationCommandArgumentsR31RuntimeSerializationCommandInfo
rwc:__Z14ValidateFormatR13dynamic_arrayIN20TextRenderingPrivate16TextFormatChangeELj4EE
b4g:__Z114RuntimeInvoker_Int32_t2071877448_CustomAttributeTypedArgument_t1498197914_CustomAttributeTypedArgument_t1498197914PFvvEPK10MethodInfoPvPS4_
RFe:_List_1__ctor_m2672294496_gshared
FJd:_DateTime_System_IConvertible_ToInt32_m2789391054_AdjustorThunk
UUg:__Z73RuntimeInvoker_Single_t2076509932_Vector3_t2243707580_Vector3_t2243707580PFvvEPK10MethodInfoPvPS4_
Xae:_ASN1Convert_FromInt32_m1541043489
Oad:_PointerInputModule_ProcessMove_m3200120346
FEd:_Convert_ToByte_m1008221737
M6e:_MD2Managed_MD2Transform_m3825201358
WTe:_Collection_1_System_Collections_IList_IndexOf_m3976312928_gshared
VCg:__ZL69Scrollbar_t3248359358_CustomAttributesCacheGenerator_m_OnValueChangedP21CustomAttributesCache
Fze:_KeyValuePair_2__ctor_m3201181706_gshared
ucb:__ZNSt3__26vectorIN9ShaderLab20SerializedSubProgram13BufferBindingENS_9allocatorIS3_EEEC2ERKS6_
bhd:_Dropdown_AddOptions_m835420907
Mui:_Display_Start_m3446268861
Zyg:__ZL107PointerEventData_t1599784723_CustomAttributesCacheGenerator_PointerEventData_get_rawPointerPress_m448871540P21CustomAttributesCache
FGa:__ZNK9ShaderLab20ShaderBlendStateDesc15ToGfxBlendStateEPK19ShaderPropertySheetS3_R13GfxBlendState
a5f:__ZL92Hashtable_t909839986_CustomAttributesCacheGenerator_Hashtable_t909839986____hcp_PropertyInfoP21CustomAttributesCache
ned:_CanvasUpdateRegistry_IsRebuildingLayout_m1677873278
xy:__ZN11UnityEngine9AnimationL22GenericBindingCallbackEPvS1_i
OFc:_Compute_Point_Displacement
Qfb:__ZN9ShaderLab9IntShaderC2Ev
rLi:__ZN6il2cpp6icalls8mscorlib6SystemL9IsPrivateEPK9EventInfo
ghj:__ZN6il2cpp6icalls8mscorlib6System10Reflection4Emit11TypeBuilder20setup_internal_classEP27Il2CppReflectionTypeBuilderS7_
Exh:_InternalEnumerator_1_System_Collections_IEnumerator_Reset_m3237341717_AdjustorThunk
I6b:__Z18TransformPoints3x4RK10Matrix4x4fPK8Vector3fjPS2_ji
Tuh:_ArrayReadOnlyList_1_IndexOf_m1809425308_gshared
dNi:_il2cpp_gc_disable
Dlc:__ZN5Unity9rapidjson6WriterI16TempBufferWriterNS0_4UTF8IcEES4_13JSONAllocatorE11WriteUint64Ey
Nnf:_X509Chain_GetSubjectKeyIdentifier_m4232927227
NBd:_Hashtable_Clone_m165405752
wSf:_TypeBuilder_get_Name_m170882803
L7f:__ZL61CallingConventions_t1097349142_CustomAttributesCacheGeneratorP21CustomAttributesCache
cBi:__ZN13Il2CppHashMapIPK22Il2CppGenericParameterP11Il2CppClassN6il2cpp5utils11PointerHashIS1_EENSt3__28equal_toIS2_EENS9_9allocatorINS9_4pairIK10KeyWrapperIS2_ES4_EEEEEC2EjRKS8_RKSB_
uqc:__ZN8JSONRead21TransferSTLStyleArrayI31ArrayOfManagedObjectsTransfererEEvRT_17TransferMetaFlags
gAg:__ZL144U3CStartU3Ec__Iterator0_t3220237554_CustomAttributesCacheGenerator_U3CStartU3Ec__Iterator0_System_Collections_IEnumerator_get_Current_m290565900P21CustomAttributesCache
GCa:__Z15CreateDirectoryRKN4core12basic_stringIcNS_20StringStorageDefaultIcEEEE
kOa:__Z21CalculateGlobalMatrix23TransformAccessReadOnly
W3f:__ZL70InternalsVisibleToAttribute_t1037732567_CustomAttributesCacheGeneratorP21CustomAttributesCache
T3a:__ZNK13BuildSettings22GetTypeVirtualInternalEv
oqe:_MonoIO_GetCurrentDirectory_m1509324201
r_c:_SHA384Managed_adjustByteCounts_m410900820
CFf:_UTF32Encoding_GetHashCode_m4205784236
Eub:__Z35Transfer_Blittable_FixedBufferFieldI18StreamedBinaryReadILb1EEhEvRK29SerializationCommandArgumentsR31RuntimeSerializationCommandInfo
Qbf:_Context_get_ReceivedConnectionEnd_m3369356276
qAg:__ZL73U3COnFinishSubmitU3Ec__Iterator0_t99135383_CustomAttributesCacheGeneratorP21CustomAttributesCache
y_b:__Z13RegisterClassI14RenderSettingsEvv
yTb:__ZNK25CameraStackRenderingState25CalculateCameraTargetTypeEv
Ffj:_GC_set_on_event
P4g:__Z80RuntimeInvoker_Boolean_t3825574718_Navigation_t1571958496_Navigation_t1571958496PFvvEPK10MethodInfoPvPS4_
fQe:_Collection_1_ConvertItem_m3563206219_gshared
LJf:_TimeSpan_Subtract_m3597791685_AdjustorThunk
jZf:_MonoCMethod_get_Name_m764669486
Pw:__ZN7mecanim12statemachine24CreateStateMachineOutputEPKNS0_20StateMachineConstantEjRNS_6memory9AllocatorE
S5i:__ZN6il2cpp2vm12GenericClass8GetClassEP18Il2CppGenericClass
Dba:__ZNK9GfxDevice27GetActiveRenderSurfaceWidthEv
uOg:__Z45RuntimeInvoker_SerializationEntry_t3485203212PFvvEPK10MethodInfoPvPS4_
hPc:__ZN11UnityEngine15PlatformWrapper28GetCleanGraphicsFixedVersionEv
mjb:__ZN16MemoryFileSystem5WriteER13FileEntryDatayyPvPy
w:tempBigIntP
lui:__ZL25UnresolvedVirtualCall_210P12Il2CppObjecti38CustomAttributeNamedArgument_t94157543PK10MethodInfo
EPi:__ZN6il2cpp2vm4Type7GetTypeEPK10Il2CppType
yrf:_Interval_t2354235237_marshal_pinvoke_cleanup
Bsd:_AssemblyLoadEventHandler_Invoke_m108373765
Nad:_PointerInputModule_ShouldStartDrag_m4163638715
KAg:__ZL61Dropdown_t1985816271_CustomAttributesCacheGenerator_m_OptionsP21CustomAttributesCache
Nri:__ZL24UnresolvedVirtualCall_76P12Il2CppObjectPK10MethodInfo
lla:__ZN6prcoreL17RemapGenericFloatI18TexFormatRGBAFloat17TexFormatRGBAHalfEEvPKNS_9InnerInfoE
NHb:__Z16FindCameraStacksRKNSt3__24listI4PPtrI6CameraENS_9allocatorIS3_EEEERNS_6vectorI11CameraStackNS4_ISA_EEEE
osi:__ZL25UnresolvedVirtualCall_105P12Il2CppObjectiiaS0_PK10MethodInfo
jWa:__ZN10GISettings8TransferI14SafeBinaryReadEEvRT_
qn:FUNCTION_TABLE_vifff
b0e:_ReadOnlyCollection_1_System_Collections_Generic_ICollectionU3CTU3E_Remove_m2957273994_gshared
JVb:__ZN19CustomRenderTexture12ClearGPUDataEv
D7c:_BaseInputModule_ShouldActivateModule_m2899747874
_3g:__Z86RuntimeInvoker_Int32_t2071877448_DateTimeOffset_t1362988906_DateTimeOffset_t1362988906PFvvEPK10MethodInfoPvPS4_
ePa:__ZN13RenderTexture13ApplySettingsEv
Aeg:__ZL92UTF8Encoding_t111055448_CustomAttributesCacheGenerator_UTF8Encoding_GetByteCount_m2547312609P21CustomAttributesCache
nsj:_glVertexAttrib4f__wrapper
Se:_JS_Sound_SetListenerPosition
hn:FUNCTION_TABLE_fiffi
yWf:_ModuleBuilderTokenGenerator_GetToken_m3427457873
gMc:__Z55Register_UnityEngine_CanvasGroup_get_ignoreParentGroupsv
Wbh:_Selectable_get_isPointerInside_m3162215687
KXd:_Array_FindIndex_TisRuntimeObject_m4149904176_gshared
dEe:_List_1_System_Collections_IList_Contains_m149594880_gshared
b2i:__ZNK15dense_hashtableINSt3__24pairIK10KeyWrapperINS1_IPKcS4_EEEiEES6_24NamespaceAndNamePairHashN14dense_hash_mapIS6_iS9_NS6_14EqualsComparerI26NamespaceAndNamePairEqualsEENS0_9allocatorIS8_EEE9SelectKeyESD_SF_E10test_emptyERK24dense_hashtable_iteratorIS8_S6_S9_SH_SD_SF_E
Bgg:__ZL78Convert_t2607082565_CustomAttributesCacheGenerator_Convert_ToSByte_m2585959569P21CustomAttributesCache
k2g:__Z77RuntimeInvoker_Void_t1841601450_Int32_t2071877448_PlayableBinding_t2498078091PFvvEPK10MethodInfoPvPS4_
wOf:_UnauthorizedAccessException__ctor_m3480402128
kae:_BigInteger_op_Modulus_m3788401748
Gta:__ZN9GfxDevice20SetRenderSurfaceNameEP17RenderSurfaceBasePKc
XNh:_ArgInfo_GetInOutArgs_m3184132151
W9a:__ZNK8Material16MarkDependenciesER27GarbageCollectorThreadState
z6h:_Random_Range_m3327624272
Yeg:__ZL85Thread_t241561612_CustomAttributesCacheGenerator_Thread_get_CurrentThread_m3667342817P21CustomAttributesCache
Cnc:__ZL17Transfer_GUIStyleI9JSONWriteLb0EEvRK29SerializationCommandArgumentsR31RuntimeSerializationCommandInfo
BMb:__Z28GetHaloVertexPositionsStereoP8Vector3fRKS_S2_f
ama:__ZN6prcoreL27StretchGenericFloatBilinearI15TexFormatRGHalfEEvPKNS_9InnerInfoE
hBe:_Enumerator_MoveNext_m598197344_AdjustorThunk
$W:__GLOBAL__sub_I_runtime_misc_0_cpp
yxi:_TextGenerationSettings_t2543476768_marshal_pinvoke_back
E4g:__Z36RuntimeInvoker_Enumerator_t442692252PFvvEPK10MethodInfoPvPS4_
u5c:_String_JoinUnchecked_m1880555587
LGa:__ZNK9ShaderLab7Program21GetMatchingSubProgramEPK6ShaderPKNS_4PassERK16ShaderKeywordSetjPS7_R19ShaderSnippetResult
J$d:_Array_InternalArray__Insert_TisKeyValuePair_2_t1174980068_m2464431954_gshared
Sec:__Z49Register_UnityEngine_Resources_GetBuiltinResourcev
TRh:_BalancingGroup_set_Balance_m3452171919
Zzc:_tt_cmap10_char_index
Zgd:_Dropdown_Awake_m335654827
k5:__Z18GetITerrainManagerv
Aoh:_Dictionary_2_U3CCopyToU3Em__0_m1479035402_gshared
Fzd:_BitArray_set_Item_m3801461194
Cbd:_StandaloneInputModule_get_cancelButton_m1563746440
GBi:__ZN15dense_hashtableINSt3__24pairIK10KeyWrapperIPK22Il2CppGenericParameterEP11Il2CppClassEES6_N6il2cpp5utils11PointerHashIS4_EEN14dense_hash_mapIS6_S9_SE_NS6_14EqualsComparerINS0_8equal_toIS5_EEEENS0_9allocatorISA_EEE9SelectKeyESJ_SL_E3endEv
Z4c:_String_Remove_m3580114465
Xgi:_GUIUtility_EndGUIFromException_m3100752188
Hxc:_UNITY_FT_Destroy_Class_cff_field_handlers
jP:__ZN11AudioSource24ClearExtensionPropertiesE12PropertyName
heb:__ZN9ShaderLab22SerializedBindChannels8TransferI19StreamedBinaryWriteILb0EEEEvRT_
Lnb:__ZN15SerializeTraitsI5RectTIiEE8TransferI14SafeBinaryReadEEvRS1_RT_
aRg:__Z82RuntimeInvoker_Int32_t2071877448_RuntimeObject_Int32_t2071877448_Int16_t4041245914PFvvEPK10MethodInfoPvPS4_
clf:_WebHeaderCollection_AddWithoutValidate_m1479880592
MKh:_UrlAttribute_get_UrlValue_m3448699483
Wvc:_UNITY_FT_Stream_ReadUShort
rnd:_InputField_OnEnable_m3797157569
cdc:__Z51Register_UnityEngine_GUILayer_INTERNAL_CALL_HitTestv
OQa:__ZNSt3__26__treeINS_12__value_typeIN4core12basic_stringIcNS2_20StringStorageDefaultIcEEEES6_EENS_19__map_value_compareIS6_S7_NS_4lessIS6_EELb1EEE13stl_allocatorIS7_L18MemLabelIdentifier1ELi16EEE7destroyEPNS_11__tree_nodeIS7_PvEE
Nvi:_Nullable_1__ctor_m796575255_gshared
ubj:__ZN6il2cpp2vm8Profiler7GCEventE13Il2CppGCEvent
PJd:_DateTimeUtils_ToString_m3878360633
wYi:__ZN15dense_hashtableINSt3__24pairIK10KeyWrapperIP11Il2CppClassES4_EES5_N6il2cpp8metadata16SZArrayClassHashEN14dense_hash_mapIS5_S4_SA_NS5_14EqualsComparerINS9_19SZArrayClassCompareEEENS0_9allocatorIS7_EEE9SelectKeyESE_SG_E4findERS6_
JZi:__ZN6il2cpp6icalls8mscorlib6SystemL16ThrowInvalidCastEPK11Il2CppClassS5_
hha:__Z13IsDepthFormat14GraphicsFormat
b5a:__ZN12AspectRatios8TransferI24GenerateTypeTreeTransferEEvRT_
Ubd:_StandaloneInputModule_ForceAutoSelect_m1167170508
BVh:_Bounds_GetHashCode_m458298790
Esc:__Z12FormatBufferPciPKcz
dcd:_TouchInputModule_Process_m1373751353
Itc:__ZN15SerializeTraitsI13dynamic_arrayI4PPtrIN13TextRendering4FontEELj4EEE19ResizeSTLStyleArrayERS5_i
RVf:_MethodBuilder_Invoke_m1874904900
SBi:__ZN6il2cpp2vm5Class13GetArrayClassEP11Il2CppClassj
nEb:__ZN19RuntimeSceneManager18LoadSceneAsyncIntoER10UnitySceneRKN4core12basic_stringIcNS2_20StringStorageDefaultIcEEEENS_11LoadingModeEb
USf:_DerivedType_InvokeMember_m4149586013
weg:__ZL88UTF7Encoding_t741406939_CustomAttributesCacheGenerator_UTF7Encoding_GetBytes_m3015176946P21CustomAttributesCache
shf:_TlsStream_SetLength_m1460039587
rjc:__ZN11IMGUIModule12AddGUIScriptER8ListNodeI13MonoBehaviourE
nb:invoke_difi
Z9c:_PointerEventData_set_rawPointerPress_m1484888025
V4:__ZL50StaticRegisterSceneLoadedCallback_LightmapSettingsPv
Tyd:_SimpleEnumerator_Clone_m215554974
hNg:__Z119RuntimeInvoker_Void_t1841601450_RuntimeObject_RuntimeObject_RuntimeObject_RuntimeObject_Int32_t2071877448_RuntimeObjectPFvvEPK10MethodInfoPvPS4_
PMb:__ZN29MotionVectorRenderLoopScratch15ThreadedCleanupEv
Im:FUNCTION_TABLE_iiffi
akd:_GridLayoutGroup_get_cellSize_m1061731753
Jrh:_EqualityComparer_1_System_Collections_IEqualityComparer_Equals_m300683774_gshared
i_a:__ZN15SerializeTraitsI13dynamic_arrayItLj2EEE19ResizeSTLStyleArrayERS1_i
Hga:__ZN21GLESGpuProgramApplier11ApplyVectorERKN20GpuProgramParameters14ValueParameterEPK8Vector4ft
hOc:__ZN22BaseUnityConnectClient17SaveSessionValuesEv
Zla:__ZN6prcoreL27StretchGenericFloatBilinearI18TexFormatRGBAFloatEEvPKNS_9InnerInfoE
WSh:_Parser_IsIgnoreCase_m4155598997
ffi:_GUILayoutUtility_LayoutSingleGroup_m3024581181
_0i:__ZN15dense_hashtableINSt3__24pairIK10KeyWrapperIP14Il2CppIUnknownEjEES5_N6il2cpp5utils11PointerHashIS3_EEN14dense_hash_mapIS5_jSB_NS5_14EqualsComparerINS0_8equal_toIS4_EEEENS0_9allocatorIS7_EEE9SelectKeyESG_SI_E12expand_arrayEjN21dense_hash_map_traits17integral_constantIbLb0EEE
iCc:_cff_size_done
SRb:__ZN29ExtractProjectionPlanesHelperILb1EE5ApplyERK10Matrix4x4fP5Plane
Orh:_EqualityComparer_1_System_Collections_IEqualityComparer_Equals_m3376587337_gshared
tIb:__ZN22RenderingCommandBuffer13GetAndCheckRTE24BuiltinRenderTextureTypeRKN9ShaderLab16FastPropertyNameEPKcPP13RenderTexture
ZVb:__ZN6Camera34UpdatePreviousViewProjectionMatrixEv
lQa:__ZN9ShaderLab11ShaderState25RemoveUnsupportedProgramsEPK6Shader
bfb:__ZL23AddGpuProgramParametersR20GpuProgramParametersRKNSt3__26vectorIN9ShaderLab20SerializedSubProgram15MatrixParameterENS1_9allocatorIS5_EEEERKNS2_INS4_15VectorParameterENS6_ISB_EEEEiP16PropertyNamesSet
flg:__ZL179U3CCreateWhereIteratorU3Ec__Iterator1D_1_t2523986802_CustomAttributesCacheGenerator_U3CCreateWhereIteratorU3Ec__Iterator1D_1_System_Collections_IEnumerator_get_Current_m1354814095P21CustomAttributesCache
Ygc:__Z44Register_UnityEngine_Object_DestroyImmediatev
A5f:__ZL57CompareOptions_t2829943955_CustomAttributesCacheGeneratorP21CustomAttributesCache
x9f:__ZL62_ConstructorBuilder_t1236878896_CustomAttributesCacheGeneratorP21CustomAttributesCache
Vif:_NameValueCollection__ctor_m1767369537
Nne:_Int64_System_IConvertible_ToInt16_m2022633688_AdjustorThunk
yze:_OrdinalComparer__ctor_m2952942058
_Qc:__ZNSt3__26__treeINS_12__value_typeIN4core12basic_stringIcNS2_20StringStorageDefaultIcEEEEN11UnityEngine7Connect19RemoteSettingsValueEEENS_19__map_value_compareIS6_SA_NS_4lessIS6_EELb1EEE13stl_allocatorISA_L18MemLabelIdentifier6ELi16EEE16__construct_nodeERKNS_4pairIKS6_S9_EE
Cbi:_Transform_INTERNAL_get_localPosition_m130325652
VP:__Z71Register_UnityEngine_AudioSource_INTERNAL_CALL_ClearExtensionPropertiesv
Rjj:__ZN6il2cpp8metadata25Il2CppGenericClassCompare7CompareEPK18Il2CppGenericClassS4_
$B:__ZNK8Animator20IsInMatchTargetStateEv
zmg:__ZL115DebugLogHandler_t865810509_CustomAttributesCacheGenerator_DebugLogHandler_Internal_LogException_m4229368478____obj1P21CustomAttributesCache
aH:__ZN13AudioListener23VirtualRedirectTransferER24GenerateTypeTreeTransfer
T5f:__ZL51TextInfo_t3620182823_CustomAttributesCacheGeneratorP21CustomAttributesCache
Yjc:__Z36Register_UnityEngine_GUI_set_changedv
ifd:_ColorTween_get_startColor_m278546349_AdjustorThunk
DDf:_Encoding_get_Unicode_m1382741113
wVh:_Behaviour_set_enabled_m602406666
iMh:_LifetimeServices_set_SponsorshipTimeout_m1403222216
xie:_NumberFormatInfo_get_PositiveSign_m3396333026
h5g:__Z37RuntimeInvoker_Enumerator_t1147558385PFvvEPK10MethodInfoPvPS4_
Ywd:_Char_ToString_m1401375624_AdjustorThunk
sZd:_Array_InternalArray__ICollection_Add_TisTableRange_t2011406615_m147373358_gshared
YFd:_Convert_ToDateTime_m1251728572
uZd:_Array_InternalArray__ICollection_Add_TisBoolean_t3825574718_m1009318882_gshared
Y0e:_ReadOnlyCollection_1_System_Collections_IList_set_Item_m1149349508_gshared
kw:__ZN27AnimationLayerMixerPlayable18SetInputConnectionEP8Playablei
Zpg:__ZL101Transform_t3275118058_CustomAttributesCacheGenerator_Transform_INTERNAL_set_localRotation_m1514748659P21CustomAttributesCache
Vv:__ZN7mecanim28TransformValueArrayBlendNodeEiiiRKNS_10ValueArrayERKNS_14ValueArrayMaskERS0_RS3_RNS_16ValueArrayWeightEf
Gyf:_ObjectReader_ReadObjectContent_m3949770110
YHe:_List_1_System_Collections_ICollection_get_SyncRoot_m3031553207_gshared
J0h:_Mesh_get_colors32_m1054093013
rDi:__ZN6il2cpp2vm5Class40GetInterfaceInvokeDataFromVTableSlowPathEPK12Il2CppObjectPK11Il2CppClassj
yLa:__ZN20TierGraphicsSettings8TransferI18StreamedBinaryReadILb0EEEEvRT_
Mdh:_Text_get_font_m3115501113
QYi:__GLOBAL__sub_I_Thread_cpp
WQa:__ZN14SafeBinaryRead8TransferINSt3__24pairIN9ShaderLab16FastPropertyNameE10ColorRGBAfEEEEvRT_PKc17TransferMetaFlags
Qzi:__ZL9rshift128PyS_
Ayf:_ObjectReader_RecordFixup_m1893348030
W4d:_LayoutGroup_SetProperty_TisRuntimeObject_m1703476175_gshared
OTf:_EnumBuilder_GetElementType_m1228393631
EWi:__ZN14dense_hash_mapI10KeyWrapperINSt3__24pairIPK12PropertyInfoP11Il2CppClassEEEj17ReflectionMapHashIS8_ENS9_14EqualsComparerINS1_8equal_toIS8_EEEENS1_9allocatorINS2_IKS9_jEEEEE13set_empty_keyERSH_
Kg:_glRenderbufferStorage
f2i:__ZNK15dense_hashtableINSt3__24pairIK10KeyWrapperINS1_IPKcS4_EEEiEES6_24NamespaceAndNamePairHashN14dense_hash_mapIS6_iS9_NS6_14EqualsComparerI26NamespaceAndNamePairEqualsEENS0_9allocatorIS8_EEE9SelectKeyESD_SF_E13find_positionERS7_
U6f:__ZL80ILGenerator_t99948092_CustomAttributesCacheGenerator_ILGenerator_Emit_m116557729P21CustomAttributesCache
xOi:_RaycastHit_get_point_m3350410423_AdjustorThunk
Idc:__Z45Register_UnityEngine_Input_get_touchSupportedv
lPc:__ZN11UnityEngine15PlatformWrapper28GetTextureFormatSupportFlagsEv
Oxc:_UNITY_FT_Create_Class_pshinter_module_class
B4c:_String_CompareOrdinalCaseInsensitiveUnchecked_m2002640463
qud:_Boolean_GetHashCode_m1894638460
MCc:_cf2_setError
ihe:_AppDomainInitializer_BeginInvoke_m2446455399
SFf:_UTF7Encoding_InternalGetChars_m4157428055
F8a:__Z33InterpolateLightProbeCoefficientsRK17LightProbeContextRK29LightProbeSamplingCoordinatesR20SphericalHarmonicsL2
khh:_Enumerator_Reset_m3129803197_AdjustorThunk
MGb:__ZZ23InitPlayerLoopCallbacksvEN35PreUpdateSendMouseEventsRegistrator7ForwardEv
wce:_SmallXmlParser_HandleBufferedContent_m3397096753
gZg:__Z55RuntimeInvoker_Void_t1841601450_SpriteState_t1353336012PFvvEPK10MethodInfoPvPS4_
Xea:__ZNK6Camera25GetNormalizedViewportRectEP13RenderTextureb
Xg:_glDisable
zod:_InputField_OnDeselect_m3963675647
qxh:_InternalEnumerator_1_MoveNext_m1994485778_AdjustorThunk
zPa:__ZN13RenderTexture8TransferI24GenerateTypeTreeTransferEEvRT_
dAe:_KeyValuePair_2_get_Value_m1916631176_AdjustorThunk
ZQf:_MethodBase__ctor_m3951051358
zwa:__ZN4PPtrI9Texture2DE8TransferI14SafeBinaryReadEEvRT_
Jaj:__ZN6il2cpp5utils11StringUtils15StringDuplicateEPKDsj
Lgd:_Dropdown_get_template_m3014799983
Ppf:_BaseMachine_Scan_m122450399
Tu:__ZN17AnimationPlayable17ProcessRootMotionEP35AnimationPlayableEvaluationConstantP32AnimationPlayableEvaluationInputP33AnimationPlayableEvaluationOutput
Jxd:_ArrayList_CopyTo_m2353632788
e_h:_GameObject_get_activeSelf_m2643917226
A7f:__ZL71AssemblyFileVersionAttribute_t2897687916_CustomAttributesCacheGeneratorP21CustomAttributesCache
M4:__ZNSt3__26vectorINS_4pairIyP17VertexDeclarationEENS_9allocatorIS4_EEE6assignIPS4_EENS_9enable_ifIXaasr21__is_forward_iteratorIT_EE5valuesr16is_constructibleIS4_NS_15iterator_traitsISB_E9referenceEEE5valueEvE4typeESB_SB_
hGe:_List_1_Add_m943275925_gshared
fAj:b119
lWc:_HMAC_get_BlockSizeValue_m603907214
JHb:__ZNK8Material12GetPassCountEv
kDd:_Enumerator__cctor_m3784927209
Yzj:b110
Zzj:b111
_zj:b112
bpj:_bitshift64Ashr
aAj:b114
bAj:b115
cAj:b116
dAj:b117
FGi:__ZN30dense_hashtable_const_iteratorINSt3__24pairIK10KeyWrapperIN6il2cpp5utils13dynamic_arrayIPK10Il2CppTypeLj4EEEEPFvvEEESA_NS3_8metadata19Il2CppSignatureHashEN14dense_hash_mapISA_SD_SG_NSA_14EqualsComparerINSF_22Il2CppSignatureCompareEEENS0_9allocatorISE_EEE9SelectKeyESK_SM_E30advance_past_empty_and_deletedEv
zia:__ZN4crnd12crn_unpacker22decode_alpha_endpointsEv
wSb:__Z23CullDynamicObjectsUmbraPK4AABBPKN5Umbra15OcclusionBufferER9IndexList
pUe:_Collection_1_RemoveItem_m2565709010_gshared
Jx:__ZThn148_NK26AnimatorControllerPlayable41GetStateMachineBehaviourVectorDescriptionEv
Ozc:_tt_cmap4_char_next
NOe:_Queue_1_System_Collections_ICollection_get_IsSynchronized_m307125669_gshared
EYg:__Z49RuntimeInvoker_TouchScreenKeyboardType_t875112366PFvvEPK10MethodInfoPvPS4_
Q$h:_Mathf_Approximately_m1944881077
QWg:__Z444RuntimeInvoker_Boolean_t3825574718_RuntimeObject_RuntimeObject_RuntimeObject_ColorU26_t3402129837_Int32_t2071877448_Single_t2076509932_Single_t2076509932_Int32_t2071877448_SByte_t454417549_SByte_t454417549_Int32_t2071877448_Int32_t2071877448_Int32_t2071877448_Int32_t2071877448_SByte_t454417549_Int32_t2071877448_Single_t2076509932_Single_t2076509932_Single_t2076509932_Single_t2076509932_SByte_t454417549_SByte_t454417549_UInt32U26_t2197289955PFvvEPK10MethodInfoPvPS4_
f2h:_GeneralNames_ToString_m800435094
bdd:_BaseMeshEffect_OnDidApplyAnimationProperties_m2484799839
bcg:__ZL73AsymmetricSignatureDeformatter_t3580832979_CustomAttributesCacheGeneratorP21CustomAttributesCache
h6c:_ASCIIEncoding_GetString_m3931709239
Gdi:_Vector4_Equals_m2166390052
$8h:_RectTransform_SetInsetAndSizeFromParentEdge_m2595554673
yW:__GLOBAL__sub_I_runtime_assetbundles_1_cpp
qI:__ZN4FMOD7Channel11setPositionEjj
Ph:_glBindSampler
l2e:_ReadOnlyCollection_1_System_Collections_Generic_ICollectionU3CTU3E_Clear_m964488020_gshared
s2c:_SecurityFrame_get_Domain_m3219347572_AdjustorThunk
Th:_glGetVertexAttribiv
D4c:_String_IndexOfAny_m2027595557
wZd:_Array_InternalArray__ICollection_Add_TisChar_t3454481338_m422084244_gshared
vEi:__ZNSt3__218uninitialized_fillIPNS_4pairIK10KeyWrapperIPKcEP11Il2CppClassEES9_EEvT_SB_RKT0_
YIc:__ZN2UI11CanvasGroup23VirtualRedirectTransferER18StreamedBinaryReadILb0EE
nKh:_OutAttribute__ctor_m1447235100
i2e:_ReadOnlyCollection_1_get_Item_m3778245964_gshared
Ghg:__ZL52EventArgs_t3289624707_CustomAttributesCacheGeneratorP21CustomAttributesCache
Hai:_Texture__ctor_m1220114221
Hqc:__ZN8JSONRead8TransferIbEEvRT_PKc17TransferMetaFlagsb
vRe:_Collection_1_RemoveAt_m290627370_gshared
W9c:_PointerEventData_get_lastPress_m3835070463
Wlf:_X509KeyUsageExtension_Decode_m3292847033
QXg:__Z52RuntimeInvoker_RaycastResult_t21186376_RuntimeObjectPFvvEPK10MethodInfoPvPS4_
UYf:_Module_filter_by_type_name_ignore_case_m3574895736
Tag:__ZL57ProxyAttribute_t4031752430_CustomAttributesCacheGeneratorP21CustomAttributesCache
OVa:__ZN26CustomRenderTextureManager19PreAllocateMaterialEP19CustomRenderTexture
Msc:__ZN19ControllerHitReport13onObstacleHitERKN5physx23PxControllerObstacleHitE
gyf:_ObjectReader_ReadObject_m397855326
Ecj:_GC_promote_black_lists
bld:_Image_get_fillAmount_m3354146540
vrc:__Z29Transfer_Blittable_ArrayFieldI8JSONRead8Vector4fEvRT_R9ArrayInfoRK23StaticTransferFieldInfo
QDe:_List_1_Sort_m1518807012_gshared
On:FUNCTION_TABLE_vf
mo:FUNCTION_TABLE_vd
XKf:_Type_GetMethod_m1930231379
oo:FUNCTION_TABLE_vi
fY:__ZN13RuntimeStaticI37UnityShaderCompilerExtPluginConfigureLb0EE16StaticInitializeEPv
LQc:__ZN11UnityEngine7Connect17DeviceStatusEvent20SetDeviceAspectRatioEf
x6f:__ZL55StreamReader_t2360341767_CustomAttributesCacheGeneratorP21CustomAttributesCache
M7d:_SimpleCollator_GetContraction_m1391584430
tud:_CultureInfo_get_InvariantCulture_m398972276
Vtd:_Boolean_System_IConvertible_ToInt64_m4142756949_AdjustorThunk
FE:__ZNK8Animator17HasBoundPlayablesEv
Wkc:__ZN5Unity9rapidjson13GenericReaderINS0_4UTF8IcEES3_13JSONAllocatorE10ParseFalseILj0ENS0_19GenericStringStreamIS3_EENS0_15GenericDocumentIS3_S4_S4_EEEEvRT0_RT1_
A6e:_HMAC_initializePad_m3828610671
kqg:__ZL68DrivenTransformProperties_t2488747555_CustomAttributesCacheGeneratorP21CustomAttributesCache
qZc:_RSAParameters_t1462703416_marshal_pinvoke_cleanup
JLi:__ZN6il2cpp2vm7Runtime9SetConfigEPKc
zlc:__ZN5Unity9rapidjson12PrettyWriterI16TempBufferWriterNS0_4UTF8IcEES4_13JSONAllocatorE10StartArrayEv
oMh:_ConfigHandler_OnChars_m2004226744
ta:invoke_iiifiii
l$i:__ZN6il2cpp2vm9Exception11FromNameMsgEPK11Il2CppImagePKcS6_S6_
jie:_NumberFormatInfo_get_NumberDecimalDigits_m3706097953
JKf:_Type_internal_from_name_m1506974323
_m:FUNCTION_TABLE_fiiifii
$D:__ZN10HumanTrait15InitializeClassEv
V6:__Z14GetTimeManagerv
l8e:_ContentInfo_get_ContentType_m2984320800
WTc:__ZN19TransportJavaScript7CleanupEv
FCa:__Z12GUIDToStringRK9UnityGUIDPc
GVh:_Bounds_get_center_m2113902127_AdjustorThunk
R5h:_PlayableOutputHandle_GetHashCode_m191656281
shi:_InvokableCall_1_Invoke_m3574781157_gshared
EL:__ZN11AudioSource22UnmuteActiveVideoSinksEv
Gaj:__ZN4utf88internal20is_overlong_sequenceIiEEbjT_
Bug:__ZL87AudioSource_t1135106623_CustomAttributesCacheGenerator_AudioSource_get_clip_m2622010175P21CustomAttributesCache
Ni:_glReadBuffer
tEa:__Z9SetLocalR15TransformAccessRKN4math7_float4Ey
Zyd:_SynchronizedArrayListWrapper_get_Count_m4104930530
fWc:_HashAlgorithm_get_HashSize_m2625667696
oOb:__Z30SetupBakedOcclusionForGeometrybRK26SharedLightmapSettingsDataRK15LightmapIndicesR17ShaderPassContext
FZh:_UnityEventBase_UnityEngine_ISerializationCallbackReceiver_OnBeforeSerialize_m3933203561
B2d:_Array_Resize_TisVector4_t2243707581_m1528805937_gshared
r0c:_SecurityPermission_IsSubsetOf_m1087302418
Gbc:__Z41Register_UnityEngine_Cursor_get_lockStatev
tei:_Event_Internal_GetMousePosition_m2992465246
MNb:__Z14SetupLightmapsRK8Vector4fS1_R17ShaderPassContext
cVi:__ZN14dense_hash_mapI10KeyWrapperIPK14Il2CppAssemblyEPK22Il2CppMonoAssemblyNameN6il2cpp5utils11PointerHashIS2_EENS4_14EqualsComparerINSt3__28equal_toIS3_EEEENSD_9allocatorINSD_4pairIKS4_S7_EEEEE13set_empty_keyERSJ_
Brf:_Interval_get_Empty_m3170923997
vOa:__ZL20InitializeGUIShadersv
Y$b:__Z20DestroyObjectDelayedP6Objectf
LV:__ZN20DynamicHeapAllocatorI17LowLevelAllocatorED0Ev
Ond:_InputField_OnDrag_m726194348
aKh:_GuidAttribute__ctor_m1099153635
U8d:_PreviousInfo__ctor_m1442166472_AdjustorThunk
hLb:__ZN9DepthPassD2Ev
rKd:_DateTime_get_Kind_m1331920314_AdjustorThunk
Qxi:_TextGenerator_get_rectExtents_m954923136
jH:__ZN11AudioFilter6GetDSPEv
kXf:_PropertyBuilder_get_Module_m1618339927
Q_:__ZN19RuntimeSceneManager14CanUnloadSceneEP10UnityScene
iQg:__Z50RuntimeInvoker_Single_t2076509932_Int64_t909078037PFvvEPK10MethodInfoPvPS4_
jLb:__Z22ExtractRenderNodeQueueRK11CullResults15ExtractionFlagsR15RenderNodeQueue
A1d:_Array_InternalArray__set_Item_TisContentType_t1028629049_m703420360_gshared
i7i:__ZN6il2cpp2vm6Method7GetNameEPK10MethodInfo
pOe:_List_1_set_Item_m1431784996_gshared
qG:__ZN24AudioScriptBufferManagerC2Ev
Quc:__ZNSt3__26vectorIh13stl_allocatorIhL18MemLabelIdentifier1ELi16EEE8__appendEj
YJg:__Z95RuntimeInvoker_Void_t1841601450_RuntimeObject_Int32_t2071877448_Int32_t2071877448_RuntimeObjectPFvvEPK10MethodInfoPvPS4_
Nkc:__ZN8JSONRead32GetValueForKeyWithNameConversionEPKN5Unity9rapidjson12GenericValueINS1_4UTF8IcEE13JSONAllocatorEEPKc
Tuc:__ZN20TextRenderingPrivate8FontImpl16ResetPackingDataEv
iYd:_Array_InternalArray__IndexOf_TisLink_t865133271_m3612939760_gshared
B_h:_Input_get_mousePresent_m1100327283
umc:__Z18Transfer_BlittableI9JSONWriteLb0EfEvRK29SerializationCommandArgumentsR31RuntimeSerializationCommandInfo
Rha:__Z21GetAsyncUploadManagerv
Ej:_emscripten_glDetachShader
O2f:__ZL66RuntimeArray_CustomAttributesCacheGenerator_Array_Sort_m3500510484P21CustomAttributesCache
T6d:_SafeHandleZeroOrMinusOneIsInvalid_get_IsInvalid_m2033528032
Kwd:_Char_IsUpper_m4083577610
Fha:__ZN17GenericDynamicVBO20ReleaseChunkInternalERK21DynamicVBOChunkHandlejj
CHc:__ZL27CleanupModule_TextRenderingv
S6d:_SafeHandleZeroOrMinusOneIsInvalid__ctor_m3340306667
wlj:_fmodl
Gzf:_SerializationInfo_AddValue_m902275108
Klj:_fmodf
iXe:_Collection_1_RemoveItem_m2272047354_gshared
Gva:__ZN12CachedWriter11Align4WriteEv
nMb:__Z20DoDeferredRenderLoopR17RenderLoopContextR13dynamic_arrayI16RenderObjectDataLj4EES4_RK11CullResultsRP13RenderTextureSA_Pb
pza:__ZNSt3__26vectorIiNS_9allocatorIiEEE21__push_back_slow_pathIKiEEvRT_
rEb:__ZN19RuntimeSceneManager11CreateSceneEv
Oci:_Vector2_op_Implicit_m385881926
_Bc:_ps_get_standard_strings
nOb:__Z27SetupBakedOcclusionForLightbRK15SharedLightDataR17ShaderPassContext
dij:__ZN6il2cpp2os5Mutex6UnlockEv
Tjf:__ZN21InterfaceFuncInvoker1IP13Uri_t19570940S1_E6InvokeEjP11Il2CppClassP12Il2CppObjectS1_
_ah:_ScrollRect_OnScroll_m3346515304
hoj:__ZN10__cxxabiv116__shim_type_infoD2Ev
UBe:_Enumerator_System_Collections_IEnumerator_get_Current_m3461301268_gshared
DJg:__Z63RuntimeInvoker_Void_t1841601450_Int32_t2071877448_RuntimeObjectPFvvEPK10MethodInfoPvPS4_
unh:_Dictionary_2_CopyToCheck_m1638253305_gshared
jIb:__Z18RenderImageFiltersR10RenderLoopb
dW:__Z19free_alloc_internalPv18MemLabelIdentifier
mMc:__Z43CanvasRenderer_Get_Custom_PropMaterialCountP12Il2CppObject
WXh:__ZN23InterfaceActionInvoker2IP21Exception_t1927440687P18Object_t1021602117E6InvokeEjP11Il2CppClassP12Il2CppObjectS1_S3_
yOb:__ZNSt3__227__insertion_sort_incompleteIR23CompareReflectionProbesP31RuntimeReflectionProbeBlendInfoEEbT0_S5_T_
UZe:_ReadOnlyCollection_1_System_Collections_Generic_IListU3CTU3E_set_Item_m25653560_gshared
wfi:_GUIContent_t4210063000_marshal_pinvoke_cleanup
Qrc:__ZN8JSONRead21TransferSTLStyleArrayI13dynamic_arrayI11QuaternionfLj4EEEEvRT_17TransferMetaFlags
kp:__ZN6Object23VirtualRedirectTransferER19StreamedBinaryWriteILb1EE
hac:__ZNK9BlobWrite24HasOffsetPtrWithDebugPtrEv
yDg:__ZL68Selectable_t1490392188_CustomAttributesCacheGenerator_m_InteractableP21CustomAttributesCache
A8e:_CertificateSelectionCallback_Invoke_m2902629105
m4:__ZN10InputEventD2Ev
aFd:_DateTimeFormatInfo_GetAllDateTimePatternsInternal_m1587126173
R0c:_Evidence__ctor_m1638117806
VTe:__ZN21InterfaceFuncInvoker1Ib22UICharInfo_t3056636800E6InvokeEjP11Il2CppClassP12Il2CppObjectS0_
gme:_NumberFormatter_Append_m3268121457
kyh:_InternalEnumerator_1_Dispose_m3578333724_AdjustorThunk
Dga:__ZN15dense_hashtableINSt3__24pairIK9TextureIDiEES2_N12TextureIdMap20TextureIDHashFunctorEN14dense_hash_mapIS2_iS6_NS0_8equal_toIS2_EE13stl_allocatorIS4_L18MemLabelIdentifier67ELi16EEE9SelectKeyES9_SC_E12resize_deltaEjj
gUc:__ZN22UnityWebRequestManagerD2Ev
bYh:_DebugLogHandler__ctor_m786660247
$Yc:_RSA_ToXmlString_m4145056574
bPd:_Double_System_IConvertible_ToUInt64_m1318285078_AdjustorThunk
blj:_isalpha
G9g:_Selectable_FindSelectable_m2739582497
Okd:_LayoutGroup_GetAlignmentOnAxis_m1783063916
RJd:_DateTimeUtils_ZeroPad_m86470512
cMg:__Z94RuntimeInvoker_Void_t1841601450_RuntimeObject_Int32_t2071877448_RuntimeObject_SByte_t454417549PFvvEPK10MethodInfoPvPS4_
Gai:_TextAreaAttribute__ctor_m2180114682
FJi:__ZN6il2cpp2vmL17IsSocketAsyncCallEP14Il2CppDelegate
xki:_U3CStartU3Ec__Iterator0_MoveNext_m42377021_gshared
eaj:__ZN6il2cpp2vm6String6NewLenEPKcj
sCb:__ZN17PersistentManager9AddStreamEv
S8i:__ZN6il2cpp2os6Thread12GetApartmentEv
cua:__ZN9GfxDevice28UpdateComputeConstantBuffersEjP12ObjectHandleI18ConstantBuffer_TagPvEjjPKhPKjS8_PKi
Uk:_time
ABg:__ZL79GraphicRaycaster_t410733016_CustomAttributesCacheGenerator_U3CU3Ef__amU24cache0P21CustomAttributesCache
F0h:_Mesh_get_uv_m1990385212
O5h:_PlayableOutput_Equals_m2167434642_AdjustorThunk
Cjd:_Graphic_UnregisterDirtyLayoutCallback_m1724443555
BEa:__ZN14BatchAllocator6CommitE18MemLabelIdentifier
sDc:_cf2_stack_free
h9c:_ExecuteEvents_get_pointerClickHandler_m713983310
Hu:__ZN7mecanim9animation19EvaluateFloatValuesEPKNS0_18ClipMuscleConstantEPKNS_18ValueArrayConstantEPKNS0_12ClipBindingsEPKNS0_10ClipOutputEPNS0_18AnimationNodeStateEfbb
XEg:__ZL94LayoutGroup_t3962498969_CustomAttributesCacheGenerator_LayoutGroup_DelayedSetDirty_m4276695617P21CustomAttributesCache
GC:__ZN8Animator31ClearInternalControllerPlayableEv
oPf:_WeakReference_Finalize_m3318354542
RDa:__ZN10GameObject8TransferI24GenerateTypeTreeTransferEEvRT_
xCe:_Enumerator_VerifyState_m3913376581_gshared
zEg:__ZL72GridLayoutGroup_t1515633077_CustomAttributesCacheGenerator_m_StartCornerP21CustomAttributesCache
dlg:__ZL83U3CCreateWhereIteratorU3Ec__Iterator1D_1_t2523986802_CustomAttributesCacheGeneratorP21CustomAttributesCache
SPg:__Z51RuntimeInvoker_Int16_t4041245914_Double_t4078015681PFvvEPK10MethodInfoPvPS4_
WQi:__ZN15dense_hashtableINSt3__24pairIK10KeyWrapperINS1_IPK9FieldInfoP11Il2CppClassEEEjEES9_17ReflectionMapHashIS8_EN14dense_hash_mapIS9_jSD_NS9_14EqualsComparerINS0_8equal_toIS8_EEEENS0_9allocatorISB_EEE9SelectKeyESI_SK_E4findERSA_
Pyj:_glDeleteSync__wrapper
vGd:_Decimal_op_Implicit_m623319612
hkh:_ValueCollection_System_Collections_Generic_ICollectionU3CTValueU3E_Remove_m98888100_gshared
v8c:_EventTrigger_OnPointerExit_m2119176877
_Hf:_ThreadAbortException__ctor_m1623816114
G0b:__ZN13ProduceHelperI30RuntimeInitializeOnLoadManagerLb0EE7ProduceE18MemLabelIdentifier18ObjectCreationMode
_Tb:__ZN13RenderTexture19SetAutoGenerateMipsEb
hja:__Z20GetTextureFormatInfo13TextureFormat
vMg:__Z119RuntimeInvoker_RuntimeObject_RuntimeObject_RuntimeObject_Int32_t2071877448_Int32_t2071877448_MonoIOErrorU26_t1029615899PFvvEPK10MethodInfoPvPS4_
ux:__ZN26AnimatorControllerPlayable8GetFloatEiRf
B7g:_Shadow__ctor_m924057531
jad:_PointerEventData_set_worldPosition_m192283671
sRe:_Collection_1_InsertItem_m1391780791_gshared
Yvb:__ZN18StreamedBinaryReadILb1EE5AlignEv
zgj:__ZN6il2cpp5utils10MemoryPool6MallocEj
KF:__ZN11SoundHandle8InstanceD2Ev
v7:__ZN31CanvasBatchIntermediateRenderer13StaticDestroyEPv
h5h:_X509Store_BuildCrlsCollection_m52567568
t0:__ZNSt3__23mapIiP15MonoScriptCacheNS_4lessIiEE13stl_allocatorINS_4pairIKiS2_EEL18MemLabelIdentifier78ELi16EEEixERS7_
$Hi:__ZNK15dense_hashtableINSt3__24pairIK10KeyWrapperIPK11Il2CppClassEPKcEES6_N6il2cpp5utils11PointerHashIS3_EEN14dense_hash_mapIS6_S9_SE_NS6_14EqualsComparerINS0_8equal_toIS5_EEEENS0_9allocatorISA_EEE9SelectKeyESJ_SL_E10test_emptyERK24dense_hashtable_iteratorISA_S6_SE_SN_SJ_SL_E
szf:_CallbackHandler__ctor_m1235509347
b6d:_Array_InternalArray__get_Item_TisUICharInfo_t3056636800_m3872982785_gshared
L0h:_Mesh_SetNormals_m2780518036
MPd:_Enum_ToString_m662345249
TDe:_List_1_get_Capacity_m531373308_gshared
lVg:__Z150RuntimeInvoker_Single_t2076509932_Single_t2076509932_Single_t2076509932_SingleU26_t4173844468_Single_t2076509932_Single_t2076509932_Single_t2076509932PFvvEPK10MethodInfoPvPS4_
lcg:__ZL66DESCryptoServiceProvider_t933603253_CustomAttributesCacheGeneratorP21CustomAttributesCache
Dbc:__Z41Register_UnityEngine_CullingGroup_Disposev
IQg:__Z54RuntimeInvoker_Boolean_t3825574718_DateTime_t693205669PFvvEPK10MethodInfoPvPS4_
zUa:__ZN7Cubemap23VirtualRedirectTransferER19StreamedBinaryWriteILb0EE
eBa:__ZN25MultiBlocksMemoryFileData5WriteEyyPKv
RZh:_ScriptableRenderContext__ctor_m3729862500_AdjustorThunk
LJe:_List_1_System_Collections_IList_Add_m4271264217_gshared
Kth:_Action_1_BeginInvoke_m1305519803_gshared
_Vi:__ZN14dense_hash_mapI10KeyWrapperIPK10Il2CppTypeEjN6il2cpp8metadata14Il2CppTypeHashENS4_14EqualsComparerINS6_26Il2CppTypeEqualityComparerEEENSt3__29allocatorINSB_4pairIKS4_jEEEEE13set_empty_keyERSE_
Tma:__ZL17ProgramUniform2fvPK7ApiGLESjiihPKv
Kwj:b83
Luc:__ZN20TextRenderingPrivate8FontImpl21HasCharacterInTextureEjijfPj
mAh:_InternalEnumerator_1_Dispose_m219216750_AdjustorThunk
xmj:_htonl
rea:__Z20GetBufferManagerGLESv
oXd:__ZN21InterfaceFuncInvoker1Ii18Color32_t874517518E6InvokeEjP11Il2CppClassP12Il2CppObjectS0_
Oyb:__ZN18StreamedBinaryReadILb0EE21TransferSTLStyleArrayI31ArrayOfManagedObjectsTransfererEEvRT_17TransferMetaFlags
bGf:_UTF7Decoder_GetChars_m2790530452
ymj:_htons
Fpc:__Z18Transfer_BlittableI8JSONReadLb0EtEvRK29SerializationCommandArgumentsR31RuntimeSerializationCommandInfo
pUi:__ZN15dense_hashtableINSt3__24pairIK10KeyWrapperINS1_IPK9EventInfoP11Il2CppClassEEEjEES9_17ReflectionMapHashIS8_EN14dense_hash_mapIS9_jSD_NS9_14EqualsComparerINS0_8equal_toIS8_EEEENS0_9allocatorISB_EEE9SelectKeyESI_SK_E12expand_arrayEjN21dense_hash_map_traits17integral_constantIbLb0EEE
lvb:__Z18Transfer_BlittableI18StreamedBinaryReadILb1EELb0E5RectTIiEEvRK29SerializationCommandArgumentsR31RuntimeSerializationCommandInfo
zgi:_GUIStyle_t1799908754_marshal_pinvoke_back
ceh:_Text_set_fontSize_m2101304336
NUa:__ZNK7Cubemap20GetTextureLayerCountEv
Cxc:_pshinter_module_class_pic_free
ICg:__ZL68Navigation_t1571958496_CustomAttributesCacheGenerator_m_SelectOnLeftP21CustomAttributesCache
dy:__ZN34AnimationStateMachineMixerPlayable13EndTransitionEv
zaj:__ZNSt3__212basic_stringIDsNS_11char_traitsIDsEENS_9allocatorIDsEEE9__grow_byEjjjjjj
TH:__ZN12AudioManager21FixMasterGroupRoutingEv
__c:_SymmetricAlgorithm_set_Key_m2973350820
$Ag:__ZL58FontData_t2614388407_CustomAttributesCacheGenerator_m_FontP21CustomAttributesCache
elf:_WebHeaderCollection_IsHeaderValue_m1723393133
Vtc:__ZN20TextRenderingPrivate8FontImpl13CharacterInfo8TransferI24GenerateTypeTreeTransferEEvRT_
BCe:_Enumerator_Dispose_m3717265706_AdjustorThunk
AKg:__Z69RuntimeInvoker_Boolean_t3825574718_Int32_t2071877448_SByte_t454417549PFvvEPK10MethodInfoPvPS4_
g7i:__ZN6il2cpp2os10ThreadImpl33UnregisterCurrentThreadForCleanupEv
nw:__ZN27AnimationLayerMixerPlayable22PrepareAnimationEventsEfR13dynamic_arrayI22AnimationClipEventInfoLj4EE
dlb:__Z18Transfer_BlittableI14SafeBinaryReadLb1E4AABBEvRK29SerializationCommandArgumentsR31RuntimeSerializationCommandInfo
p6i:__ZN6il2cpp6icalls8mscorlib6System4Enum12get_hashcodeEP12Il2CppObject
Cfj:_GC_set_no_dls
Vjj:__ZN6il2cpp8metadata26Il2CppGenericMethodCompare6EqualsEPK19Il2CppGenericMethodS4_
M5:__Z22CreateMutexLockedQueue18MemLabelIdentifier
Wge:_AppDomain_get_CurrentDomain_m3432767403
rZa:__ZNK13ScreenManager16GetScreenTimeoutEv
yG:__ZN9AudioClip7WWWOpenEPKciPjPPvS4_
ekg:__ZL66Uri_t19570940_CustomAttributesCacheGenerator_Uri__ctor_m3854873816P21CustomAttributesCache
Avg:__ZL88GUIStyle_t1799908754_CustomAttributesCacheGenerator_GUIStyle_get_stretchWidth_m813991504P21CustomAttributesCache
Wkb:__Z18Transfer_BlittableI14SafeBinaryReadLb0E8Vector2fEvRK29SerializationCommandArgumentsR31RuntimeSerializationCommandInfo
fEg:__ZL101ToggleGroup_t1030026315_CustomAttributesCacheGenerator_ToggleGroup_U3CAnyTogglesOnU3Em__0_m1218114300P21CustomAttributesCache
J3b:__ZZN13BuildSettingsC1E18MemLabelIdentifier18ObjectCreationModeEN38initializedPreloadedPluginsRegistrator7ForwardEv
Akf:_IPv6Address_SwapUShort_m1481806078
w1d:_Array_InternalArray__set_Item_TisPlayableBinding_t2498078091_m2071396616_gshared
Due:_SynchronizedReader_Peek_m282642073
$bb:__ZN15SerializeTraitsIN9ShaderLab20SerializedSubProgram16TextureParameterEE8TransferI14SafeBinaryReadEEvRS2_RT_
Wud:_Byte_System_IConvertible_ToInt16_m1575115635_AdjustorThunk
m0i:__ZN6il2cpp5utils13dynamic_arrayIP12Il2CppObjectLj4EE20resize_uninitializedEjb
xLh:_CrossAppDomainData_get_ProcessID_m2865289777
aMf:_UInt16_System_IConvertible_ToUInt16_m1646506872_AdjustorThunk
_ci:_Vector3_set_Item_m2026854946_AdjustorThunk
LMh:_Context_get_HasGlobalDynamicSinks_m3205328884
j8d:_SimpleCollator_CompareQuick_m619038530
FDg:__ZL93Selectable_t1490392188_CustomAttributesCacheGenerator_Selectable_get_isPointerDown_m774209881P21CustomAttributesCache
Pgf:_SslStreamBase_EndRead_m1072850679
B8e:_CertificateSelectionCallback_BeginInvoke_m990408067
eua:__ZN9GfxDevice22DispatchComputeProgramE12ObjectHandleI18ComputeProgram_TagPvEjjj
ed:_SDL_GetTicks
dge:_X509CertificateEnumerator_System_Collections_IEnumerator_get_Current_m1643583406
aoa:__ZN18GfxFramebufferGLES20CleanupFBOMapForRBIDERKj
PSi:__ZN15dense_hashtableINSt3__24pairIK10KeyWrapperINS1_IPK11Il2CppImageP11Il2CppClassEEEjEES9_17ReflectionMapHashIS8_EN14dense_hash_mapIS9_jSD_NS9_14EqualsComparerINS0_8equal_toIS8_EEEENS0_9allocatorISB_EEE9SelectKeyESI_SK_E6insertERKSB_
AHc:__ZL34RegisterModuleICalls_TextRenderingv
bSb:__Z21CreateShadowCullerJobP30CreateUmbraShadowCullerJobData
Lma:__ZL18ProgramUniform2uivPK7ApiGLESjiihPKv
eWe:_Collection_1_System_Collections_ICollection_get_IsSynchronized_m1375670137_gshared
iqi:_AudioConfigurationChangeHandler_BeginInvoke_m1585211075
$Ob:__Z33GenerateShadowCasterPartsSortDataRK16ShadowCasterDatajRK15RenderNodeQueueRKNSt3__26vectorI20ShadowCasterPartData13stl_allocatorIS7_L18MemLabelIdentifier2ELi16EEEERK10Matrix4x4fRjP20ShadowCasterSortData
q_h:_GUILayer_INTERNAL_CALL_HitTest_m381183969
Zwd:_Char_GetTypeCode_m2251277629_AdjustorThunk
fCe:_Enumerator_Dispose_m3109097029_AdjustorThunk
Kii:_UnityAction_2_Invoke_m319876726_gshared
_nb:__Z29Transfer_Blittable_ArrayFieldI14SafeBinaryRead9BoundsIntEvRT_R9ArrayInfoRK23StaticTransferFieldInfo
kph:_Dictionary_2_ToTKey_m4209561517_gshared
GCc:_cf2_computeDarkening
_cj:_GC_expand_hp_inner
O3i:__ZNK15dense_hashtableI10KeyWrapperIP18Il2CppGenericClassES3_N6il2cpp8metadata22Il2CppGenericClassHashEN14dense_hash_setIS3_S6_NS3_14EqualsComparerINS5_25Il2CppGenericClassCompareEEENSt3__29allocatorIS3_EEE8IdentityESA_SD_E12test_deletedEj
ycc:__Z25Screen_Get_Custom_PropDpiv
nub:__Z29Transfer_Blittable_ArrayFieldI19StreamedBinaryWriteILb0EEsEvRT_R9ArrayInfoRK23StaticTransferFieldInfo
Bcd:_AnimationTriggers_get_disabledTrigger_m2987312382
ckd:_GridLayoutGroup_get_spacing_m1909275195
vaj:__ZN4utf812find_invalidIPKcEET_S3_S3_
tpf:_X509ExtensionCollection_System_Collections_ICollection_CopyTo_m3421329346
scj:_GC_err_printf
zUf:_FieldBuilder_SetValue_m3109503557
Nid:_Graphic_OnBeforeTransformParentChanged_m1866292273
knf:_X509Certificate2_Verify_m1574874641
NS:__ZN11UnityEngine15CloudWebService20WebRequestRestClient7PrepareEv
Zzg:__ZL58PhysicsRaycaster_t249603239_CustomAttributesCacheGeneratorP21CustomAttributesCache
zuc:__ZN20TextRenderingPrivate19NativeTextGenerator23FixLineHorizontalOffsetEiii
cni:_EqualityComparer_1_System_Collections_IEqualityComparer_GetHashCode_m1473684243_gshared
cDd:_SortedList_GetEnumerator_m1318483481
efi:_GUILayoutUtility_LayoutFreeGroup_m2224160855
Yof:_X509ChainElement_set_StatusFlags_m1058207137
tid:_FontData_UnityEngine_ISerializationCallbackReceiver_OnBeforeSerialize_m2486694676
nz:__ZN7mecanim9animation19DestroyAnimationSetEPNS0_12AnimationSetERNS_6memory9AllocatorE
Eoe:_IntPtr__ctor_m2996690883_AdjustorThunk
ysj:_emscripten_glDepthRange__wrapper
u1:__ZN14SerializedFile7ReleaseEv
Jxi:_TextGenerator__ctor_m1469954680
jjb:__ZN16MemoryFileSystem4OpenER13FileEntryData14FilePermission16FileAutoBehavior
TXe:_Collection_1_Remove_m3355928137_gshared
i7:__ZN13RuntimeStaticI13RendererSceneLb0EE13StaticDestroyEPv
PO:__ZN12AudioManager12CleanupClassEv
hrb:__Z18Transfer_BlittableI24GenerateTypeTreeTransferLb1E12PropertyNameEvRK29SerializationCommandArgumentsR31RuntimeSerializationCommandInfo
$3a:__ZN14SafeBinaryRead21TransferSTLStyleArrayI10vector_mapIPKN5Unity4TypeE7Hash128NSt3__24lessIS5_EENS7_9allocatorINS7_4pairIS5_S6_EEEEEEEvRT_17TransferMetaFlags
xG:__ZN9AudioClip18GetQueuedAudioDataEPPvj
qHc:__ZN20TextRenderingPrivate21TextMeshGeneratorImpl14GarbageCollectEv
wqh:_DefaultComparer_GetHashCode_m3439703487_gshared
l6b:__ZNK9Texture2D17CheckHasPixelDataEv
Wsb:__Z18Transfer_BlittableI19StreamedBinaryWriteILb0EELb0E9BoundsIntEvRK29SerializationCommandArgumentsR31RuntimeSerializationCommandInfo
SKb:__Z18SetShadowsKeywordsR17ShaderPassContext9LightType10ShadowType16ShadowProjectionbb
DWi:__ZN14dense_hash_mapI10KeyWrapperINSt3__24pairIPK12PropertyInfoP11Il2CppClassEEEj17ReflectionMapHashIS8_ENS9_14EqualsComparerINS1_8equal_toIS8_EEEENS1_9allocatorINS2_IKS9_jEEEEEC2EjRKSB_RKSF_
L2b:__ZN17CollisionMeshDataC2Ev
HOh:_Regex_get_RightToLeft_m529734879
Bah:_ScrollRect_SetDirty_m93243192
aWa:__ZN16LightmapSettings23VirtualRedirectTransferER19StreamedBinaryWriteILb0EE
bHb:__ZZ23InitPlayerLoopCallbacksvEN47PostLateUpdateMemoryFrameMaintenanceRegistrator7ForwardEv
ro:FUNCTION_TABLE_viiififii
UJg:__Z78RuntimeInvoker_Int32_t2071877448_RuntimeObject_RuntimeObject_Int32_t2071877448PFvvEPK10MethodInfoPvPS4_
Ldj:_GC_push_next_marked
S8a:__ZN18IDCollectorFunctor18GenerateInstanceIDEi17TransferMetaFlags
rme:_NumberFormatter_ToDecHex_m1474793296
cmg:__ZL81Camera_t189460977_CustomAttributesCacheGenerator_Camera_GetAllCameras_m4202293088P21CustomAttributesCache
aYg:__Z74RuntimeInvoker_Int32_t2071877448_RaycastHit_t87180320_RaycastHit_t87180320PFvvEPK10MethodInfoPvPS4_
fxa:__ZN14StackAllocatorD0Ev
mZi:__ZN6il2cpp2vm6Thread8SetStateEP12Il2CppThreadNS0_11ThreadStateE
wze:_OperatingSystem_Clone_m1943707477
mid:_FontData_set_richText_m29558601
pIf:_Scheduler_Change_m4063588742
OHi:__ZN6il2cpp2vm13MetadataCache25GetMethodGenericContainerEPK10MethodInfo
y2d:_Array_Resize_TisVector2_t2243707579_m1117258774_gshared
S2:__ZNSt3__27__sort4IRNS_6__lessI14ObjectLoadDataS2_EEPS2_EEjT0_S6_S6_S6_T_
yJb:__ZNK25CameraStackRenderingState16GetCurrentCameraEv
wvh:_InternalEnumerator_1_Dispose_m1640363425_AdjustorThunk
Nya:__ZN17PersistentManager4LockEv
I8b:__Z22PlayableValidityChecksRK9HPlayableb
B5a:__ZN15ResourceManagerD2Ev
tIe:_List_1_Insert_m2532850849_gshared
sbc:__Z41Register_UnityEngine_Camera_GetAllCamerasv
uKe:_List_1_Sort_m2659614836_gshared
pCg:__ZL154U3CCaretBlinkU3Ec__Iterator0_t906898126_CustomAttributesCacheGenerator_U3CCaretBlinkU3Ec__Iterator0_System_Collections_IEnumerator_get_Current_m2309548992P21CustomAttributesCache
Z6g:_MaskableGraphic_OnCanvasHierarchyChanged_m2012659245
tia:__ZN4crnd12crn_unpacker10unpack_dxnEPPhjjjjjj
vRc:__ZN28PerformanceReportingSettings8TransferI14SafeBinaryReadEEvRT_
QFh:_DefaultComparer__ctor_m3668042_gshared
QGd:_Double_Parse_m2344589511
Vlg:__ZL81Camera_t189460977_CustomAttributesCacheGenerator_Camera_get_eventMask_m3043767706P21CustomAttributesCache
qPg:__Z78RuntimeInvoker_Boolean_t3825574718_IntPtr_t_Int32_t2071877448_SByte_t454417549PFvvEPK10MethodInfoPvPS4_
Npc:__Z18Transfer_BlittableI8JSONReadLb1E5RectTIiEEvRK29SerializationCommandArgumentsR31RuntimeSerializationCommandInfo
k_i:__ZN6il2cpp2vm22EmbeddedResourceRecordC2ERKS1_
vfb:__ZNSt3__26vectorIN9ShaderLab20SerializedSubProgram15VectorParameterENS_9allocatorIS3_EEE21__push_back_slow_pathIKS3_EEvRT_
uUa:__ZN9Texture2D13AwakeFromLoadE17AwakeFromLoadMode
s9d:_Kernel_SingleByteDivideInPlace_m1760318278
C7d:_MSCompatUnicodeTableUtil__cctor_m1479836795
USh:_PositionAssertion__ctor_m3703837499
Bpd:_LayoutGroup_get_minWidth_m4111745491
eue:_StreamWriter_Initialize_m1707678624
J5i:__ZN6il2cpp2vm3RCW14QueryInterfaceILb0EEEP14Il2CppIUnknownP15Il2CppComObjectRK10Il2CppGuid
uah:_ScrollRect_set_verticalScrollbar_m2903688658
Pka:__ZN6prcoreL17RemapGenericFloatI15TexFormatRFloat18TexFormatARGBFloatEEvPKNS_9InnerInfoE
Aog:__ZL77Mesh_t1356156583_CustomAttributesCacheGenerator_Mesh_SetTriangles_m4023324404P21CustomAttributesCache
P9f:__ZL50_Thread_t1894135853_CustomAttributesCacheGeneratorP21CustomAttributesCache
U$h:_Mathf__cctor_m2286160987
yzh:_InternalEnumerator_1_get_Current_m1047712960_gshared
kui:__ZL25UnresolvedVirtualCall_209P12Il2CppObjectiiPK10MethodInfo
uSc:__ZN11UnityEngine15PlatformWrapper20GetPlayerPrefsUInt64ERKN4core12basic_stringIcNS1_20StringStorageDefaultIcEEEEy
BOb:__ZN20ReflectionProbeCacheC2ER13BatchRendererR15RenderLoopStats
_Pa:__ZN7Texture23VirtualRedirectTransferER18StreamedBinaryReadILb0EE
T9g:_U3CClickRepeatU3Ec__Iterator0_System_Collections_Generic_IEnumeratorU3CobjectU3E_get_Current_m3444627780
yxg:__ZL99CanvasRenderer_t261436805_CustomAttributesCacheGenerator_CanvasRenderer_SetAlphaTexture_m1030438445P21CustomAttributesCache
Y7:__ZN18AssetBundleManagerC2Ev
hib:__ZNK12HandlerChain6ExistsERK13FileEntryData
Xkg:__ZL61ExtensionAttribute_t1840441203_CustomAttributesCacheGeneratorP21CustomAttributesCache
mHd:_Convert_ToInt32_m2734833291
qPb:__Z30FindDirectAttenuationFromProbeP18ForwardLightsBlockbiRK10RenderNodeRK23FindForwardLightsParamsf
e3a:__ZN12InputManager23VirtualRedirectTransferER24GenerateTypeTreeTransfer
mhb:__ZN9Transform23VirtualRedirectTransferER24GenerateTypeTreeTransfer
YYa:__Z18GetLODGroupManagerv
nMe:_List_1_Sort_m3574220472_gshared
rfb:__ZNSt3__26vectorIN9ShaderLab20SerializedSubProgram12UAVParameterENS_9allocatorIS3_EEE21__push_back_slow_pathIKS3_EEvRT_
pLh:_CrossAppDomainChannel_RegisterCrossAppDomainChannel_m43456045
cpf:_X509ChainElement_Count_m228862214
ZJf:_TimeZone_IsDaylightSavingTime_m1840774423
hFc:_UNITY_tt_size_ready_bytecode
cZh:_InvokableCallList_ClearPersistent_m2011323876
ltc:__ZN13TextRendering4FontD2Ev
r4a:__ZN27GenericSlowGarbageCollectorD2Ev
yGg:__Z47RuntimeInvoker_Single_t2076509932_RuntimeObjectPFvvEPK10MethodInfoPvPS4_
dwc:_UNITY_FT_Stream_Open
h_g:__Z39RuntimeInvoker_KeyValuePair_2_t38854645PFvvEPK10MethodInfoPvPS4_
lde:_PKCS1_RSAEP_m3065689068
jsb:__Z29Transfer_Blittable_ArrayFieldI24GenerateTypeTreeTransfer9BoundsIntEvRT_R9ArrayInfoRK23StaticTransferFieldInfo
JBa:__ZN10MemoryFile4ReadEyyPvPy
kgb:__ZN8keywords18KeywordSetToStringERK16ShaderKeywordSetRN4core12basic_stringIcNS3_20StringStorageDefaultIcEEEE
kaa:__ZN13GfxDeviceGLES26UpdateViewProjectionMatrixEv
UVh:_Bounds_op_Inequality_m1440807554
VEb:__ZNSt3__26vectorIN22BuiltinResourceManager8ResourceENS_9allocatorIS2_EEE21__push_back_slow_pathIKS2_EEvRT_
Vmh:_Dictionary_2_ContainsKeyValuePair_m1750905675_gshared
ivh:_InternalEnumerator_1_System_Collections_IEnumerator_Reset_m1181480250_AdjustorThunk
o1g:__Z54RuntimeInvoker_Void_t1841601450_LabelFixup_t4090909514PFvvEPK10MethodInfoPvPS4_
ZE:__ZN4FMOD3DSP12setParameterEif
PCb:__ZN13MemoryManager16StaticInitializeEv
v5f:__ZL53StackFrame_t2050294881_CustomAttributesCacheGeneratorP21CustomAttributesCache
jf:___cxa_free_exception
m1e:_ReadOnlyCollection_1_System_Collections_ICollection_CopyTo_m4126742951_gshared
_I:__ZN4FMOD22FakeModChannelCallbackEPv
pf:_emscripten_glValidateProgram
RLa:__ZN4Mesh10CreateMeshEv
XTi:__ZN6il2cpp2gc19AppendOnlyGCHashMapINSt3__24pairIPK9EventInfoP11Il2CppClassEEP21Il2CppReflectionEvent17ReflectionMapHashIS9_ENS2_8equal_toIS9_EEE3AddERKS9_SB_
QF:__ZN4FMOD7SystemI11createSoundEPKcjP22FMOD_CREATESOUNDEXINFOPPNS_5SoundE
txf:_ArrayFixupRecord_FixupImpl_m2377725358
T2h:_PKCS12_get_Certificates_m2320062949
bDc:_cf2_stack_clear
DOd:_Double_System_IConvertible_ToBoolean_m4251806534_AdjustorThunk
sae:_BigInteger_op_GreaterThanOrEqual_m1998498565
Ihh:_ShimEnumerator_Reset_m2247049027_gshared
X$i:__ZN6il2cpp6icalls8mscorlib6System4Type27get_IsGenericTypeDefinitionEP20Il2CppReflectionType
$Tb:__ZN7Texture13SetAnisoLevelEi
$Q:__ZNSt3__26__treeINS_12__value_typeIN4core12basic_stringIcNS2_20StringStorageDefaultIcEEEEjEENS_19__map_value_compareIS6_S7_NS_4lessIS6_EELb1EEE13stl_allocatorIS7_L18MemLabelIdentifier88ELi16EEE7destroyEPNS_11__tree_nodeIS7_PvEE
vnf:_X509Chain_Process_m2508784250
iNe:_List_1_RemoveAt_m2929488689_gshared
TGc:_raccess_guess_vfat
ykh:_ValueCollection_System_Collections_IEnumerable_GetEnumerator_m2109355710_gshared
tNc:__Z44Canvas_CUSTOM_GetETC1SupportedCanvasMaterialv
Z4h:_X509Extension_Decode_m972859652
SKa:__ZN11HaloManager10UpdateHaloEiR9Transform11ColorRGBA32fjP6Object
FY:__ZN33InstancedMeshIntermediateRenderer13StaticDestroyEPv
$ke:_Int16_Parse_m3012618547
N9h:_SelectionBaseAttribute__ctor_m381356211
P0i:__ZN14dense_hash_mapI10KeyWrapperIP14Il2CppIUnknownEjN6il2cpp5utils11PointerHashIS1_EENS3_14EqualsComparerINSt3__28equal_toIS2_EEEENS9_9allocatorINS9_4pairIKS3_jEEEEE13set_empty_keyERSF_
RMg:__Z50RuntimeInvoker_Void_t1841601450_OpCode_t2247480392PFvvEPK10MethodInfoPvPS4_
UWd:_Array_InternalArray__IEnumerable_GetEnumerator_TisVector4_t2243707581_m829381058_gshared
LJa:__Z21DestroyShadowMapCacheP14ShadowMapCache
Ow:__ZN7mecanim9animation25CreateControllerWorkspaceEPKNS0_18ControllerConstantERNS_6memory9AllocatorE
aBe:_Enumerator_VerifyState_m739025304_gshared
tgd:_Graphic_RegisterDirtyVerticesCallback_m4169445219
Uoh:_Dictionary_2_get_Count_m3636113691_gshared
bWi:__ZN15dense_hashtableINSt3__24pairIK10KeyWrapperIPK10Il2CppTypeEjEES6_N6il2cpp8metadata14Il2CppTypeHashEN14dense_hash_mapIS6_jSB_NS6_14EqualsComparerINSA_26Il2CppTypeEqualityComparerEEENS0_9allocatorIS8_EEE9SelectKeyESF_SH_E14squash_deletedEv
l0i:__ZN6il2cpp2vm13LivenessState5ResetEv
YZg:__Z138RuntimeInvoker_Void_t1841601450_RuntimeObject_Color32_t874517518_Int32_t2071877448_Int32_t2071877448_Single_t2076509932_Single_t2076509932PFvvEPK10MethodInfoPvPS4_
Xlc:__ZN9JSONWrite8TransferI11KeyframeTplIfEEEvRT_PKc17TransferMetaFlags
Jdh:_Text_get_cachedTextGenerator_m224335893
S3d:_Array_swap_TisVector4_t2243707581_m3504221493_gshared
wrg:__ZL122PropertyNameUtils_t2642641347_CustomAttributesCacheGenerator_PropertyNameUtils_PropertyNameFromString_m2013205104____name0P21CustomAttributesCache
UEh:_InternalEnumerator_1_Dispose_m4229866913_AdjustorThunk
Cvf:_ObjRef_get_ChannelInfo_m53840305
u1i:__ZN6il2cpp2vm3RCW23GetOrCreateFromIUnknownEP14Il2CppIUnknownP11Il2CppClass
GFb:__ZN24BuiltinShaderParamValuesC2Ev
kmc:__ZL41CreateJSONTransferFunctionScriptingTraitsv
cwd:_Convert_ToInt32_m3683486440
PYg:__Z65RuntimeInvoker_Void_t1841601450_Rect_t3681755626_SByte_t454417549PFvvEPK10MethodInfoPvPS4_
Stg:__ZL65AnimationMixerPlayable_t1343787797_CustomAttributesCacheGeneratorP21CustomAttributesCache
ire:_FileStream_get_CanWrite_m775322953
zkg:__ZL72PKCS12_t1362584795_CustomAttributesCacheGenerator_U3CU3Ef__switchU24map7P21CustomAttributesCache
DIf:_TimerCallback_BeginInvoke_m2938818726
QAb:__Z23GetLateBehaviourManagerv
d9c:_ExecuteEvents_Execute_m2863348178
o1:__ZN10MemoryPool10DeallocateEPv
ric:__ZN8GUIState8SetEventERK10InputEvent
Vhe:_NumberFormatInfo__ctor_m2752806684
$gf:_SslStreamBase_get_CanRead_m3061866682
pTe:_Collection_1_System_Collections_IList_get_IsReadOnly_m1820916678_gshared
Vna:__ZN14GfxDeviceStats10ResetFrameEv
EPh:_PatternCompiler_EmitFastRepeat_m1175707353
o5d:_Array_InternalArray__get_Item_TisKeyValuePair_2_t3716250094_m3120861630_gshared
Fxc:_cff_driver_class_pic_free
sMf:_UInt32_TryParse_m3987111861
$u:__ZN17AnimationPlayable22SetStateMachineMessageEN7mecanim12statemachine19StateMachineMessageE
Gqj:dynCall_vif
Hqj:dynCall_vid
cHe:_List_1_System_Collections_IList_get_Item_m3989815218_gshared
Iqj:dynCall_vii
xLa:__ZN4PPtrI8MaterialE8TransferI18StreamedBinaryReadILb0EEEEvRT_
Sog:__ZL85Sprite_t309593783_CustomAttributesCacheGenerator_Sprite_INTERNAL_get_rect_m3094981747P21CustomAttributesCache
Dyb:__Z18Transfer_BlittableI18StreamedBinaryReadILb0EELb0EdEvRK29SerializationCommandArgumentsR31RuntimeSerializationCommandInfo
VOh:_Enumerator_System_Collections_IEnumerator_MoveNext_m3313126804
WKb:__ZNK17InstancedPropInfo14IsInstanceableERK19ShaderPropertySheet
vfe:_PKCS12_Finalize_m107130293
Eua:__ZN5Unity9Component16CheckConsistencyEv
C4b:__Z38scripting_class_get_system_type_object17ScriptingClassPtr
Qcd:_LayoutRebuilder_ValidController_m2595049322
Dna:__ZN7ApiGLES11CheckShaderERjb
AHa:__ZN19ShaderPropertySheet37CreateTextureAuxPropertyUninitializedEN9ShaderLab16FastPropertyNameES1_PKc
ytb:__ZL26Transfer_SimpleNativeClassI19StreamedBinaryWriteILb0EE10RectOffsetLb1EEvRK29SerializationCommandArgumentsR31RuntimeSerializationCommandInfo
Uze:_KeyValuePair_2_get_Value_m544293807_gshared
n5d:_Array_InternalArray__get_Item_TisKeyValuePair_2_t1174980068_m964958642_gshared
CQc:__ZN11UnityEngine7Connect17DeviceStatusEventD2Ev
RAd:_DictionaryEntry_get_Key_m3623293571_AdjustorThunk
BRi:__ZN15dense_hashtableINSt3__24pairIK10KeyWrapperIPK10Il2CppTypeEjEES6_N6il2cpp8metadata14Il2CppTypeHashEN14dense_hash_mapIS6_jSB_NS6_14EqualsComparerINSA_26Il2CppTypeEqualityComparerEEENS0_9allocatorIS8_EEE9SelectKeyESF_SH_E3endEv
sPb:__Z28GetNonInterpolatedLightProbeRK17LightProbeContextjR20SphericalHarmonicsL2
HZd:_Array_InternalArray__ICollection_Add_TisDateTime_t693205669_m3559987213_gshared
bda:__ZN13GfxDeviceGLES17SetGpuProgramNameEP10GpuProgramPKc
_S:__ZNK11UnityEngine15CloudWebService25WebRequestDownloadHandler11GetProgressEv
Vyi:_CanvasGroup_IsRaycastLocationValid_m2290612432
MIi:__ZN6il2cpp2vm13MetadataCache28GetMethodDefinitionFromIndexEi
Yig:__ZL77U3CPrivateImplementationDetailsU3E_t1486305137_CustomAttributesCacheGeneratorP21CustomAttributesCache
lLa:__Z32TransferEnumWithNameForceIntSizeI14SafeBinaryReadN21BuiltinShaderSettings17BuiltinShaderModeEEvRT_RT0_PKc17TransferMetaFlags
x8i:__ZN6il2cpp2os20FileErrnoToErrorCodeEi
RQa:__ZN14SafeBinaryRead19TransferSTLStyleMapINSt3__23mapI39DeprecatedFastPropertyNameSerialization10ColorRGBAfNS1_4lessIS3_EENS1_9allocatorINS1_4pairIKS3_S4_EEEEEEEEvRT_17TransferMetaFlags
mCd:_Slot_t2022531261_marshal_pinvoke
rZf:_MonoEventInfo_GetEventInfo_m2331957186
aXh:_Component_get_transform_m3374354972
Zg:_atexit
Rzd:_BitArrayEnumerator_Reset_m3218489242
vOi:_RaycastHit_t87180320_marshal_pinvoke_cleanup
hvd:_Byte_System_IConvertible_ToUInt16_m2275325191
qXd:__ZN21InterfaceFuncInvoker1Ii23RaycastResult_t21186376E6InvokeEjP11Il2CppClassP12Il2CppObjectS0_
XRf:_ConstructorBuilder_get_CallingConvention_m443074051
t8h:_RectTransform_INTERNAL_get_anchorMin_m3722367822
EUi:__ZN6il2cpp2vmL31GetObjectForMissingDefaultValueEj
m1f:__ZL80Decimal_t724701077_CustomAttributesCacheGenerator_Decimal_op_Implicit_m233687092P21CustomAttributesCache
yOc:__ZN11UnityEngine15PlatformWrapper30GetVRPlayAreaBoundaryDimensionEv
rGi:__ZNK15dense_hashtableINSt3__24pairIK10KeyWrapperIN6il2cpp5utils13dynamic_arrayIPK10Il2CppTypeLj4EEEEPFvvEEESA_NS3_8metadata19Il2CppSignatureHashEN14dense_hash_mapISA_SD_SG_NSA_14EqualsComparerINSF_22Il2CppSignatureCompareEEENS0_9allocatorISE_EEE9SelectKeyESK_SM_E10test_emptyEj
Kcb:__ZN9ShaderLab14SerializedPassC2ERKS0_
nxh:_InternalEnumerator_1_System_Collections_IEnumerator_get_Current_m3088751576_AdjustorThunk
Eba:__ZNK9GfxDevice28GetActiveRenderSurfaceHeightEv
dVf:_GenericTypeParameterBuilder_GetCustomAttributes_m3266536625
l:STACKTOP
Mhd:_U3CDelayedDestroyDropdownListU3Ec__Iterator0_System_Collections_IEnumerator_get_Current_m622919791
hN:__ZNK7Texture14IsDepthTextureEv
HEc:_cff_get_name_index
ewe:_Math_Cos_m43596019
rWa:__ZN21EnlightenSceneMapping16BuildRemapTablesEv
Yuf:_SoapFieldAttribute_get_XmlElementName_m4100905008
r5b:__ZN17TransformInternal27UpdateDeepChildCountUpwardsER18TransformHierarchyii
XDh:_InternalEnumerator_1_System_Collections_IEnumerator_get_Current_m1533037706_AdjustorThunk
moj:__ZNK10__cxxabiv117__class_type_info16search_above_dstEPNS_19__dynamic_cast_infoEPKvS4_ib
J4f:__ZL59ArrayListWrapper_t3918858854_CustomAttributesCacheGeneratorP21CustomAttributesCache
A:tempBigIntD
o3c:_Single_Equals_m3359827399_AdjustorThunk
A8c:_EventTrigger_OnPointerClick_m413999043
z:tempBigIntI
